#include "hi_asm_define.h"
	.arch armv7-a
	.fpu softvfp
	.eabi_attribute 20, 1
	.eabi_attribute 21, 1
	.eabi_attribute 23, 3
	.eabi_attribute 24, 1
	.eabi_attribute 25, 1
	.eabi_attribute 26, 2
	.eabi_attribute 30, 2
	.eabi_attribute 34, 0
	.eabi_attribute 18, 4
	.file	"mvc.c"
	.text
	.align	2
	.global	MVC_IsSTRefFlg
	.type	MVC_IsSTRefFlg, %function
MVC_IsSTRefFlg:
	UNWIND(.fnstart)
	@ args = 0, pretend = 0, frame = 0
	@ frame_needed = 1, uses_anonymous_args = 0
	UNWIND(.movsp ip)
	mov	ip, sp
	stmfd	sp!, {fp, ip, lr, pc}
	UNWIND(.pad #4)
	UNWIND(.save {fp, ip, lr})
	UNWIND(.setfp fp, ip, #-4)
	sub	fp, ip, #4
	ldr	r0, [r0]
	bic	r0, r0, #-16777216
	bic	r0, r0, #255
	sub	r0, r0, #65536
	clz	r0, r0
	mov	r0, r0, lsr #5
	ldmfd	sp, {fp, sp, pc}
	UNWIND(.fnend)
	.size	MVC_IsSTRefFlg, .-MVC_IsSTRefFlg
	.align	2
	.global	MVC_IsLTRefFlg
	.type	MVC_IsLTRefFlg, %function
MVC_IsLTRefFlg:
	UNWIND(.fnstart)
	@ args = 0, pretend = 0, frame = 0
	@ frame_needed = 1, uses_anonymous_args = 0
	UNWIND(.movsp ip)
	mov	ip, sp
	stmfd	sp!, {fp, ip, lr, pc}
	UNWIND(.pad #4)
	UNWIND(.save {fp, ip, lr})
	UNWIND(.setfp fp, ip, #-4)
	sub	fp, ip, #4
	ldr	r0, [r0]
	bic	r0, r0, #-16777216
	bic	r0, r0, #255
	sub	r0, r0, #256
	clz	r0, r0
	mov	r0, r0, lsr #5
	ldmfd	sp, {fp, sp, pc}
	UNWIND(.fnend)
	.size	MVC_IsLTRefFlg, .-MVC_IsLTRefFlg
	.align	2
	.global	MVC_compare_pic_by_pic_num_desc
	.type	MVC_compare_pic_by_pic_num_desc, %function
MVC_compare_pic_by_pic_num_desc:
	UNWIND(.fnstart)
	@ args = 0, pretend = 0, frame = 0
	@ frame_needed = 1, uses_anonymous_args = 0
	UNWIND(.movsp ip)
	mov	ip, sp
	stmfd	sp!, {fp, ip, lr, pc}
	UNWIND(.pad #4)
	UNWIND(.save {fp, ip, lr})
	UNWIND(.setfp fp, ip, #-4)
	sub	fp, ip, #4
	ldr	r2, [r0]
	ldr	r3, [r1]
	ldr	r2, [r2, #12]
	ldr	r3, [r3, #12]
	cmp	r2, r3
	blt	.L5
	mvngt	r0, #0
	movle	r0, #0
	ldmfd	sp, {fp, sp, pc}
.L5:
	mov	r0, #1
	ldmfd	sp, {fp, sp, pc}
	UNWIND(.fnend)
	.size	MVC_compare_pic_by_pic_num_desc, .-MVC_compare_pic_by_pic_num_desc
	.align	2
	.global	MVC_compare_pic_by_lt_pic_num_asc
	.type	MVC_compare_pic_by_lt_pic_num_asc, %function
MVC_compare_pic_by_lt_pic_num_asc:
	UNWIND(.fnstart)
	@ args = 0, pretend = 0, frame = 0
	@ frame_needed = 1, uses_anonymous_args = 0
	UNWIND(.movsp ip)
	mov	ip, sp
	stmfd	sp!, {fp, ip, lr, pc}
	UNWIND(.pad #4)
	UNWIND(.save {fp, ip, lr})
	UNWIND(.setfp fp, ip, #-4)
	sub	fp, ip, #4
	ldr	r2, [r0]
	ldr	r3, [r1]
	ldr	r2, [r2, #8]
	ldr	r3, [r3, #8]
	cmp	r2, r3
	blt	.L9
	movgt	r0, #1
	movle	r0, #0
	ldmfd	sp, {fp, sp, pc}
.L9:
	mvn	r0, #0
	ldmfd	sp, {fp, sp, pc}
	UNWIND(.fnend)
	.size	MVC_compare_pic_by_lt_pic_num_asc, .-MVC_compare_pic_by_lt_pic_num_asc
	.align	2
	.global	MVC_compare_fs_by_frame_num_desc
	.type	MVC_compare_fs_by_frame_num_desc, %function
MVC_compare_fs_by_frame_num_desc:
	UNWIND(.fnstart)
	@ args = 0, pretend = 0, frame = 0
	@ frame_needed = 1, uses_anonymous_args = 0
	UNWIND(.movsp ip)
	mov	ip, sp
	stmfd	sp!, {fp, ip, lr, pc}
	UNWIND(.pad #4)
	UNWIND(.save {fp, ip, lr})
	UNWIND(.setfp fp, ip, #-4)
	sub	fp, ip, #4
	ldr	r2, [r0]
	ldr	r3, [r1]
	ldr	r2, [r2, #24]
	ldr	r3, [r3, #24]
	cmp	r2, r3
	blt	.L12
	mvngt	r0, #0
	movle	r0, #0
	ldmfd	sp, {fp, sp, pc}
.L12:
	mov	r0, #1
	ldmfd	sp, {fp, sp, pc}
	UNWIND(.fnend)
	.size	MVC_compare_fs_by_frame_num_desc, .-MVC_compare_fs_by_frame_num_desc
	.align	2
	.global	MVC_compare_fs_by_lt_pic_idx_asc
	.type	MVC_compare_fs_by_lt_pic_idx_asc, %function
MVC_compare_fs_by_lt_pic_idx_asc:
	UNWIND(.fnstart)
	@ args = 0, pretend = 0, frame = 0
	@ frame_needed = 1, uses_anonymous_args = 0
	UNWIND(.movsp ip)
	mov	ip, sp
	stmfd	sp!, {fp, ip, lr, pc}
	UNWIND(.pad #4)
	UNWIND(.save {fp, ip, lr})
	UNWIND(.setfp fp, ip, #-4)
	sub	fp, ip, #4
	ldr	r2, [r0]
	ldr	r3, [r1]
	ldr	r2, [r2, #28]
	ldr	r3, [r3, #28]
	cmp	r2, r3
	bcc	.L15
	movhi	r0, #1
	movls	r0, #0
	ldmfd	sp, {fp, sp, pc}
.L15:
	mvn	r0, #0
	ldmfd	sp, {fp, sp, pc}
	UNWIND(.fnend)
	.size	MVC_compare_fs_by_lt_pic_idx_asc, .-MVC_compare_fs_by_lt_pic_idx_asc
	.align	2
	.global	MVC_compare_pic_by_poc_asc
	.type	MVC_compare_pic_by_poc_asc, %function
MVC_compare_pic_by_poc_asc:
	UNWIND(.fnstart)
	@ args = 0, pretend = 0, frame = 0
	@ frame_needed = 1, uses_anonymous_args = 0
	UNWIND(.movsp ip)
	mov	ip, sp
	stmfd	sp!, {fp, ip, lr, pc}
	UNWIND(.pad #4)
	UNWIND(.save {fp, ip, lr})
	UNWIND(.setfp fp, ip, #-4)
	sub	fp, ip, #4
	ldr	r2, [r0]
	ldr	r3, [r1]
	ldr	r2, [r2, #16]
	ldr	r3, [r3, #16]
	cmp	r2, r3
	blt	.L18
	movgt	r0, #1
	movle	r0, #0
	ldmfd	sp, {fp, sp, pc}
.L18:
	mvn	r0, #0
	ldmfd	sp, {fp, sp, pc}
	UNWIND(.fnend)
	.size	MVC_compare_pic_by_poc_asc, .-MVC_compare_pic_by_poc_asc
	.align	2
	.global	MVC_compare_pic_by_poc_desc
	.type	MVC_compare_pic_by_poc_desc, %function
MVC_compare_pic_by_poc_desc:
	UNWIND(.fnstart)
	@ args = 0, pretend = 0, frame = 0
	@ frame_needed = 1, uses_anonymous_args = 0
	UNWIND(.movsp ip)
	mov	ip, sp
	stmfd	sp!, {fp, ip, lr, pc}
	UNWIND(.pad #4)
	UNWIND(.save {fp, ip, lr})
	UNWIND(.setfp fp, ip, #-4)
	sub	fp, ip, #4
	ldr	r2, [r0]
	ldr	r3, [r1]
	ldr	r2, [r2, #16]
	ldr	r3, [r3, #16]
	cmp	r2, r3
	blt	.L21
	mvngt	r0, #0
	movle	r0, #0
	ldmfd	sp, {fp, sp, pc}
.L21:
	mov	r0, #1
	ldmfd	sp, {fp, sp, pc}
	UNWIND(.fnend)
	.size	MVC_compare_pic_by_poc_desc, .-MVC_compare_pic_by_poc_desc
	.align	2
	.global	MVC_compare_fs_by_poc_asc
	.type	MVC_compare_fs_by_poc_asc, %function
MVC_compare_fs_by_poc_asc:
	UNWIND(.fnstart)
	@ args = 0, pretend = 0, frame = 0
	@ frame_needed = 1, uses_anonymous_args = 0
	UNWIND(.movsp ip)
	mov	ip, sp
	stmfd	sp!, {fp, ip, lr, pc}
	UNWIND(.pad #4)
	UNWIND(.save {fp, ip, lr})
	UNWIND(.setfp fp, ip, #-4)
	sub	fp, ip, #4
	ldr	r2, [r0]
	ldr	r3, [r1]
	ldr	r2, [r2, #32]
	ldr	r3, [r3, #32]
	cmp	r2, r3
	blt	.L24
	movgt	r0, #1
	movle	r0, #0
	ldmfd	sp, {fp, sp, pc}
.L24:
	mvn	r0, #0
	ldmfd	sp, {fp, sp, pc}
	UNWIND(.fnend)
	.size	MVC_compare_fs_by_poc_asc, .-MVC_compare_fs_by_poc_asc
	.align	2
	.global	MVC_compare_fs_by_poc_desc
	.type	MVC_compare_fs_by_poc_desc, %function
MVC_compare_fs_by_poc_desc:
	UNWIND(.fnstart)
	@ args = 0, pretend = 0, frame = 0
	@ frame_needed = 1, uses_anonymous_args = 0
	UNWIND(.movsp ip)
	mov	ip, sp
	stmfd	sp!, {fp, ip, lr, pc}
	UNWIND(.pad #4)
	UNWIND(.save {fp, ip, lr})
	UNWIND(.setfp fp, ip, #-4)
	sub	fp, ip, #4
	ldr	r2, [r0]
	ldr	r3, [r1]
	ldr	r2, [r2, #32]
	ldr	r3, [r3, #32]
	cmp	r2, r3
	blt	.L27
	mvngt	r0, #0
	movle	r0, #0
	ldmfd	sp, {fp, sp, pc}
.L27:
	mov	r0, #1
	ldmfd	sp, {fp, sp, pc}
	UNWIND(.fnend)
	.size	MVC_compare_fs_by_poc_desc, .-MVC_compare_fs_by_poc_desc
	.align	2
	.type	MVC_SetFrmRepeatCount.part.1, %function
MVC_SetFrmRepeatCount.part.1:
	UNWIND(.fnstart)
	@ args = 0, pretend = 0, frame = 0
	@ frame_needed = 1, uses_anonymous_args = 0
	UNWIND(.movsp ip)
	mov	ip, sp
	stmfd	sp!, {fp, ip, lr, pc}
	UNWIND(.pad #4)
	UNWIND(.save {fp, ip, lr})
	UNWIND(.setfp fp, ip, #-4)
	sub	fp, ip, #4
	add	ip, r0, #11075584
	ldr	lr, [r0, #136]
	add	ip, ip, #45056
	ldr	r3, [r0, #132]
	ldr	r2, [ip, #3016]
	mov	r3, r3, lsr #1
	add	r2, r2, lr, lsr #1
	add	ip, r2, #1
	cmp	r3, ip
	movcc	r3, #0
	strcc	r3, [r1, #24]
	ldmccfd	sp, {fp, sp, pc}
	sub	r3, r3, #1
	rsb	r3, r2, r3
	cmp	r3, #1
	movhi	r3, #2
	movls	r3, #1
	strhi	r3, [r1, #24]
	strls	r3, [r1, #24]
	ldrhi	r3, [r0, #136]
	ldrls	r3, [r0, #136]
	addhi	r3, r3, #4
	addls	r3, r3, #2
	str	r3, [r0, #136]
	ldmfd	sp, {fp, sp, pc}
	UNWIND(.fnend)
	.size	MVC_SetFrmRepeatCount.part.1, .-MVC_SetFrmRepeatCount.part.1
	.align	2
	.type	MVC_CombinePacket.part.12, %function
MVC_CombinePacket.part.12:
	UNWIND(.fnstart)
	@ args = 0, pretend = 0, frame = 0
	@ frame_needed = 1, uses_anonymous_args = 0
	UNWIND(.movsp ip)
	mov	ip, sp
	stmfd	sp!, {r4, r5, r6, fp, ip, lr, pc}
	UNWIND(.pad #4)
	UNWIND(.save {r4, r5, r6, fp, ip, lr})
	UNWIND(.setfp fp, ip, #-4)
	sub	fp, ip, #4
	UNWIND(.pad #12)
	sub	sp, sp, #12
	ldr	r1, .L33
	mov	r4, r0
	mov	r0, #7
	bl	dprint_vfmw
	ldr	ip, [r4, #232]
	ldr	r1, .L33+4
	mov	r0, #7
	mov	r5, #0
	ldr	lr, [ip, #40]
	ldr	r3, [ip, #44]
	ldr	r2, [ip, #16]
	str	lr, [sp, #4]
	ldr	ip, [ip, #12]
	str	ip, [sp]
	bl	dprint_vfmw
	ldr	r3, [r4, #232]
	ldr	ip, .L33+8
	ldr	r2, [r3, #12]
	ldr	r0, [r3, #36]
	ldr	r1, [r3, #8]
	rsb	r0, r2, r0
	ldr	r3, [ip, #52]
	blx	r3
	ldr	r3, [r4, #232]
	mov	ip, #1
	ldr	r1, .L33+12
	mov	r0, #7
	ldr	r2, [r3, #60]
	ldr	r6, [r3, #32]
	str	r2, [r3, #32]
	ldr	r3, [r4, #232]
	str	r5, [r3, #24]
	ldr	r3, [r4, #232]
	ldr	lr, [r3, #12]
	ldr	r2, [r3, #36]
	rsb	r2, lr, r2
	str	r2, [r3, #8]
	ldr	r3, [r4, #232]
	ldr	lr, [r3, #12]
	ldr	r2, [r3, #44]
	rsb	r2, lr, r2
	str	r2, [r3, #16]
	ldr	r3, [r4, #232]
	ldr	lr, [r3, #40]
	ldr	r2, [r3, #12]
	add	r2, r2, lr
	str	r2, [r3, #12]
	ldr	r3, [r4, #232]
	str	ip, [r3, #68]
	ldr	r2, [r4, #232]
	ldr	r3, [r2, #12]
	ldr	r2, [r2, #16]
	bl	dprint_vfmw
	mov	r1, r6
	ldr	r0, [r4, #120]
	bl	SM_ReleaseStreamSeg
	ldr	r3, [r4, #232]
	str	r5, [r3, #36]
	ldr	r3, [r4, #232]
	str	r5, [r3, #52]
	ldr	r3, [r4, #232]
	str	r5, [r3, #40]
	sub	sp, fp, #24
	ldmfd	sp, {r4, r5, r6, fp, sp, pc}
.L34:
	.align	2
.L33:
	.word	.LC0
	.word	.LC1
	.word	vfmw_Osal_Func_Ptr_S
	.word	.LC2
	UNWIND(.fnend)
	.size	MVC_CombinePacket.part.12, .-MVC_CombinePacket.part.12
	.align	2
	.global	mvc_ue_v
	.type	mvc_ue_v, %function
mvc_ue_v:
	UNWIND(.fnstart)
	@ args = 0, pretend = 0, frame = 0
	@ frame_needed = 1, uses_anonymous_args = 0
	UNWIND(.movsp ip)
	mov	ip, sp
	stmfd	sp!, {r4, r5, r6, r7, r8, r9, fp, ip, lr, pc}
	UNWIND(.pad #4)
	UNWIND(.save {r4, r5, r6, r7, r8, r9, fp, ip, lr})
	UNWIND(.setfp fp, ip, #-4)
	sub	fp, ip, #4
	add	r8, r0, #548
	mov	r6, r0
	mov	r7, r1
	mov	r1, #32
	mov	r0, r8
	bl	BsShow
	mov	r5, r0
	bl	ZerosMS_32
	cmp	r0, #15
	mov	r4, r0
	bls	.L39
	cmp	r0, #31
	bls	.L40
	mvn	r5, #0
	mov	r8, #32
	mov	r3, #1
	strb	r3, [r6, #10]
.L37:
	ldr	r6, [r6, #232]
	mov	r2, r7
	mov	r3, r5
	ldr	r1, .L41
	mov	r0, #21
	ldr	lr, [r6, #64]
	add	r4, lr, r8
	str	r4, [r6, #64]
	bl	dprint_vfmw
	mov	r0, r5
	ldmfd	sp, {r4, r5, r6, r7, r8, r9, fp, sp, pc}
.L39:
	mov	r4, r0, asl #1
	mov	r0, r8
	add	r8, r4, #1
	rsb	r4, r4, #31
	mov	r4, r5, lsr r4
	mov	r1, r8
	sub	r5, r4, #1
	bl	BsSkip
	b	.L37
.L40:
	add	r5, r0, #1
	mov	r1, r0
	mov	r0, r8
	bl	BsSkip
	mov	r1, r5
	mov	r0, r8
	bl	BsShow
	mov	r1, r5
	sub	r5, r0, #1
	mov	r0, r8
	bl	BsSkip
	mov	ip, r4, asl #1
	add	r8, ip, #1
	b	.L37
.L42:
	.align	2
.L41:
	.word	.LC3
	UNWIND(.fnend)
	.size	mvc_ue_v, .-mvc_ue_v
	.align	2
	.global	mvc_se_v
	.type	mvc_se_v, %function
mvc_se_v:
	UNWIND(.fnstart)
	@ args = 0, pretend = 0, frame = 0
	@ frame_needed = 1, uses_anonymous_args = 0
	UNWIND(.movsp ip)
	mov	ip, sp
	stmfd	sp!, {r4, r5, r6, r7, r8, r9, fp, ip, lr, pc}
	UNWIND(.pad #4)
	UNWIND(.save {r4, r5, r6, r7, r8, r9, fp, ip, lr})
	UNWIND(.setfp fp, ip, #-4)
	sub	fp, ip, #4
	add	r7, r0, #548
	mov	r8, r0
	mov	r6, r1
	mov	r1, #32
	mov	r0, r7
	bl	BsShow
	mov	r4, r0
	bl	ZerosMS_32
	cmp	r0, #15
	mov	r5, r0
	bhi	.L44
	mov	r5, r0, asl #1
	mov	r0, r7
	rsb	r3, r5, #31
	add	r5, r5, #1
	mov	r3, r4, lsr r3
	and	r2, r3, #1
	mov	r1, r5
	rsb	r4, r2, #0
	eor	r3, r4, r3, lsr #1
	add	r4, r3, r2
	bl	BsSkip
.L45:
	ldr	lr, [r8, #232]
	mov	r2, r6
	mov	r3, r4
	ldr	r1, .L48
	mov	r0, #21
	ldr	ip, [lr, #64]
	add	r5, ip, r5
	str	r5, [lr, #64]
	bl	dprint_vfmw
	mov	r0, r4
	ldmfd	sp, {r4, r5, r6, r7, r8, r9, fp, sp, pc}
.L44:
	cmp	r0, #31
	bls	.L47
	mov	r3, #1
	mvn	r4, #-2147483648
	mov	r5, #32
	strb	r3, [r8, #10]
	b	.L45
.L47:
	mov	r1, r0
	mov	r0, r7
	bl	BsSkip
	mov	r1, r5
	mov	r0, r7
	mov	r5, r5, asl #1
	bl	BsGet
	mov	r1, #1
	add	r5, r5, #1
	mov	r9, r0
	mov	r0, r7
	bl	BsGet
	and	r0, r0, #1
	rsb	r4, r0, #0
	eor	r9, r9, r4
	add	r4, r9, r0
	b	.L45
.L49:
	.align	2
.L48:
	.word	.LC3
	UNWIND(.fnend)
	.size	mvc_se_v, .-mvc_se_v
	.align	2
	.global	mvc_u_v
	.type	mvc_u_v, %function
mvc_u_v:
	UNWIND(.fnstart)
	@ args = 0, pretend = 0, frame = 0
	@ frame_needed = 1, uses_anonymous_args = 0
	UNWIND(.movsp ip)
	mov	ip, sp
	stmfd	sp!, {r4, r5, r6, r7, fp, ip, lr, pc}
	UNWIND(.pad #4)
	UNWIND(.save {r4, r5, r6, r7, fp, ip, lr})
	UNWIND(.setfp fp, ip, #-4)
	sub	fp, ip, #4
	mov	r5, r0
	add	r0, r0, #548
	mov	r6, r1
	mov	r7, r2
	bl	BsGet
	ldr	lr, [r5, #232]
	mov	r2, r7
	ldr	r1, .L51
	ldr	ip, [lr, #64]
	add	ip, ip, r6
	str	ip, [lr, #64]
	mov	r4, r0
	mov	r3, r0
	mov	r0, #21
	bl	dprint_vfmw
	mov	r0, r4
	ldmfd	sp, {r4, r5, r6, r7, fp, sp, pc}
.L52:
	.align	2
.L51:
	.word	.LC3
	UNWIND(.fnend)
	.size	mvc_u_v, .-mvc_u_v
	.align	2
	.global	mvc_u_1
	.type	mvc_u_1, %function
mvc_u_1:
	UNWIND(.fnstart)
	@ args = 0, pretend = 0, frame = 0
	@ frame_needed = 1, uses_anonymous_args = 0
	UNWIND(.movsp ip)
	mov	ip, sp
	stmfd	sp!, {r4, r5, r6, r7, fp, ip, lr, pc}
	UNWIND(.pad #4)
	UNWIND(.save {r4, r5, r6, r7, fp, ip, lr})
	UNWIND(.setfp fp, ip, #-4)
	sub	fp, ip, #4
	mov	r5, r0
	mov	r6, r1
	add	r0, r0, #548
	mov	r1, #1
	bl	BsGet
	ldr	lr, [r5, #232]
	mov	r2, r6
	ldr	r1, .L54
	ldr	ip, [lr, #64]
	add	ip, ip, #1
	str	ip, [lr, #64]
	mov	r4, r0
	mov	r3, r0
	mov	r0, #21
	bl	dprint_vfmw
	mov	r0, r4
	ldmfd	sp, {r4, r5, r6, r7, fp, sp, pc}
.L55:
	.align	2
.L54:
	.word	.LC3
	UNWIND(.fnend)
	.size	mvc_u_1, .-mvc_u_1
	.align	2
	.global	MVC_GetMinPOC
	.type	MVC_GetMinPOC, %function
MVC_GetMinPOC:
	UNWIND(.fnstart)
	@ args = 0, pretend = 0, frame = 8
	@ frame_needed = 1, uses_anonymous_args = 0
	UNWIND(.movsp ip)
	mov	ip, sp
	stmfd	sp!, {r4, r5, r6, r7, r8, r9, r10, fp, ip, lr, pc}
	UNWIND(.pad #4)
	UNWIND(.save {r4, r5, r6, r7, r8, r9, r10, fp, ip, lr})
	UNWIND(.setfp fp, ip, #-4)
	sub	fp, ip, #4
	UNWIND(.pad #12)
	sub	sp, sp, #12
	add	r10, r0, #11075584
	add	r10, r10, #45056
	mov	r9, r3
	mov	r8, r2
	mvn	r3, #-2147483648
	mvn	r2, #0
	str	r2, [r9]
	str	r3, [r8]
	mov	r6, r0
	ldr	r3, [r10, #3016]
	mov	r7, r1
	ldr	r2, [r10, #3020]
	cmp	r2, r3
	strhi	r3, [r10, #3020]
	cmp	r3, #0
	beq	.L63
	movw	r5, #47876
	mvn	r3, #0
	movt	r5, 169
	str	r3, [fp, #-48]
	add	r5, r0, r5
	mov	r4, #0
	b	.L62
.L60:
	ldr	r1, [r8]
	ldr	r2, [r3, #32]
	cmp	r1, r2
	ble	.L59
	ldrb	r1, [r3, #5]	@ zero_extendqisi2
	cmp	r1, #0
	beq	.L59
	ldrb	r1, [r0, #1]	@ zero_extendqisi2
	sub	r1, r1, #1
	cmp	r1, #1
	bls	.L78
.L59:
	ldr	r3, [r10, #3016]
	add	r4, r4, #1
	cmp	r3, r4
	bls	.L63
.L62:
	ldr	r3, [r5, #4]!
	cmp	r3, #0
	beq	.L59
	ldrsb	r1, [r3, #6]
	ldr	r0, [r6, #120]
	bl	FSP_GetLogicFs
	cmp	r0, #0
	beq	.L59
	cmn	r7, #1
	ldr	r3, [r5]
	bne	.L60
	ldrb	r2, [r3, #5]	@ zero_extendqisi2
	cmp	r2, #0
	beq	.L59
	ldrb	r2, [r0, #1]	@ zero_extendqisi2
	sub	r2, r2, #1
	cmp	r2, #1
	bhi	.L59
	ldr	r1, [r8]
	ldr	r2, [r3, #32]
	cmp	r1, r2
	ble	.L61
	str	r2, [r8]
	str	r4, [r9]
	add	r4, r4, #1
	ldr	r3, [r5]
	ldr	r3, [r3, #56]
	str	r3, [fp, #-48]
	ldr	r3, [r10, #3016]
	cmp	r3, r4
	bhi	.L62
.L63:
	ldr	r0, [r9]
	sub	sp, fp, #40
	ldmfd	sp, {r4, r5, r6, r7, r8, r9, r10, fp, sp, pc}
.L78:
	ldr	r3, [r3, #56]
	cmp	r7, r3
	streq	r2, [r8]
	streq	r4, [r9]
	b	.L59
.L61:
	bne	.L59
	ldr	r3, [r3, #56]
	ldr	r2, [fp, #-48]
	cmp	r3, r2
	strlt	r4, [r9]
	ldrlt	r3, [r5]
	ldrlt	r3, [r3, #56]
	strlt	r3, [fp, #-48]
	b	.L59
	UNWIND(.fnend)
	.size	MVC_GetMinPOC, .-MVC_GetMinPOC
	.align	2
	.global	MVC_FrameStoreRefFlg
	.type	MVC_FrameStoreRefFlg, %function
MVC_FrameStoreRefFlg:
	UNWIND(.fnstart)
	@ args = 0, pretend = 0, frame = 0
	@ frame_needed = 1, uses_anonymous_args = 0
	UNWIND(.movsp ip)
	mov	ip, sp
	stmfd	sp!, {fp, ip, lr, pc}
	UNWIND(.pad #4)
	UNWIND(.save {fp, ip, lr})
	UNWIND(.setfp fp, ip, #-4)
	sub	fp, ip, #4
	ldrb	r0, [r0, #3]	@ zero_extendqisi2
	adds	r0, r0, #0
	movne	r0, #1
	ldmfd	sp, {fp, sp, pc}
	UNWIND(.fnend)
	.size	MVC_FrameStoreRefFlg, .-MVC_FrameStoreRefFlg
	.align	2
	.global	MVC_NonLongTermRefFlg
	.type	MVC_NonLongTermRefFlg, %function
MVC_NonLongTermRefFlg:
	UNWIND(.fnstart)
	@ args = 0, pretend = 0, frame = 0
	@ frame_needed = 1, uses_anonymous_args = 0
	UNWIND(.movsp ip)
	mov	ip, sp
	stmfd	sp!, {fp, ip, lr, pc}
	UNWIND(.pad #4)
	UNWIND(.save {fp, ip, lr})
	UNWIND(.setfp fp, ip, #-4)
	sub	fp, ip, #4
	ldrb	r3, [r0, #3]	@ zero_extendqisi2
	cmp	r3, #3
	beq	.L95
	tst	r3, #1
	bne	.L96
.L84:
	and	r3, r3, #2
	ands	r3, r3, #255
	beq	.L88
.L85:
	ldrb	r0, [r0, #809]	@ zero_extendqisi2
	clz	r0, r0
	mov	r0, r0, lsr #5
	ldmfd	sp, {fp, sp, pc}
.L88:
	mov	r0, r3
	ldmfd	sp, {fp, sp, pc}
.L96:
	ldrb	r2, [r0, #773]	@ zero_extendqisi2
	cmp	r2, #0
	bne	.L84
.L89:
	mov	r0, #1
	ldmfd	sp, {fp, sp, pc}
.L95:
	ldrb	r3, [r0, #737]	@ zero_extendqisi2
	cmp	r3, #0
	beq	.L89
	ldrb	r3, [r0, #773]	@ zero_extendqisi2
	cmp	r3, #0
	bne	.L85
	b	.L89
	UNWIND(.fnend)
	.size	MVC_NonLongTermRefFlg, .-MVC_NonLongTermRefFlg
	.align	2
	.global	MVC_ShortTermRefFlg
	.type	MVC_ShortTermRefFlg, %function
MVC_ShortTermRefFlg:
	UNWIND(.fnstart)
	@ args = 0, pretend = 0, frame = 0
	@ frame_needed = 1, uses_anonymous_args = 0
	UNWIND(.movsp ip)
	mov	ip, sp
	stmfd	sp!, {fp, ip, lr, pc}
	UNWIND(.pad #4)
	UNWIND(.save {fp, ip, lr})
	UNWIND(.setfp fp, ip, #-4)
	sub	fp, ip, #4
	ldrb	r3, [r0, #3]	@ zero_extendqisi2
	cmp	r3, #3
	beq	.L112
	tst	r3, #1
	bne	.L113
.L101:
	and	r3, r3, #2
	ands	r3, r3, #255
	beq	.L105
.L102:
	ldr	r0, [r0, #808]
	bic	r0, r0, #-16777216
	bic	r0, r0, #255
	sub	r0, r0, #65536
	clz	r0, r0
	mov	r0, r0, lsr #5
	ldmfd	sp, {fp, sp, pc}
.L105:
	mov	r0, r3
	ldmfd	sp, {fp, sp, pc}
.L113:
	ldr	r2, [r0, #772]
	bic	r2, r2, #-16777216
	bic	r2, r2, #255
	cmp	r2, #65536
	bne	.L101
.L106:
	mov	r0, #1
	ldmfd	sp, {fp, sp, pc}
.L112:
	ldr	r3, [r0, #736]
	bic	r3, r3, #-16777216
	bic	r3, r3, #255
	cmp	r3, #65536
	beq	.L106
	ldr	r3, [r0, #772]
	bic	r3, r3, #-16777216
	bic	r3, r3, #255
	cmp	r3, #65536
	bne	.L102
	b	.L106
	UNWIND(.fnend)
	.size	MVC_ShortTermRefFlg, .-MVC_ShortTermRefFlg
	.align	2
	.global	MVC_LongTermRefFlg
	.type	MVC_LongTermRefFlg, %function
MVC_LongTermRefFlg:
	UNWIND(.fnstart)
	@ args = 0, pretend = 0, frame = 0
	@ frame_needed = 1, uses_anonymous_args = 0
	UNWIND(.movsp ip)
	mov	ip, sp
	stmfd	sp!, {fp, ip, lr, pc}
	UNWIND(.pad #4)
	UNWIND(.save {fp, ip, lr})
	UNWIND(.setfp fp, ip, #-4)
	sub	fp, ip, #4
	ldrb	r3, [r0, #3]	@ zero_extendqisi2
	cmp	r3, #3
	beq	.L129
	tst	r3, #1
	bne	.L130
.L118:
	and	r3, r3, #2
	ands	r3, r3, #255
	beq	.L122
.L119:
	ldr	r0, [r0, #808]
	bic	r0, r0, #-16777216
	bic	r0, r0, #255
	sub	r0, r0, #256
	clz	r0, r0
	mov	r0, r0, lsr #5
	ldmfd	sp, {fp, sp, pc}
.L122:
	mov	r0, r3
	ldmfd	sp, {fp, sp, pc}
.L130:
	ldr	r2, [r0, #772]
	bic	r2, r2, #-16777216
	bic	r2, r2, #255
	cmp	r2, #256
	bne	.L118
.L123:
	mov	r0, #1
	ldmfd	sp, {fp, sp, pc}
.L129:
	ldr	r3, [r0, #736]
	bic	r3, r3, #-16777216
	bic	r3, r3, #255
	cmp	r3, #256
	beq	.L123
	ldr	r3, [r0, #772]
	bic	r3, r3, #-16777216
	bic	r3, r3, #255
	cmp	r3, #256
	bne	.L119
	b	.L123
	UNWIND(.fnend)
	.size	MVC_LongTermRefFlg, .-MVC_LongTermRefFlg
	.align	2
	.global	MVC_UpdateLTReflist
	.type	MVC_UpdateLTReflist, %function
MVC_UpdateLTReflist:
	UNWIND(.fnstart)
	@ args = 0, pretend = 0, frame = 8
	@ frame_needed = 1, uses_anonymous_args = 0
	UNWIND(.movsp ip)
	mov	ip, sp
	stmfd	sp!, {r4, r5, r6, r7, r8, r9, r10, fp, ip, lr, pc}
	UNWIND(.pad #4)
	UNWIND(.save {r4, r5, r6, r7, r8, r9, r10, fp, ip, lr})
	UNWIND(.setfp fp, ip, #-4)
	sub	fp, ip, #4
	UNWIND(.pad #12)
	sub	sp, sp, #12
	add	r3, r0, #11075584
	add	r3, r3, #45056
	mov	r7, r0
	str	r3, [fp, #-48]
	ldr	r10, [r3, #3016]
	cmp	r10, #0
	beq	.L132
	movw	r8, #47876
	add	r9, r0, #11141120
	movt	r8, 169
	mov	r4, #0
	add	r9, r9, #16384
	add	r8, r0, r8
	mov	r6, r4
.L134:
	ldr	r5, [r8, #4]!
	add	r6, r6, #1
	cmp	r5, #0
	mov	r0, r5
	beq	.L133
	bl	MVC_LongTermRefFlg
	cmp	r0, #0
	beq	.L133
	ldr	r2, [r9, #1200]
	ldr	r1, [r5, #56]
	cmp	r1, r2
	movweq	r2, #28386
	movteq	r2, 42
	addeq	r2, r4, r2
	addeq	r4, r4, #1
	streq	r5, [r7, r2, asl #2]
.L133:
	cmp	r6, r10
	bne	.L134
	ldr	r3, [fp, #-48]
	cmp	r4, r10
	str	r4, [r3, #3028]
	bcs	.L131
	movw	r0, #28385
	mov	r2, #0
	movt	r0, 42
	add	r0, r4, r0
	add	r0, r7, r0, lsl #2
.L137:
	add	r4, r4, #1
	str	r2, [r0, #4]!
	cmp	r4, r10
	bne	.L137
.L131:
	sub	sp, fp, #40
	ldmfd	sp, {r4, r5, r6, r7, r8, r9, r10, fp, sp, pc}
.L132:
	ldr	r3, [fp, #-48]
	str	r10, [r3, #3028]
	b	.L131
	UNWIND(.fnend)
	.size	MVC_UpdateLTReflist, .-MVC_UpdateLTReflist
	.align	2
	.global	MVC_UpdateReflist
	.type	MVC_UpdateReflist, %function
MVC_UpdateReflist:
	UNWIND(.fnstart)
	@ args = 0, pretend = 0, frame = 8
	@ frame_needed = 1, uses_anonymous_args = 0
	UNWIND(.movsp ip)
	mov	ip, sp
	stmfd	sp!, {r4, r5, r6, r7, r8, r9, r10, fp, ip, lr, pc}
	UNWIND(.pad #4)
	UNWIND(.save {r4, r5, r6, r7, r8, r9, r10, fp, ip, lr})
	UNWIND(.setfp fp, ip, #-4)
	sub	fp, ip, #4
	UNWIND(.pad #12)
	sub	sp, sp, #12
	add	r3, r0, #11075584
	add	r3, r3, #45056
	mov	r7, r0
	str	r3, [fp, #-48]
	ldr	r10, [r3, #3016]
	cmp	r10, #0
	beq	.L148
	movw	r8, #47876
	add	r9, r0, #11141120
	movt	r8, 169
	mov	r4, #0
	add	r9, r9, #16384
	add	r8, r0, r8
	mov	r6, r4
.L150:
	ldr	r5, [r8, #4]!
	add	r6, r6, #1
	cmp	r5, #0
	mov	r0, r5
	beq	.L149
	bl	MVC_ShortTermRefFlg
	cmp	r0, #0
	beq	.L149
	ldr	r2, [r9, #1200]
	ldr	r1, [r5, #56]
	cmp	r1, r2
	movweq	r2, #28370
	movteq	r2, 42
	addeq	r2, r4, r2
	addeq	r4, r4, #1
	streq	r5, [r7, r2, asl #2]
.L149:
	cmp	r6, r10
	bne	.L150
	ldr	r3, [fp, #-48]
	cmp	r4, r10
	str	r4, [r3, #3024]
	bcs	.L147
	movw	r0, #28369
	mov	r2, #0
	movt	r0, 42
	add	r0, r4, r0
	add	r0, r7, r0, lsl #2
.L153:
	add	r4, r4, #1
	str	r2, [r0, #4]!
	cmp	r4, r10
	bne	.L153
.L147:
	sub	sp, fp, #40
	ldmfd	sp, {r4, r5, r6, r7, r8, r9, r10, fp, sp, pc}
.L148:
	ldr	r3, [fp, #-48]
	str	r10, [r3, #3024]
	b	.L147
	UNWIND(.fnend)
	.size	MVC_UpdateReflist, .-MVC_UpdateReflist
	.align	2
	.global	MVC_GetPicNumX
	.type	MVC_GetPicNumX, %function
MVC_GetPicNumX:
	UNWIND(.fnstart)
	@ args = 0, pretend = 0, frame = 0
	@ frame_needed = 1, uses_anonymous_args = 0
	UNWIND(.movsp ip)
	mov	ip, sp
	stmfd	sp!, {fp, ip, lr, pc}
	UNWIND(.pad #4)
	UNWIND(.save {fp, ip, lr})
	UNWIND(.setfp fp, ip, #-4)
	sub	fp, ip, #4
	ldrb	r3, [r0, #3]	@ zero_extendqisi2
	cmp	r3, #0
	ldr	r3, [r0, #688]
	mvn	r0, r1
	movne	r3, r3, asl #1
	addne	r3, r3, #1
	add	r0, r0, r3
	ldmfd	sp, {fp, sp, pc}
	UNWIND(.fnend)
	.size	MVC_GetPicNumX, .-MVC_GetPicNumX
	.align	2
	.global	MVC_UnMarkFrameStoreRef
	.type	MVC_UnMarkFrameStoreRef, %function
MVC_UnMarkFrameStoreRef:
	UNWIND(.fnstart)
	@ args = 0, pretend = 0, frame = 0
	@ frame_needed = 1, uses_anonymous_args = 0
	UNWIND(.movsp ip)
	mov	ip, sp
	stmfd	sp!, {fp, ip, lr, pc}
	UNWIND(.pad #4)
	UNWIND(.save {fp, ip, lr})
	UNWIND(.setfp fp, ip, #-4)
	sub	fp, ip, #4
	ldrb	r2, [r1, #2]	@ zero_extendqisi2
	mov	r3, r1
	tst	r2, #1
	beq	.L167
	ldrb	r1, [r1, #3]	@ zero_extendqisi2
	mov	ip, #0
	strb	ip, [r3, #773]
	and	r1, r1, #2
	strb	ip, [r3, #774]
	strb	r1, [r3, #3]
.L167:
	tst	r2, #2
	beq	.L168
	ldrb	r1, [r3, #3]	@ zero_extendqisi2
	mov	ip, #0
	strb	ip, [r3, #809]
	and	r1, r1, #1
	strb	ip, [r3, #810]
	strb	r1, [r3, #3]
.L168:
	cmp	r2, #3
	ldrsb	r1, [r3, #6]
	moveq	r2, #0
	streqb	r2, [r3, #738]
	streqb	r2, [r3, #737]
	mov	r2, #0
	strb	r2, [r3, #3]
	ldr	r0, [r0, #120]
	sub	sp, fp, #12
	ldmia	sp, {fp, sp, lr}
	b	FSP_SetRef
	UNWIND(.fnend)
	.size	MVC_UnMarkFrameStoreRef, .-MVC_UnMarkFrameStoreRef
	.align	2
	.global	MVC_UnMarkLTFrmByFrmIdx
	.type	MVC_UnMarkLTFrmByFrmIdx, %function
MVC_UnMarkLTFrmByFrmIdx:
	UNWIND(.fnstart)
	@ args = 0, pretend = 0, frame = 0
	@ frame_needed = 1, uses_anonymous_args = 0
	UNWIND(.movsp ip)
	mov	ip, sp
	stmfd	sp!, {r4, r5, r6, fp, ip, lr, pc}
	UNWIND(.pad #4)
	UNWIND(.save {r4, r5, r6, fp, ip, lr})
	UNWIND(.setfp fp, ip, #-4)
	sub	fp, ip, #4
	add	r3, r0, #11075584
	add	r3, r3, #45056
	ldr	r4, [r3, #3028]
	cmp	r4, #0
	ldmeqfd	sp, {r4, r5, r6, fp, sp, pc}
	movw	ip, #48004
	add	r6, r0, #11141120
	movt	ip, 169
	add	r6, r6, #16384
	add	ip, r0, ip
	mov	r3, #0
	b	.L179
.L178:
	cmp	r3, r4
	beq	.L184
.L179:
	ldr	r2, [ip, #4]!
	add	r3, r3, #1
	ldr	lr, [r2, #28]
	cmp	lr, r1
	bne	.L178
	ldr	r5, [r2, #56]
	ldr	lr, [r6, #1200]
	cmp	r5, lr
	bne	.L178
	mov	r1, r2
	sub	sp, fp, #24
	ldmfd	sp, {r4, r5, r6, fp, sp, lr}
	b	MVC_UnMarkFrameStoreRef
.L184:
	ldmfd	sp, {r4, r5, r6, fp, sp, pc}
	UNWIND(.fnend)
	.size	MVC_UnMarkLTFrmByFrmIdx, .-MVC_UnMarkLTFrmByFrmIdx
	.align	2
	.global	MVC_UnMarkLTFldByFrmIdx
	.type	MVC_UnMarkLTFldByFrmIdx, %function
MVC_UnMarkLTFldByFrmIdx:
	UNWIND(.fnstart)
	@ args = 0, pretend = 0, frame = 0
	@ frame_needed = 1, uses_anonymous_args = 0
	UNWIND(.movsp ip)
	mov	ip, sp
	stmfd	sp!, {r4, r5, r6, r7, r8, fp, ip, lr, pc}
	UNWIND(.pad #4)
	UNWIND(.save {r4, r5, r6, r7, r8, fp, ip, lr})
	UNWIND(.setfp fp, ip, #-4)
	sub	fp, ip, #4
	add	ip, r0, #11075584
	add	ip, ip, #45056
	ldr	r6, [ip, #3028]
	cmp	r6, #0
	ldmeqfd	sp, {r4, r5, r6, r7, r8, fp, sp, pc}
	movw	r4, #48004
	add	r8, r0, #11141120
	movt	r4, 169
	add	r8, r8, #16384
	add	r4, r0, r4
	mov	ip, #0
	b	.L189
.L187:
	cmp	ip, r6
	beq	.L203
.L189:
	ldr	lr, [r4, #4]!
	add	ip, ip, #1
	ldr	r5, [lr, #28]
	cmp	r5, r3
	bne	.L187
	ldr	r7, [lr, #56]
	ldr	r5, [r8, #1200]
	cmp	r7, r5
	bne	.L187
	cmp	r2, #1
	ldreqb	r5, [lr, #809]	@ zero_extendqisi2
	beq	.L202
	cmp	r2, #2
	bne	.L187
	ldrb	r5, [lr, #773]	@ zero_extendqisi2
.L202:
	clz	r5, r5
	mov	r5, r5, lsr #5
	cmp	lr, r1
	orrne	r5, r5, #1
	cmp	r5, #0
	beq	.L187
	mov	r1, lr
	sub	sp, fp, #32
	ldmfd	sp, {r4, r5, r6, r7, r8, fp, sp, lr}
	b	MVC_UnMarkFrameStoreRef
.L203:
	ldmfd	sp, {r4, r5, r6, r7, r8, fp, sp, pc}
	UNWIND(.fnend)
	.size	MVC_UnMarkLTFldByFrmIdx, .-MVC_UnMarkLTFldByFrmIdx
	.align	2
	.global	MVC_UnMarkSTRef
	.type	MVC_UnMarkSTRef, %function
MVC_UnMarkSTRef:
	UNWIND(.fnstart)
	@ args = 0, pretend = 0, frame = 0
	@ frame_needed = 1, uses_anonymous_args = 0
	UNWIND(.movsp ip)
	mov	ip, sp
	stmfd	sp!, {r4, r5, r6, r7, r8, fp, ip, lr, pc}
	UNWIND(.pad #4)
	UNWIND(.save {r4, r5, r6, r7, r8, fp, ip, lr})
	UNWIND(.setfp fp, ip, #-4)
	sub	fp, ip, #4
	ldrb	r3, [r1, #3]	@ zero_extendqisi2
	cmp	r3, #0
	bne	.L205
	add	ip, r0, #11075584
	ldr	r1, [r1, #688]
	add	ip, ip, #45056
	sub	r1, r1, #1
	ldr	r4, [ip, #3024]
	rsb	r2, r2, r1
	cmp	r4, #0
	beq	.L234
	movw	ip, #47940
	add	r5, r0, #11141120
	movt	ip, 169
	add	r5, r5, #16384
	add	ip, r0, ip
	b	.L211
.L210:
	cmp	r3, r4
	beq	.L235
.L211:
	ldr	r1, [ip, #4]!
	add	r3, r3, #1
	ldr	lr, [r1, #748]
	cmp	lr, r2
	bne	.L210
	ldrb	lr, [r1, #3]	@ zero_extendqisi2
	cmp	lr, #3
	bne	.L210
	ldr	lr, [r1, #736]
	bic	lr, lr, #-16777216
	bic	lr, lr, #255
	cmp	lr, #65536
	bne	.L210
	ldr	r6, [r1, #56]
	ldr	lr, [r5, #1200]
	cmp	r6, lr
	bne	.L210
	sub	sp, fp, #32
	ldmfd	sp, {r4, r5, r6, r7, r8, fp, sp, lr}
	b	MVC_UnMarkFrameStoreRef
.L205:
	add	r3, r0, #11075584
	ldr	r1, [r1, #688]
	add	r3, r3, #45056
	ldr	r5, [r3, #3024]
	rsb	r2, r2, r1, lsl #1
	cmp	r5, #0
	beq	.L236
	movw	r4, #47940
	add	r7, r0, #11141120
	movt	r4, 169
	add	r7, r7, #16384
	add	r4, r0, r4
	mov	ip, #0
	b	.L216
.L212:
	tst	r3, #2
	beq	.L214
	ldr	r3, [r1, #808]
	bic	r3, r3, #-16777216
	bic	r3, r3, #255
	cmp	r3, #65536
	beq	.L237
.L214:
	add	ip, ip, #1
	cmp	ip, r5
	beq	.L238
.L216:
	ldr	r1, [r4, #4]!
	ldrb	r3, [r1, #3]	@ zero_extendqisi2
	ands	r6, r3, #1
	beq	.L212
	ldr	lr, [r1, #772]
	bic	lr, lr, #-16777216
	bic	lr, lr, #255
	cmp	lr, #65536
	bne	.L212
	ldr	r8, [r1, #56]
	ldr	lr, [r7, #1200]
	cmp	r8, lr
	bne	.L212
	ldr	lr, [r1, #784]
	cmp	lr, r2
	bne	.L212
	add	r2, r0, ip, lsl #2
	and	r3, r3, #2
	add	r2, r2, #11075584
	strb	r3, [r1, #3]
	add	r2, r2, #45056
	mov	r1, #0
	ldr	r3, [r2, #2888]
	strb	r1, [r3, #774]
	ldr	r3, [r2, #2888]
	ldrb	ip, [r3, #736]	@ zero_extendqisi2
	cmp	ip, #3
	cmpne	ip, r1
	streqb	r1, [r3, #738]
	ldreq	r3, [r2, #2888]
	streqb	r1, [r3, #737]
	ldreq	r3, [r2, #2888]
	ldrb	ip, [r3, #3]	@ zero_extendqisi2
	cmp	ip, #0
	ldmnefd	sp, {r4, r5, r6, r7, r8, fp, sp, pc}
	ldr	r1, [r3, #48]
	mov	r2, ip
	add	r1, r0, r1, lsl #2
	str	ip, [r1, #148]
	ldrsb	r1, [r3, #6]
	b	.L231
.L237:
	ldr	lr, [r1, #56]
	ldr	r3, [r7, #1200]
	cmp	lr, r3
	bne	.L214
	ldr	r3, [r1, #820]
	cmp	r3, r2
	bne	.L214
	add	r3, r0, ip, lsl #2
	strb	r6, [r1, #3]
	add	r3, r3, #11075584
	mov	r2, #0
	add	r3, r3, #45056
	ldr	r1, [r3, #2888]
	strb	r2, [r1, #810]
	ldr	r1, [r3, #2888]
	ldrb	ip, [r1, #736]	@ zero_extendqisi2
	cmp	ip, #3
	cmpne	ip, r2
	streqb	r2, [r1, #738]
	ldreq	r1, [r3, #2888]
	streqb	r2, [r1, #737]
	ldreq	r1, [r3, #2888]
	ldrb	ip, [r1, #3]	@ zero_extendqisi2
	cmp	ip, #0
	ldmnefd	sp, {r4, r5, r6, r7, r8, fp, sp, pc}
	ldr	r3, [r1, #48]
	mov	r2, ip
	add	r3, r0, r3, lsl #2
	str	ip, [r3, #148]
	ldrsb	r1, [r1, #6]
.L231:
	ldr	r0, [r0, #120]
	sub	sp, fp, #32
	ldmfd	sp, {r4, r5, r6, r7, r8, fp, sp, lr}
	b	FSP_SetRef
.L238:
	ldmfd	sp, {r4, r5, r6, r7, r8, fp, sp, pc}
.L235:
	ldmfd	sp, {r4, r5, r6, r7, r8, fp, sp, pc}
.L234:
	ldmfd	sp, {r4, r5, r6, r7, r8, fp, sp, pc}
.L236:
	ldmfd	sp, {r4, r5, r6, r7, r8, fp, sp, pc}
	UNWIND(.fnend)
	.size	MVC_UnMarkSTRef, .-MVC_UnMarkSTRef
	.align	2
	.global	MVC_UnMarkLTRef
	.type	MVC_UnMarkLTRef, %function
MVC_UnMarkLTRef:
	UNWIND(.fnstart)
	@ args = 0, pretend = 0, frame = 0
	@ frame_needed = 1, uses_anonymous_args = 0
	UNWIND(.movsp ip)
	mov	ip, sp
	stmfd	sp!, {r4, r5, r6, r7, r8, fp, ip, lr, pc}
	UNWIND(.pad #4)
	UNWIND(.save {r4, r5, r6, r7, r8, fp, ip, lr})
	UNWIND(.setfp fp, ip, #-4)
	sub	fp, ip, #4
	ldrb	r3, [r1, #3]	@ zero_extendqisi2
	cmp	r3, #0
	beq	.L240
	add	r3, r0, #11075584
	add	r3, r3, #45056
	ldr	r5, [r3, #3028]
	cmp	r5, #0
	beq	.L269
	movw	r4, #48004
	add	r7, r0, #11141120
	movt	r4, 169
	add	r7, r7, #16384
	add	r4, r0, r4
	mov	ip, #0
	b	.L249
.L245:
	tst	r3, #2
	beq	.L247
	ldr	r3, [r1, #808]
	bic	r3, r3, #-16777216
	bic	r3, r3, #255
	cmp	r3, #256
	beq	.L270
.L247:
	add	ip, ip, #1
	cmp	ip, r5
	beq	.L271
.L249:
	ldr	r1, [r4, #4]!
	ldrb	r3, [r1, #3]	@ zero_extendqisi2
	ands	r6, r3, #1
	beq	.L245
	ldr	lr, [r1, #772]
	bic	lr, lr, #-16777216
	bic	lr, lr, #255
	cmp	lr, #256
	bne	.L245
	ldr	r8, [r1, #56]
	ldr	lr, [r7, #1200]
	cmp	r8, lr
	bne	.L245
	ldr	lr, [r1, #780]
	cmp	r2, lr
	bne	.L245
	add	r2, r0, ip, lsl #2
	and	r3, r3, #2
	add	r2, r2, #11075584
	strb	r3, [r1, #3]
	add	r2, r2, #45056
	mov	r1, #0
	ldr	r3, [r2, #2952]
	strb	r1, [r3, #773]
	ldr	r3, [r2, #2952]
	ldrb	ip, [r3, #736]	@ zero_extendqisi2
	cmp	ip, #3
	cmpne	ip, r1
	streqb	r1, [r3, #738]
	ldreq	r3, [r2, #2952]
	streqb	r1, [r3, #737]
	ldreq	r3, [r2, #2952]
	ldrb	ip, [r3, #3]	@ zero_extendqisi2
	cmp	ip, #0
	ldmnefd	sp, {r4, r5, r6, r7, r8, fp, sp, pc}
	ldr	r1, [r3, #48]
	mov	r2, ip
	add	r1, r0, r1, lsl #2
	str	ip, [r1, #148]
	ldrsb	r1, [r3, #6]
	b	.L266
.L240:
	add	r1, r0, #11075584
	add	r1, r1, #45056
	ldr	r4, [r1, #3028]
	cmp	r4, #0
	beq	.L272
	movw	ip, #48004
	add	r5, r0, #11141120
	movt	ip, 169
	add	r5, r5, #16384
	add	ip, r0, ip
	b	.L251
.L250:
	cmp	r3, r4
	beq	.L273
.L251:
	ldr	r1, [ip, #4]!
	add	r3, r3, #1
	ldr	lr, [r1, #744]
	cmp	lr, r2
	bne	.L250
	ldrb	lr, [r1, #3]	@ zero_extendqisi2
	cmp	lr, #3
	bne	.L250
	ldr	lr, [r1, #736]
	bic	lr, lr, #-16777216
	bic	lr, lr, #255
	cmp	lr, #256
	bne	.L250
	ldr	r6, [r1, #56]
	ldr	lr, [r5, #1200]
	cmp	r6, lr
	bne	.L250
	sub	sp, fp, #32
	ldmfd	sp, {r4, r5, r6, r7, r8, fp, sp, lr}
	b	MVC_UnMarkFrameStoreRef
.L270:
	ldr	lr, [r1, #56]
	ldr	r3, [r7, #1200]
	cmp	lr, r3
	bne	.L247
	ldr	r3, [r1, #816]
	cmp	r2, r3
	bne	.L247
	add	r3, r0, ip, lsl #2
	strb	r6, [r1, #3]
	add	r3, r3, #11075584
	mov	r2, #0
	add	r3, r3, #45056
	ldr	r1, [r3, #2952]
	strb	r2, [r1, #809]
	ldr	r1, [r3, #2952]
	ldrb	ip, [r1, #736]	@ zero_extendqisi2
	cmp	ip, #3
	cmpne	ip, r2
	streqb	r2, [r1, #738]
	ldreq	r1, [r3, #2952]
	streqb	r2, [r1, #737]
	ldreq	r1, [r3, #2952]
	ldrb	ip, [r1, #3]	@ zero_extendqisi2
	cmp	ip, #0
	ldmnefd	sp, {r4, r5, r6, r7, r8, fp, sp, pc}
	ldr	r3, [r1, #48]
	mov	r2, ip
	add	r3, r0, r3, lsl #2
	str	ip, [r3, #148]
	ldrsb	r1, [r1, #6]
.L266:
	ldr	r0, [r0, #120]
	sub	sp, fp, #32
	ldmfd	sp, {r4, r5, r6, r7, r8, fp, sp, lr}
	b	FSP_SetRef
.L273:
	ldmfd	sp, {r4, r5, r6, r7, r8, fp, sp, pc}
.L271:
	ldmfd	sp, {r4, r5, r6, r7, r8, fp, sp, pc}
.L272:
	ldmfd	sp, {r4, r5, r6, r7, r8, fp, sp, pc}
.L269:
	ldmfd	sp, {r4, r5, r6, r7, r8, fp, sp, pc}
	UNWIND(.fnend)
	.size	MVC_UnMarkLTRef, .-MVC_UnMarkLTRef
	.align	2
	.global	MVC_MarkPicLTRef
	.type	MVC_MarkPicLTRef, %function
MVC_MarkPicLTRef:
	UNWIND(.fnstart)
	@ args = 0, pretend = 0, frame = 0
	@ frame_needed = 1, uses_anonymous_args = 0
	UNWIND(.movsp ip)
	mov	ip, sp
	stmfd	sp!, {r4, r5, r6, r7, r8, r9, fp, ip, lr, pc}
	UNWIND(.pad #4)
	UNWIND(.save {r4, r5, r6, r7, r8, r9, fp, ip, lr})
	UNWIND(.setfp fp, ip, #-4)
	sub	fp, ip, #4
	ldrb	r6, [r3, #3]	@ zero_extendqisi2
	add	r3, r0, #11075584
	add	r3, r3, #45056
	cmp	r6, #0
	beq	.L275
	ldr	r7, [r3, #3024]
	cmp	r7, #0
	beq	.L304
	movw	r5, #47940
	add	r8, r0, #11141120
	movt	r5, 169
	add	r8, r8, #16384
	add	r5, r0, r5
	mov	ip, #0
	b	.L289
.L281:
	tst	r4, #2
	beq	.L284
	ldr	lr, [r3, #808]
	bic	lr, lr, #-16777216
	bic	lr, lr, #255
	cmp	lr, #65536
	beq	.L305
.L284:
	add	ip, ip, #1
	cmp	ip, r7
	beq	.L306
.L289:
	ldr	r3, [r5, #4]!
	ldrb	r4, [r3, #3]	@ zero_extendqisi2
	tst	r4, #1
	beq	.L281
	ldr	lr, [r3, #772]
	bic	lr, lr, #-16777216
	bic	lr, lr, #255
	cmp	lr, #65536
	bne	.L281
	ldr	lr, [r3, #784]
	cmp	lr, r2
	bne	.L281
	ldr	r9, [r3, #56]
	ldr	lr, [r8, #1200]
	cmp	r9, lr
	bne	.L281
	ldrb	lr, [r3, #809]	@ zero_extendqisi2
	cmp	lr, #1
	bne	.L285
	ldr	lr, [r3, #28]
	cmp	lr, r1
	bne	.L284
.L285:
	add	r0, r0, ip, lsl #2
	str	r1, [r3, #28]
	add	r3, r0, #11075584
	sub	r6, r6, #1
	add	r3, r3, #45056
	clz	r6, r6
	mov	ip, #1
	mov	r0, #0
	ldr	r2, [r3, #2888]
	mov	r6, r6, lsr #5
	add	r1, r6, r1, lsl #1
	str	r1, [r2, #780]
	ldr	r2, [r3, #2888]
	strb	ip, [r2, #773]
	ldr	r2, [r3, #2888]
	strb	r0, [r2, #774]
	ldr	r2, [r3, #2888]
	ldrb	r1, [r2, #736]	@ zero_extendqisi2
	cmp	r1, #3
	cmpne	r1, r0
	bne	.L307
	ldrb	r1, [r2, #809]	@ zero_extendqisi2
	ldrb	r0, [r2, #773]	@ zero_extendqisi2
	cmp	r1, r0
	streqb	r1, [r2, #737]
	ldreq	r3, [r3, #2888]
	ldreqb	r2, [r3, #774]	@ zero_extendqisi2
	streqb	r2, [r3, #738]
	ldmfd	sp, {r4, r5, r6, r7, r8, r9, fp, sp, pc}
.L275:
	ldr	r4, [r3, #3024]
	cmp	r4, #0
	ldmeqfd	sp, {r4, r5, r6, r7, r8, r9, fp, sp, pc}
	movw	ip, #47940
	add	r5, r0, #11141120
	movt	ip, 169
	add	r5, r5, #16384
	add	ip, r0, ip
	b	.L280
.L279:
	add	r6, r6, #1
	cmp	r6, r4
	beq	.L308
.L280:
	ldr	r3, [ip, #4]!
	ldrb	lr, [r3, #3]	@ zero_extendqisi2
	cmp	lr, #3
	bne	.L279
	ldr	lr, [r3, #736]
	bic	lr, lr, #-16777216
	bic	lr, lr, #255
	cmp	lr, #65536
	bne	.L279
	ldr	lr, [r3, #748]
	cmp	lr, r2
	bne	.L279
	ldr	r7, [r3, #56]
	ldr	lr, [r5, #1200]
	cmp	r7, lr
	bne	.L279
	add	r6, r0, r6, lsl #2
	str	r1, [r3, #28]
	add	r3, r6, #11075584
	mov	r0, #1
	add	r3, r3, #45056
	mov	r2, #0
	ldr	ip, [r3, #2888]
	str	r1, [ip, #744]
	ldr	r1, [r3, #2888]
	strb	r0, [r1, #737]
	ldr	r1, [r3, #2888]
	strb	r0, [r1, #773]
	ldr	r1, [r3, #2888]
	strb	r0, [r1, #809]
	ldr	r1, [r3, #2888]
	strb	r2, [r1, #738]
	ldr	r1, [r3, #2888]
	strb	r2, [r1, #774]
	ldr	r3, [r3, #2888]
	strb	r2, [r3, #810]
	ldmfd	sp, {r4, r5, r6, r7, r8, r9, fp, sp, pc}
.L305:
	ldr	lr, [r3, #820]
	cmp	lr, r2
	bne	.L284
	ldr	r4, [r3, #56]
	ldr	lr, [r8, #1200]
	cmp	r4, lr
	bne	.L284
	ldrb	lr, [r3, #773]	@ zero_extendqisi2
	cmp	lr, #1
	bne	.L288
	ldr	lr, [r3, #28]
	cmp	lr, r1
	bne	.L284
.L288:
	add	r0, r0, ip, lsl #2
	str	r1, [r3, #28]
	add	r3, r0, #11075584
	sub	r6, r6, #2
	add	r3, r3, #45056
	clz	r6, r6
	mov	ip, #1
	mov	r0, #0
	ldr	r2, [r3, #2888]
	mov	r6, r6, lsr #5
	add	r1, r6, r1, lsl #1
	str	r1, [r2, #816]
	ldr	r2, [r3, #2888]
	strb	ip, [r2, #809]
	ldr	r2, [r3, #2888]
	strb	r0, [r2, #810]
	ldr	r2, [r3, #2888]
	ldrb	r1, [r2, #736]	@ zero_extendqisi2
	cmp	r1, #3
	cmpne	r1, r0
	bne	.L309
	ldrb	r1, [r2, #809]	@ zero_extendqisi2
	ldrb	r0, [r2, #773]	@ zero_extendqisi2
	cmp	r1, r0
	streqb	r1, [r2, #737]
	ldreq	r3, [r3, #2888]
	ldreqb	r2, [r3, #810]	@ zero_extendqisi2
	streqb	r2, [r3, #738]
	ldmfd	sp, {r4, r5, r6, r7, r8, r9, fp, sp, pc}
.L306:
	ldmfd	sp, {r4, r5, r6, r7, r8, r9, fp, sp, pc}
.L308:
	ldmfd	sp, {r4, r5, r6, r7, r8, r9, fp, sp, pc}
.L307:
	ldmfd	sp, {r4, r5, r6, r7, r8, r9, fp, sp, pc}
.L309:
	ldmfd	sp, {r4, r5, r6, r7, r8, r9, fp, sp, pc}
.L304:
	ldmfd	sp, {r4, r5, r6, r7, r8, r9, fp, sp, pc}
	UNWIND(.fnend)
	.size	MVC_MarkPicLTRef, .-MVC_MarkPicLTRef
	.align	2
	.global	MVC_MarkSTToLTRef
	.type	MVC_MarkSTToLTRef, %function
MVC_MarkSTToLTRef:
	UNWIND(.fnstart)
	@ args = 0, pretend = 0, frame = 0
	@ frame_needed = 1, uses_anonymous_args = 0
	UNWIND(.movsp ip)
	mov	ip, sp
	stmfd	sp!, {r4, r5, r6, r7, r8, r9, fp, ip, lr, pc}
	UNWIND(.pad #4)
	UNWIND(.save {r4, r5, r6, r7, r8, r9, fp, ip, lr})
	UNWIND(.setfp fp, ip, #-4)
	sub	fp, ip, #4
	mov	r6, r1
	ldrb	r1, [r1, #3]	@ zero_extendqisi2
	mov	r8, r3
	mov	r7, r0
	cmp	r1, #0
	bne	.L311
	ldr	r5, [r6, #688]
	mov	r1, r3
	sub	r5, r5, #1
	rsb	r5, r2, r5
	bl	MVC_UnMarkLTFrmByFrmIdx
.L312:
	mov	r3, r6
	mov	r2, r5
	mov	r1, r8
	mov	r0, r7
	sub	sp, fp, #36
	ldmfd	sp, {r4, r5, r6, r7, r8, r9, fp, sp, lr}
	b	MVC_MarkPicLTRef
.L311:
	add	r3, r0, #11075584
	ldr	r5, [r6, #688]
	add	r3, r3, #45056
	ldr	r1, [r3, #3024]
	rsb	r5, r2, r5, lsl #1
	cmp	r1, #0
	beq	.L312
	movw	r2, #47940
	add	r0, r0, #11141120
	movt	r2, 169
	add	r0, r0, #16384
	add	r2, r7, r2
	mov	lr, #0
	b	.L315
.L313:
	tst	r3, #2
	beq	.L314
	ldr	r3, [ip, #808]
	bic	r3, r3, #-16777216
	bic	r3, r3, #255
	cmp	r3, #65536
	beq	.L326
.L314:
	cmp	lr, r1
	beq	.L312
.L315:
	ldr	ip, [r2, #4]!
	add	lr, lr, #1
	ldrb	r3, [ip, #3]	@ zero_extendqisi2
	tst	r3, #1
	beq	.L313
	ldr	r4, [ip, #772]
	bic	r4, r4, #-16777216
	bic	r4, r4, #255
	cmp	r4, #65536
	bne	.L313
	ldr	r4, [ip, #784]
	cmp	r4, r5
	bne	.L313
	ldr	r9, [ip, #56]
	ldr	r4, [r0, #1200]
	cmp	r9, r4
	bne	.L313
	mov	r1, ip
	mov	r3, r8
	mov	r2, #1
	mov	r0, r7
	bl	MVC_UnMarkLTFldByFrmIdx
	b	.L312
.L326:
	ldr	r3, [ip, #820]
	cmp	r3, r5
	bne	.L314
	ldr	r4, [ip, #56]
	ldr	r3, [r0, #1200]
	cmp	r4, r3
	bne	.L314
	mov	r1, ip
	mov	r3, r8
	mov	r2, #2
	mov	r0, r7
	bl	MVC_UnMarkLTFldByFrmIdx
	b	.L312
	UNWIND(.fnend)
	.size	MVC_MarkSTToLTRef, .-MVC_MarkSTToLTRef
	.align	2
	.global	MVC_UpdateMaxLTFrmIdx
	.type	MVC_UpdateMaxLTFrmIdx, %function
MVC_UpdateMaxLTFrmIdx:
	UNWIND(.fnstart)
	@ args = 0, pretend = 0, frame = 0
	@ frame_needed = 1, uses_anonymous_args = 0
	UNWIND(.movsp ip)
	mov	ip, sp
	stmfd	sp!, {r4, r5, r6, r7, r8, r9, fp, ip, lr, pc}
	UNWIND(.pad #4)
	UNWIND(.save {r4, r5, r6, r7, r8, r9, fp, ip, lr})
	UNWIND(.setfp fp, ip, #-4)
	sub	fp, ip, #4
	add	r5, r0, #11075584
	mov	r8, r0
	add	r5, r5, #45056
	ldr	r3, [r5, #3028]
	str	r1, [r5, #3032]
	cmp	r3, #0
	ldmeqfd	sp, {r4, r5, r6, r7, r8, r9, fp, sp, pc}
	movw	r6, #48004
	add	r7, r0, #11141120
	movt	r6, 169
	add	r7, r7, #16384
	add	r6, r0, r6
	mov	r3, r1
	mov	r4, #0
	b	.L331
.L329:
	ldr	r3, [r5, #3028]
	cmp	r3, r4
	ldmlsfd	sp, {r4, r5, r6, r7, r8, r9, fp, sp, pc}
	ldr	r3, [r5, #3032]
.L331:
	ldr	r1, [r6, #4]!
	add	r4, r4, #1
	ldr	r2, [r1, #28]
	cmp	r2, r3
	bcc	.L329
	ldr	r2, [r1, #56]
	ldr	r3, [r7, #1200]
	cmp	r2, r3
	bne	.L329
	mov	r0, r8
	bl	MVC_UnMarkFrameStoreRef
	b	.L329
	UNWIND(.fnend)
	.size	MVC_UpdateMaxLTFrmIdx, .-MVC_UpdateMaxLTFrmIdx
	.align	2
	.global	MVC_UnMarkAllSTRef
	.type	MVC_UnMarkAllSTRef, %function
MVC_UnMarkAllSTRef:
	UNWIND(.fnstart)
	@ args = 0, pretend = 0, frame = 0
	@ frame_needed = 1, uses_anonymous_args = 0
	UNWIND(.movsp ip)
	mov	ip, sp
	stmfd	sp!, {r4, r5, r6, r7, r8, r9, fp, ip, lr, pc}
	UNWIND(.pad #4)
	UNWIND(.save {r4, r5, r6, r7, r8, r9, fp, ip, lr})
	UNWIND(.setfp fp, ip, #-4)
	sub	fp, ip, #4
	add	r6, r0, #11075584
	mov	r8, r0
	add	r6, r6, #45056
	ldr	r3, [r6, #3024]
	cmp	r3, #0
	ldmeqfd	sp, {r4, r5, r6, r7, r8, r9, fp, sp, pc}
	movw	r5, #47940
	add	r7, r0, #11141120
	movt	r5, 169
	add	r7, r7, #16384
	add	r5, r0, r5
	mov	r4, #0
	b	.L335
.L334:
	ldr	r3, [r6, #3024]
	cmp	r3, r4
	bls	.L338
.L335:
	ldr	r1, [r5, #4]!
	add	r4, r4, #1
	ldr	r3, [r7, #1200]
	ldr	r2, [r1, #56]
	cmp	r2, r3
	bne	.L334
	mov	r0, r8
	bl	MVC_UnMarkFrameStoreRef
	ldr	r3, [r6, #3024]
	cmp	r3, r4
	bhi	.L335
.L338:
	ldmfd	sp, {r4, r5, r6, r7, r8, r9, fp, sp, pc}
	UNWIND(.fnend)
	.size	MVC_UnMarkAllSTRef, .-MVC_UnMarkAllSTRef
	.align	2
	.global	MVC_MarkCurrPicLT
	.type	MVC_MarkCurrPicLT, %function
MVC_MarkCurrPicLT:
	UNWIND(.fnstart)
	@ args = 0, pretend = 0, frame = 0
	@ frame_needed = 1, uses_anonymous_args = 0
	UNWIND(.movsp ip)
	mov	ip, sp
	stmfd	sp!, {r4, r5, fp, ip, lr, pc}
	UNWIND(.pad #4)
	UNWIND(.save {r4, r5, fp, ip, lr})
	UNWIND(.setfp fp, ip, #-4)
	sub	fp, ip, #4
	mov	r5, r2
	ldrb	r2, [r1, #3]	@ zero_extendqisi2
	mov	r4, r1
	cmp	r2, #0
	beq	.L342
	mov	r3, r5
	ldr	r1, [r1, #680]
	bl	MVC_UnMarkLTFldByFrmIdx
.L341:
	mov	r2, #1
	mov	r3, #0
	str	r5, [r4, #692]
	strb	r2, [r4, #4]
	strb	r3, [r4, #5]
	ldmfd	sp, {r4, r5, fp, sp, pc}
.L342:
	mov	r1, r5
	bl	MVC_UnMarkLTFrmByFrmIdx
	b	.L341
	UNWIND(.fnend)
	.size	MVC_MarkCurrPicLT, .-MVC_MarkCurrPicLT
	.align	2
	.global	MVC_RemoveFrameStoreOutDPB
	.type	MVC_RemoveFrameStoreOutDPB, %function
MVC_RemoveFrameStoreOutDPB:
	UNWIND(.fnstart)
	@ args = 0, pretend = 0, frame = 0
	@ frame_needed = 1, uses_anonymous_args = 0
	UNWIND(.movsp ip)
	mov	ip, sp
	stmfd	sp!, {r4, r5, r6, r7, fp, ip, lr, pc}
	UNWIND(.pad #4)
	UNWIND(.save {r4, r5, r6, r7, fp, ip, lr})
	UNWIND(.setfp fp, ip, #-4)
	sub	fp, ip, #4
	add	r1, r0, r1, lsl #2
	mov	r5, r0
	add	r4, r1, #11075584
	add	r7, r4, #45056
	ldr	r2, [r7, #2824]
	cmp	r2, #0
	ldmeqfd	sp, {r4, r5, r6, r7, fp, sp, pc}
	ldr	r1, [r2, #52]
	movw	r3, #48088
	add	r6, r0, #11075584
	movt	r3, 169
	add	r1, r0, r1
	add	r0, r6, #45056
	add	r3, r1, r3
	mov	r1, #0
	strb	r1, [r3, #4]
	ldr	r3, [r0, #3248]
	cmp	r3, r1
	subne	r3, r3, #1
	str	r3, [r0, #3248]
	ldrsb	r1, [r2, #6]
	ldr	r0, [r5, #120]
	bl	FSP_GetLogicFs
	cmp	r0, #0
	beq	.L346
	ldrsb	r3, [r0, #1]
	cmp	r3, #3
	beq	.L347
	ldr	r3, [r7, #2824]
	mov	r2, #0
	ldr	r0, [r5, #120]
	ldrsb	r1, [r3, #6]
	bl	FSP_SetDisplay
.L347:
	ldr	r3, [r7, #2824]
	mov	r2, #0
	ldr	r0, [r5, #120]
	ldrsb	r1, [r3, #6]
	bl	FSP_SetRef
.L346:
	add	r1, r4, #45056
	mov	r3, #0
	add	r6, r6, #45056
	ldr	r2, [r1, #2824]
	strb	r3, [r2, #2]
	ldr	r2, [r1, #2824]
	strb	r3, [r2, #5]
	ldr	r2, [r1, #2824]
	strb	r3, [r2, #3]
	str	r3, [r1, #2824]
	ldr	r3, [r6, #3020]
	sub	r3, r3, #1
	str	r3, [r6, #3020]
	ldmfd	sp, {r4, r5, r6, r7, fp, sp, pc}
	UNWIND(.fnend)
	.size	MVC_RemoveFrameStoreOutDPB, .-MVC_RemoveFrameStoreOutDPB
	.align	2
	.global	MVC_RemoveUnUsedFrameStore
	.type	MVC_RemoveUnUsedFrameStore, %function
MVC_RemoveUnUsedFrameStore:
	UNWIND(.fnstart)
	@ args = 0, pretend = 0, frame = 0
	@ frame_needed = 1, uses_anonymous_args = 0
	UNWIND(.movsp ip)
	mov	ip, sp
	stmfd	sp!, {r4, r5, r6, r7, r8, r9, fp, ip, lr, pc}
	UNWIND(.pad #4)
	UNWIND(.save {r4, r5, r6, r7, r8, r9, fp, ip, lr})
	UNWIND(.setfp fp, ip, #-4)
	sub	fp, ip, #4
	add	r3, r0, #11075584
	mov	r8, r0
	add	r3, r3, #45056
	mov	r7, r1
	ldr	r6, [r3, #3016]
	cmp	r6, #0
	beq	.L375
	movw	r5, #47876
	mov	r4, #0
	movt	r5, 169
	add	r5, r0, r5
.L363:
	ldr	r3, [r5, #4]!
	cmp	r3, #0
	beq	.L362
	ldrb	r2, [r3, #3]	@ zero_extendqisi2
	cmp	r2, #0
	bne	.L362
	ldrb	r2, [r3, #5]	@ zero_extendqisi2
	cmp	r2, #0
	bne	.L362
	ldr	r1, [r3, #56]
	cmn	r7, #1
	cmpne	r1, r7
	beq	.L376
.L362:
	add	r4, r4, #1
	cmp	r4, r6
	bne	.L363
.L375:
	mov	r0, #0
	ldmfd	sp, {r4, r5, r6, r7, r8, r9, fp, sp, pc}
.L376:
	ldr	ip, [r3, #16]
	mov	r1, r4
	mov	r0, r8
	cmp	ip, #1
	beq	.L362
	strb	r2, [r3, #2]
	bl	MVC_RemoveFrameStoreOutDPB
	b	.L362
	UNWIND(.fnend)
	.size	MVC_RemoveUnUsedFrameStore, .-MVC_RemoveUnUsedFrameStore
	.align	2
	.global	MVC_CheckFrameStore
	.type	MVC_CheckFrameStore, %function
MVC_CheckFrameStore:
	UNWIND(.fnstart)
	@ args = 0, pretend = 0, frame = 0
	@ frame_needed = 1, uses_anonymous_args = 0
	UNWIND(.movsp ip)
	mov	ip, sp
	stmfd	sp!, {r4, r5, fp, ip, lr, pc}
	UNWIND(.pad #4)
	UNWIND(.save {r4, r5, fp, ip, lr})
	UNWIND(.setfp fp, ip, #-4)
	sub	fp, ip, #4
	UNWIND(.pad #8)
	sub	sp, sp, #8
	ldrb	r3, [r0, #6]	@ zero_extendqisi2
	mov	r5, r0
	mov	r4, r1
	cmp	r3, #0
	bne	.L378
	ldrsb	r3, [r1, #8]
	cmp	r3, #1
	bne	.L390
	strb	r3, [r0, #6]
.L378:
	ldrsb	r1, [r4, #6]
	ldr	r0, [r5, #120]
	bl	FSP_GetLogicFs
	cmp	r0, #0
	beq	.L380
	ldrsb	r3, [r0, #1]
	cmp	r3, #3
	cmpne	r3, #0
	beq	.L400
	ldrb	r2, [r4, #2]	@ zero_extendqisi2
	ldrb	r3, [r4, #1]	@ zero_extendqisi2
	cmp	r2, #0
	beq	.L389
	cmp	r3, #1
	beq	.L389
	cmp	r2, #3
	beq	.L401
	cmp	r2, #1
	beq	.L402
	cmp	r2, #2
	beq	.L403
.L385:
	ldr	r3, [r5, #224]
	ldr	r2, [r0, #192]
	ldr	r3, [r3, #4]
	cmp	r2, r3
	movls	r0, #0
	bhi	.L404
.L398:
	sub	sp, fp, #20
	ldmfd	sp, {r4, r5, fp, sp, pc}
.L400:
	ldrsb	r2, [r4, #6]
	mov	r0, #1
	ldr	r1, .L405
	bl	dprint_vfmw
.L382:
	ldr	r3, [r4, #16]
	cmp	r3, #1
	mvnne	r0, #2
	moveq	r3, #2
	mvneq	r0, #2
	streq	r3, [r4, #16]
	b	.L398
.L401:
	ldrb	r3, [r4, #4]	@ zero_extendqisi2
	cmp	r3, #3
	bne	.L385
	mov	r2, r3
	ldr	r1, .L405+4
	mov	r0, #1
	bl	dprint_vfmw
	mvn	r0, #0
	b	.L398
.L402:
	ldrb	r3, [r4, #4]	@ zero_extendqisi2
	tst	r3, #1
	beq	.L385
	mov	r0, r2
	ldr	r1, .L405+8
	bl	dprint_vfmw
	mvn	r0, #0
	b	.L398
.L403:
	ldrb	r3, [r4, #4]	@ zero_extendqisi2
	tst	r3, #2
	beq	.L385
	ldr	r1, .L405+12
	mov	r0, #1
	bl	dprint_vfmw
	mvn	r0, #0
	b	.L398
.L390:
	mvn	r0, #0
	b	.L398
.L380:
	ldrsb	ip, [r4, #6]
	mov	r2, r4
	ldr	r3, [r4, #16]
	mov	r0, #1
	ldr	r1, .L405+16
	str	ip, [sp]
	bl	dprint_vfmw
	b	.L382
.L389:
	ldr	r1, .L405+20
	mov	r0, #1
	bl	dprint_vfmw
	mvn	r0, #0
	b	.L398
.L404:
	ldr	r1, .L405+24
	mov	r0, #1
	bl	dprint_vfmw
	mvn	r0, #0
	b	.L398
.L406:
	.align	2
.L405:
	.word	.LC4
	.word	.LC7
	.word	.LC8
	.word	.LC9
	.word	.LC5
	.word	.LC6
	.word	.LC10
	UNWIND(.fnend)
	.size	MVC_CheckFrameStore, .-MVC_CheckFrameStore
	.align	2
	.global	MVC_ExchangePts
	.type	MVC_ExchangePts, %function
MVC_ExchangePts:
	UNWIND(.fnstart)
	@ args = 0, pretend = 0, frame = 8
	@ frame_needed = 1, uses_anonymous_args = 0
	UNWIND(.movsp ip)
	mov	ip, sp
	stmfd	sp!, {r4, r5, r6, r7, r8, r9, r10, fp, ip, lr, pc}
	UNWIND(.pad #4)
	UNWIND(.save {r4, r5, r6, r7, r8, r9, r10, fp, ip, lr})
	UNWIND(.setfp fp, ip, #-4)
	sub	fp, ip, #4
	UNWIND(.pad #20)
	sub	sp, sp, #20
	add	r8, r1, #720
	mvn	r7, #0
	mvn	r6, #0
	ldrd	r2, [r8, #-8]
	mov	r5, r0
	cmp	r3, r7
	cmpeq	r2, r6
	beq	.L407
	add	r9, r0, #11075584
	add	r9, r9, #45056
	ldr	r3, [r9, #3016]
	cmp	r3, #0
	beq	.L407
	movw	r10, #47876
	mvn	r6, #1
	movt	r10, 169
	add	r10, r0, r10
	mvn	r7, #0
	mov	r4, #0
	mvn	r3, #0
	str	r3, [fp, #-48]
.L412:
	ldr	r3, [r10, #4]!
	cmp	r3, #0
	beq	.L411
	ldrsb	r1, [r3, #6]
	ldr	r0, [r5, #120]
	bl	FSP_GetLogicFs
	cmp	r0, #0
	beq	.L411
	ldrsb	r3, [r0, #1]
	cmp	r3, #3
	cmpne	r3, #0
	beq	.L411
	ldr	r3, [r10]
	add	r3, r3, #720
	ldrd	r0, [r3, #-8]
	cmp	r1, r7
	cmpeq	r0, r6
	strcc	r4, [fp, #-48]
	movcc	r6, r0
	movcc	r7, r1
.L411:
	ldr	r3, [r9, #3016]
	add	r4, r4, #1
	cmp	r4, r3
	bcc	.L412
	ldr	r3, [fp, #-48]
	cmn	r3, #1
	beq	.L407
	ldrd	r2, [r8, #-8]
	cmp	r3, r7
	cmpeq	r2, r6
	bhi	.L426
.L407:
	sub	sp, fp, #40
	ldmfd	sp, {r4, r5, r6, r7, r8, r9, r10, fp, sp, pc}
.L426:
	strd	r6, [sp]
	mov	r0, #29
	ldr	r1, .L427
	bl	dprint_vfmw
	ldr	r3, [fp, #-48]
	movw	r1, #28354
	movt	r1, 42
	add	r1, r3, r1
	ldrd	r2, [r8, #-8]
	ldr	r1, [r5, r1, asl #2]
	add	r1, r1, #720
	strd	r2, [r1, #-8]
	strd	r6, [r8, #-8]
	sub	sp, fp, #40
	ldmfd	sp, {r4, r5, r6, r7, r8, r9, r10, fp, sp, pc}
.L428:
	.align	2
.L427:
	.word	.LC11
	UNWIND(.fnend)
	.size	MVC_ExchangePts, .-MVC_ExchangePts
	.align	2
	.global	MVC_GetImagePara
	.type	MVC_GetImagePara, %function
MVC_GetImagePara:
	UNWIND(.fnstart)
	@ args = 0, pretend = 0, frame = 0
	@ frame_needed = 1, uses_anonymous_args = 0
	UNWIND(.movsp ip)
	mov	ip, sp
	stmfd	sp!, {r4, r5, r6, r7, r8, r9, fp, ip, lr, pc}
	UNWIND(.pad #4)
	UNWIND(.save {r4, r5, r6, r7, r8, r9, fp, ip, lr})
	UNWIND(.setfp fp, ip, #-4)
	sub	fp, ip, #4
	add	ip, r0, #11075584
	mov	r5, r0
	add	r0, ip, #40960
	mov	r4, r1
	ldr	r3, [r5, #252]
	mov	r2, #2240
	ldr	r1, [r0, #1176]
	movw	r8, #3992
	ldrb	lr, [r4, #198]	@ zero_extendqisi2
	ldrb	r7, [r4, #197]	@ zero_extendqisi2
	mla	r2, r2, r1, r3
	ldrb	r6, [r4, #196]	@ zero_extendqisi2
	ldr	r3, [r5, #248]
	bfc	lr, #1, #1
	bfc	r7, #0, #2
	bfc	r6, #0, #2
	ldrb	r1, [r4, #2]	@ zero_extendqisi2
	ldr	r9, [r2, #28]
	strb	lr, [r4, #198]
	uxtb	lr, lr
	strb	r7, [r4, #197]
	strb	r6, [r4, #196]
	ldr	r2, [r5, #224]
	mla	r3, r8, r9, r3
	ldr	r2, [r2, #592]
	sub	r2, r2, #1
	clz	r2, r2
	mov	r2, r2, lsr #5
	bfi	lr, r2, #2, #1
	strb	lr, [r4, #198]
	ldr	r2, [r5, #56]
	str	r2, [r4, #232]
	cmp	r1, #3
	ldrls	pc, [pc, r1, asl #2]
	b	.L467
.L432:
	.word	.L431
	.word	.L433
	.word	.L434
	.word	.L431
.L434:
	ldrb	r2, [r4, #197]	@ zero_extendqisi2
	add	ip, r5, #11075584
	ldr	r6, [r4, #44]
	add	ip, ip, #45056
	ldrb	r1, [r4, #196]	@ zero_extendqisi2
	and	r2, r2, #240
	ldrb	lr, [r4]	@ zero_extendqisi2
	orr	r2, r2, #11
	str	r6, [r4, #256]
	bfi	r1, lr, #0, #2
	strb	r2, [r4, #197]
	strb	r1, [r4, #196]
.L430:
	ldrb	r2, [r3, #20]	@ zero_extendqisi2
	str	r2, [r4, #584]
	str	r2, [r4, #588]
	ldrb	r2, [r3, #24]	@ zero_extendqisi2
	cmp	r2, #0
	ldrne	r2, [r3, #68]
	mov	r3, #1
	str	r3, [r4, #592]
	str	r2, [r4, #596]
	ldrb	r3, [r0, #1171]	@ zero_extendqisi2
	cmp	r3, #1
	movne	r3, #0
	str	r3, [r4, #296]
	ldr	r3, [r5, #224]
	ldr	r3, [r3, #12]
	cmp	r3, #0
	ble	.L452
	ldrb	r3, [r4, #736]	@ zero_extendqisi2
	cmp	r3, #0
	bne	.L452
	ldrb	r2, [r4, #2]	@ zero_extendqisi2
	cmp	r2, #3
	ldreqb	r2, [r4, #197]	@ zero_extendqisi2
	bfieq	r2, r3, #0, #2
	streqb	r2, [r4, #197]
.L452:
	ldrb	r3, [ip, #2776]	@ zero_extendqisi2
	cmp	r3, #0
	beq	.L453
	ldr	r3, [ip, #2792]
	cmp	r3, #3
	moveq	r3, #1
	streq	r3, [r4, #464]
	beq	.L453
	cmp	r3, #4
	moveq	r3, #2
	streq	r3, [r4, #464]
	beq	.L453
	cmp	r3, #5
	moveq	r3, #3
	streq	r3, [r4, #464]
	beq	.L453
	mov	r0, #0
	ldr	r1, .L480
	str	r0, [r4, #464]
	ldr	r2, [ip, #2792]
	bl	dprint_vfmw
.L453:
	ldr	r0, [r5, #120]
	ldrsb	r1, [r4, #6]
	bl	FSP_GetFsImagePtr
	subs	r5, r0, #0
	ldmeqfd	sp, {r4, r5, r6, r7, r8, r9, fp, sp, pc}
	ldr	r3, .L480+4
	mov	r2, #664
	add	r1, r4, #72
	ldr	r3, [r3, #52]
	blx	r3
	mov	r3, #15
	str	r3, [r5, #412]
	mov	r2, #1
	ldrb	r3, [r4, #736]	@ zero_extendqisi2
	strb	r2, [r5, #407]
	cmp	r3, #0
	movne	r3, #4
	strb	r3, [r5, #400]
	ldr	r3, [r4, #764]
	strb	r2, [r5, #405]
	str	r3, [r5, #416]
	str	r3, [r5, #424]
	str	r3, [r5, #420]
	ldmfd	sp, {r4, r5, r6, r7, r8, r9, fp, sp, pc}
.L433:
	ldr	r6, [r4, #44]
	add	ip, r5, #11075584
	ldrb	r2, [r4, #197]	@ zero_extendqisi2
	add	ip, ip, #45056
	ldrb	r1, [r4, #196]	@ zero_extendqisi2
	ldrb	lr, [r4]	@ zero_extendqisi2
	orr	r2, r2, #3
	str	r6, [r4, #256]
	bfi	r1, lr, #0, #2
	strb	r2, [r4, #197]
	strb	r1, [r4, #196]
	b	.L430
.L431:
	ldrb	r2, [r4, #736]	@ zero_extendqisi2
	cmp	r2, #0
	bne	.L435
	ldr	r1, [r4, #40]
	ldr	r2, [r4, #44]
	cmp	r1, #0
	ldrb	r7, [r4]	@ zero_extendqisi2
	movne	lr, #3
	str	r2, [r4, #256]
	movne	r6, lr
	moveq	lr, #2
	moveq	r6, #3
.L436:
	ldr	r1, [r4, #788]
	ldr	r2, [r4, #824]
	cmp	r1, r2
	beq	.L477
	movle	r1, #1
	movgt	r1, #0
.L447:
	add	ip, ip, #45056
	ldrb	r2, [ip, #2812]	@ zero_extendqisi2
	cmp	r2, #3
	moveq	r1, #1
	beq	.L448
	cmp	r2, #4
	moveq	r1, #0
.L448:
	ldrb	r2, [r4, #197]	@ zero_extendqisi2
	ldrb	r8, [r4, #196]	@ zero_extendqisi2
	bfi	r2, r1, #4, #2
	bfi	r2, r6, #2, #2
	bfi	r8, r7, #0, #2
	bfi	r2, lr, #0, #2
	strb	r8, [r4, #196]
	strb	r2, [r4, #197]
	b	.L430
.L435:
	ldr	r1, [r4, #796]
	ldr	r2, [r5, #116]
	ldr	lr, [r4, #832]
	cmp	r1, r2
	bhi	.L478
	cmp	r2, lr
	bcc	.L440
.L438:
	ldr	r2, [r4, #44]
	mov	r6, #3
	ldrb	r7, [r4]	@ zero_extendqisi2
	ldrb	lr, [r4, #775]	@ zero_extendqisi2
	ldrb	r8, [r4, #811]	@ zero_extendqisi2
	str	r2, [r4, #256]
.L441:
	ldrb	r2, [r4, #4]	@ zero_extendqisi2
	cmp	r2, #1
	beq	.L479
	cmp	r2, #2
	streq	r1, [r4, #256]
	moveq	r7, lr
	moveq	r6, #1
.L443:
	str	lr, [r4, #188]
	mov	lr, #3
	str	r8, [r4, #192]
	b	.L436
.L440:
	ldrb	r7, [r4, #775]	@ zero_extendqisi2
	mov	r6, #1
	ldrb	r8, [r4, #811]	@ zero_extendqisi2
	str	r1, [r4, #256]
	mov	lr, r7
	b	.L441
.L477:
	ldr	r2, [r4, #200]
	cmp	r2, #720
	movne	r1, #1
	bne	.L447
	ldr	r1, [r4, #204]
	subs	r1, r1, #480
	movne	r1, #1
	b	.L447
.L478:
	cmp	r2, lr
	bcc	.L438
	ldrb	r7, [r4, #811]	@ zero_extendqisi2
	mov	r6, #2
	str	lr, [r4, #256]
	ldrb	lr, [r4, #775]	@ zero_extendqisi2
	mov	r8, r7
	b	.L441
.L479:
	ldr	r2, [r4, #832]
	mov	r7, r8
	mov	r6, #2
	str	r2, [r4, #256]
	b	.L443
.L467:
	add	ip, r5, #11075584
	add	ip, ip, #45056
	b	.L430
.L481:
	.align	2
.L480:
	.word	.LC12
	.word	vfmw_Osal_Func_Ptr_S
	UNWIND(.fnend)
	.size	MVC_GetImagePara, .-MVC_GetImagePara
	.align	2
	.global	MVC_SetFrmRepeatCount
	.type	MVC_SetFrmRepeatCount, %function
MVC_SetFrmRepeatCount:
	UNWIND(.fnstart)
	@ args = 0, pretend = 0, frame = 0
	@ frame_needed = 1, uses_anonymous_args = 0
	UNWIND(.movsp ip)
	mov	ip, sp
	stmfd	sp!, {fp, ip, lr, pc}
	UNWIND(.pad #4)
	UNWIND(.save {fp, ip, lr})
	UNWIND(.setfp fp, ip, #-4)
	sub	fp, ip, #4
	ldr	r3, [r0, #224]
	ldr	r3, [r3, #604]
	add	r3, r3, #2032
	add	r3, r3, #15
	cmp	r3, #4096
	movcc	r3, #0
	strcc	r3, [r1, #24]
	ldmccfd	sp, {fp, sp, pc}
	sub	sp, fp, #12
	ldmia	sp, {fp, sp, lr}
	b	MVC_SetFrmRepeatCount.part.1
	UNWIND(.fnend)
	.size	MVC_SetFrmRepeatCount, .-MVC_SetFrmRepeatCount
	.align	2
	.global	MVC_SplitFrmToFlds
	.type	MVC_SplitFrmToFlds, %function
MVC_SplitFrmToFlds:
	UNWIND(.fnstart)
	@ args = 0, pretend = 0, frame = 0
	@ frame_needed = 1, uses_anonymous_args = 0
	UNWIND(.movsp ip)
	mov	ip, sp
	stmfd	sp!, {r4, r5, fp, ip, lr, pc}
	UNWIND(.pad #4)
	UNWIND(.save {r4, r5, fp, ip, lr})
	UNWIND(.setfp fp, ip, #-4)
	sub	fp, ip, #4
	ldrb	lr, [r0, #737]	@ zero_extendqisi2
	mov	r5, #1
	ldrb	ip, [r0, #738]	@ zero_extendqisi2
	mov	r4, #2
	ldr	r1, [r0, #760]
	ldrb	r2, [r0, #739]	@ zero_extendqisi2
	ldr	r3, [r0, #740]
	strb	r5, [r0, #772]
	strb	r4, [r0, #808]
	strb	lr, [r0, #773]
	strb	lr, [r0, #809]
	strb	ip, [r0, #774]
	strb	ip, [r0, #810]
	str	r1, [r0, #796]
	str	r1, [r0, #832]
	strb	r2, [r0, #775]
	strb	r2, [r0, #811]
	str	r3, [r0, #776]
	str	r3, [r0, #812]
	ldmfd	sp, {r4, r5, fp, sp, pc}
	UNWIND(.fnend)
	.size	MVC_SplitFrmToFlds, .-MVC_SplitFrmToFlds
	.align	2
	.global	MVC_CombineFldsToFrm
	.type	MVC_CombineFldsToFrm, %function
MVC_CombineFldsToFrm:
	UNWIND(.fnstart)
	@ args = 0, pretend = 0, frame = 0
	@ frame_needed = 1, uses_anonymous_args = 0
	UNWIND(.movsp ip)
	mov	ip, sp
	stmfd	sp!, {r4, r5, fp, ip, lr, pc}
	UNWIND(.pad #4)
	UNWIND(.save {r4, r5, fp, ip, lr})
	UNWIND(.setfp fp, ip, #-4)
	sub	fp, ip, #4
	ldr	r2, [r0, #824]
	mov	lr, #3
	ldr	r1, [r0, #788]
	ldr	r3, [r0, #832]
	cmp	r2, r1
	ldr	r5, [r0, #796]
	ldrb	r4, [r0, #809]	@ zero_extendqisi2
	ldr	ip, [r0, #776]
	movge	r2, r1
	add	r3, r3, r5
	cmp	r4, #0
	strb	lr, [r0, #736]
	mov	r3, r3, lsr #1
	str	ip, [r0, #740]
	str	r2, [r0, #752]
	str	r2, [r0, #32]
	str	r3, [r0, #760]
	beq	.L486
	ldrb	r2, [r0, #773]	@ zero_extendqisi2
	cmp	r2, #0
	bne	.L487
.L486:
	ldr	r2, [r0, #808]
	mov	r1, #0
	strb	r1, [r0, #737]
	bic	r2, r2, #-16777216
	bic	r2, r2, #255
	cmp	r2, r1
	beq	.L491
	ldr	r2, [r0, #772]
	bic	r2, r2, #-16777216
	bic	r2, r2, #255
	cmp	r2, #0
	movne	ip, #1
	bne	.L489
.L491:
	mov	ip, #0
.L489:
	ldrb	r2, [r0, #811]	@ zero_extendqisi2
	ldrb	r1, [r0, #775]	@ zero_extendqisi2
	str	r3, [r0, #44]
	cmp	r2, r1
	strb	ip, [r0, #738]
	movcs	r3, r2
	movcc	r3, r1
	strb	r3, [r0, #739]
	strb	r3, [r0]
	ldmfd	sp, {r4, r5, fp, sp, pc}
.L487:
	mov	r1, #1
	strb	r1, [r0, #737]
	b	.L491
	UNWIND(.fnend)
	.size	MVC_CombineFldsToFrm, .-MVC_CombineFldsToFrm
	.align	2
	.global	MVC_GetAPC
	.type	MVC_GetAPC, %function
MVC_GetAPC:
	UNWIND(.fnstart)
	@ args = 0, pretend = 0, frame = 0
	@ frame_needed = 1, uses_anonymous_args = 0
	UNWIND(.movsp ip)
	mov	ip, sp
	stmfd	sp!, {r4, r5, r6, r7, r8, r9, r10, fp, ip, lr, pc}
	UNWIND(.pad #4)
	UNWIND(.save {r4, r5, r6, r7, r8, r9, r10, fp, ip, lr})
	UNWIND(.setfp fp, ip, #-4)
	sub	fp, ip, #4
	UNWIND(.pad #12)
	sub	sp, sp, #12
	subs	r6, r1, #0
	mov	r5, r0
	beq	.L522
	cmp	r2, #1
	beq	.L503
	cmp	r2, #2
	beq	.L504
	ldr	r9, [r6, #788]
	ldr	r10, [r6, #824]
.L505:
	add	r8, r5, #11075584
	add	r7, r8, #45056
	ldr	ip, [r7, #3244]
	cmp	ip, #0
	beq	.L514
	ldrb	r4, [r7, #3036]	@ zero_extendqisi2
	cmp	r4, #0
	movwne	r3, #48092
	movne	r4, #0
	movtne	r3, 169
	addne	r3, r5, r3
	bne	.L508
	b	.L506
.L512:
	ldrb	r2, [r3, #1]!	@ zero_extendqisi2
	cmp	r2, #0
	beq	.L506
.L508:
	add	r4, r4, #1
	cmp	r4, ip
	bne	.L512
.L514:
	mvn	r0, #0
.L518:
	sub	sp, fp, #40
	ldmfd	sp, {r4, r5, r6, r7, r8, r9, r10, fp, sp, pc}
.L504:
	ldr	r9, [r6, #824]
	mov	r10, r9
	b	.L505
.L506:
	ldrsb	r1, [r6, #6]
	ldr	r0, [r5, #120]
	bl	FSP_GetLogicFs
	cmp	r0, #0
	beq	.L509
	ldr	r3, [r0, #680]
	cmp	r3, #0
	beq	.L509
	add	r2, r5, r4
	movw	r3, #48088
	movt	r3, 169
	add	r3, r2, r3
	mov	r2, #1
	add	r5, r5, r4, lsl #2
	strb	r2, [r3, #4]
	add	r5, r5, #11075584
	ldr	r3, [r0, #680]
	add	r5, r5, #45056
	add	r8, r8, #45056
	ldr	r1, .L523
	mov	r0, #13
	ldr	r3, [r3, #8]
	str	r9, [r5, #3116]
	str	r10, [r5, #3180]
	str	r3, [r5, #3052]
	ldr	r3, [r7, #3248]
	cmp	r3, #15
	addls	r2, r3, r2
	mov	r3, r4
	movhi	r2, #16
	str	r2, [r8, #3248]
	ldr	r2, [r6, #252]
	bl	dprint_vfmw
	mov	r0, #0
	str	r4, [r6, #52]
	sub	sp, fp, #40
	ldmfd	sp, {r4, r5, r6, r7, r8, r9, r10, fp, sp, pc}
.L503:
	ldr	r9, [r6, #788]
	mov	r10, r9
	b	.L505
.L509:
	mov	r1, #0
	ldrsb	r2, [r6, #6]
	ldrb	r3, [r6, #3]	@ zero_extendqisi2
	stmia	sp, {r0, r1}
	mov	r0, r1
	ldr	r1, .L523+4
	bl	dprint_vfmw
	mvn	r0, #0
	b	.L518
.L522:
	mov	r0, r6
	movw	r3, #2109
	ldr	r2, .L523+8
	ldr	r1, .L523+12
	bl	dprint_vfmw
	mvn	r0, #0
	b	.L518
.L524:
	.align	2
.L523:
	.word	.LC15
	.word	.LC16
	.word	.LC13
	.word	.LC14
	UNWIND(.fnend)
	.size	MVC_GetAPC, .-MVC_GetAPC
	.align	2
	.global	MVC_SlidingWinMark
	.type	MVC_SlidingWinMark, %function
MVC_SlidingWinMark:
	UNWIND(.fnstart)
	@ args = 0, pretend = 0, frame = 8
	@ frame_needed = 1, uses_anonymous_args = 0
	UNWIND(.movsp ip)
	mov	ip, sp
	stmfd	sp!, {r4, r5, r6, r7, r8, r9, r10, fp, ip, lr, pc}
	UNWIND(.pad #4)
	UNWIND(.save {r4, r5, r6, r7, r8, r9, r10, fp, ip, lr})
	UNWIND(.setfp fp, ip, #-4)
	sub	fp, ip, #4
	UNWIND(.pad #12)
	sub	sp, sp, #12
	add	r3, r0, #11075584
	ldr	r2, [r0, #236]
	add	r3, r3, #45056
	mov	r10, r0
	ldr	r0, [r3, #3028]
	ldr	r2, [r2, #3944]
	ldr	r1, [r3, #3024]
	rsb	r2, r0, r2
	cmp	r1, r2
	beq	.L550
.L525:
	sub	sp, fp, #40
	ldmfd	sp, {r4, r5, r6, r7, r8, r9, r10, fp, sp, pc}
.L550:
	ldr	r8, [r3, #3016]
	cmp	r8, #0
	beq	.L530
	movw	r6, #47876
	add	r1, r10, #11141120
	movt	r6, 169
	mov	r2, #0
	add	r1, r1, #16384
	add	r6, r10, r6
	mov	r5, r2
	mvn	r9, #-2147483648
.L529:
	ldr	r4, [r6, #4]!
	cmp	r4, #0
	beq	.L528
	ldr	r7, [r4, #64]
	cmp	r9, r7
	bls	.L528
	ldrb	r3, [r4, #3]	@ zero_extendqisi2
	mov	r0, r4
	cmp	r3, #0
	beq	.L528
	str	r1, [fp, #-52]
	str	r2, [fp, #-48]
	bl	MVC_NonLongTermRefFlg
	ldr	r2, [fp, #-48]
	ldr	r1, [fp, #-52]
	cmp	r0, #0
	beq	.L528
	ldr	r0, [r4, #56]
	ldr	r3, [r1, #1200]
	cmp	r0, r3
	moveq	r9, r7
	moveq	r2, r5
.L528:
	add	r5, r5, #1
	cmp	r5, r8
	bne	.L529
.L527:
	movw	r3, #28354
	movt	r3, 42
	add	r3, r2, r3
	ldr	r4, [r10, r3, asl #2]
	cmp	r4, #0
	beq	.L525
	ldrb	r3, [r4, #3]	@ zero_extendqisi2
	cmp	r3, #0
	beq	.L525
	mov	r0, r4
	bl	MVC_NonLongTermRefFlg
	cmp	r0, #0
	beq	.L525
	add	r3, r10, #11141120
	ldr	r2, [r4, #56]
	add	r3, r3, #16384
	ldr	r3, [r3, #1200]
	cmp	r2, r3
	bne	.L525
	mov	r0, r10
	mov	r1, r4
	bl	MVC_UnMarkFrameStoreRef
	mov	r0, r10
	sub	sp, fp, #40
	ldmfd	sp, {r4, r5, r6, r7, r8, r9, r10, fp, sp, lr}
	b	MVC_UpdateReflist
.L530:
	mov	r2, r8
	b	.L527
	UNWIND(.fnend)
	.size	MVC_SlidingWinMark, .-MVC_SlidingWinMark
	.align	2
	.global	MVC_DumpDPB
	.type	MVC_DumpDPB, %function
MVC_DumpDPB:
	UNWIND(.fnstart)
	@ args = 0, pretend = 0, frame = 0
	@ frame_needed = 1, uses_anonymous_args = 0
	UNWIND(.movsp ip)
	mov	ip, sp
	stmfd	sp!, {r4, r5, r6, r7, fp, ip, lr, pc}
	UNWIND(.pad #4)
	UNWIND(.save {r4, r5, r6, r7, fp, ip, lr})
	UNWIND(.setfp fp, ip, #-4)
	sub	fp, ip, #4
	UNWIND(.pad #8)
	sub	sp, sp, #8
	ldr	r3, .L561
	mov	r7, r0
	ldr	r3, [r3]
	tst	r3, #16384
	beq	.L551
	add	r6, r0, #11075584
	add	r6, r6, #45056
	ldr	r3, [r6, #3020]
	cmp	r3, #0
	movwne	r5, #47876
	movne	r4, #0
	movtne	r5, 169
	addne	r5, r0, r5
	beq	.L557
.L556:
	ldr	ip, [r5, #4]!
	mov	r2, r4
	ldr	r1, .L561+4
	mov	r0, #14
	add	r4, r4, #1
	ldrb	lr, [ip, #3]	@ zero_extendqisi2
	ldr	r3, [ip, #20]
	str	lr, [sp, #4]
	ldr	ip, [ip, #32]
	str	ip, [sp]
	bl	dprint_vfmw
	ldr	r3, [r6, #3020]
	cmp	r3, r4
	bhi	.L556
.L557:
	ldr	r1, .L561+8
	mov	r0, #14
	bl	dprint_vfmw
	ldr	r3, [r6, #3024]
	cmp	r3, #0
	movwne	r5, #47940
	movne	r4, #0
	movtne	r5, 169
	addne	r5, r7, r5
	beq	.L555
.L558:
	ldr	ip, [r5, #4]!
	mov	r2, r4
	ldr	r1, .L561+12
	mov	r0, #14
	ldrb	lr, [ip, #3]	@ zero_extendqisi2
	ldr	r3, [ip, #20]
	str	lr, [sp, #4]
	ldr	ip, [ip, #32]
	str	ip, [sp]
	bl	dprint_vfmw
	ldr	r3, [r5]
	mov	r2, r4
	ldr	r1, .L561+16
	mov	r0, #14
	add	r4, r4, #1
	ldr	r3, [r3, #752]
	bl	dprint_vfmw
	ldr	r3, [r6, #3024]
	cmp	r3, r4
	bhi	.L558
.L555:
	ldr	r1, .L561+8
	mov	r0, #14
	sub	sp, fp, #28
	ldmfd	sp, {r4, r5, r6, r7, fp, sp, lr}
	b	dprint_vfmw
.L551:
	sub	sp, fp, #28
	ldmfd	sp, {r4, r5, r6, r7, fp, sp, pc}
.L562:
	.align	2
.L561:
	.word	g_PrintEnable
	.word	.LC18
	.word	.LC17
	.word	.LC19
	.word	.LC20
	UNWIND(.fnend)
	.size	MVC_DumpDPB, .-MVC_DumpDPB
	.align	2
	.global	MVC_UpdateCurrFrameInfo
	.type	MVC_UpdateCurrFrameInfo, %function
MVC_UpdateCurrFrameInfo:
	UNWIND(.fnstart)
	@ args = 0, pretend = 0, frame = 0
	@ frame_needed = 1, uses_anonymous_args = 0
	UNWIND(.movsp ip)
	mov	ip, sp
	stmfd	sp!, {r4, r5, r6, r7, r8, r9, fp, ip, lr, pc}
	UNWIND(.pad #4)
	UNWIND(.save {r4, r5, r6, r7, r8, r9, fp, ip, lr})
	UNWIND(.setfp fp, ip, #-4)
	sub	fp, ip, #4
	add	r0, r0, #11141120
	add	r3, r0, #16384
	ldrb	r2, [r3, #442]	@ zero_extendqisi2
	ldr	r4, [r3, #1120]
	strb	r2, [r4, #1]
	ldrb	r2, [r3, #444]	@ zero_extendqisi2
	cmp	r2, #0
	movne	r2, #3
	bne	.L564
	ldrb	r2, [r3, #445]	@ zero_extendqisi2
	cmp	r2, #0
	movne	r2, #3
.L564:
	strb	r2, [r4, #3]
	ldr	r2, [r3, #1128]
	str	r2, [r4, #20]
	ldr	r2, [r3, #1172]
	str	r2, [r4, #44]
	ldrb	r2, [r3, #452]	@ zero_extendqisi2
	strb	r2, [r4]
	ldr	r2, [r3, #1140]
	str	r2, [r4, #32]
	ldr	r2, [r3, #1196]
	str	r2, [r4, #48]
	ldr	r2, [r3, #1132]
	str	r2, [r4, #28]
	ldrb	r2, [r3, #449]	@ zero_extendqisi2
	str	r2, [r4, #40]
	ldrb	r2, [r3, #447]	@ zero_extendqisi2
	cmp	r2, #1
	moveq	r1, #3
	movne	r1, #0
	strb	r1, [r4, #4]
	ldrb	r2, [r3, #443]	@ zero_extendqisi2
	cmp	r2, #1
	beq	.L567
	bcc	.L568
	cmp	r2, #2
	ldmnefd	sp, {r4, r5, r6, r7, r8, r9, fp, sp, pc}
	str	r4, [r4, #812]
	mov	ip, #1
	strb	ip, [r4, #808]
	mov	r6, #0
	ldrb	ip, [r3, #444]	@ zero_extendqisi2
	strb	ip, [r4, #809]
	ldrb	ip, [r3, #445]	@ zero_extendqisi2
	strb	ip, [r4, #810]
	ldr	ip, [r3, #1148]
	str	ip, [r4, #824]
	ldrb	ip, [r3, #452]	@ zero_extendqisi2
	strb	ip, [r4, #811]
	ldr	lr, [r3, #1172]
	str	r6, [r4, #40]
	str	lr, [r4, #832]
	ldrb	r5, [r3, #441]	@ zero_extendqisi2
	cmp	r5, r6
	beq	.L585
	ldr	r2, [r4, #796]
	mov	r5, #3
	strb	r5, [r4, #2]
	add	r3, r3, #1104
	add	lr, lr, r2
	str	lr, [r4, #44]
	str	lr, [r4, #760]
	mvn	r7, #0
	ldrb	r2, [r3, #-657]	@ zero_extendqisi2
	cmp	r2, #1
	orreq	r6, r1, #2
	strb	r6, [r4, #4]
	ldrd	r8, [r3, #-8]
	mvn	r6, #0
	cmp	r9, r7
	cmpeq	r8, r6
	beq	.L576
	add	r1, r4, #720
	ldrd	r2, [r1, #-8]
	cmp	r3, r7
	cmpeq	r2, r6
	beq	.L586
.L576:
	ldrb	r3, [r4, #775]	@ zero_extendqisi2
.L583:
	add	r1, r0, #16384
	cmp	r3, ip
	mov	r0, r4
	movcc	r3, ip
	strb	r3, [r4]
	ldr	r3, [r1, #1140]
	str	r3, [r4, #32]
	sub	sp, fp, #36
	ldmfd	sp, {r4, r5, r6, r7, r8, r9, fp, sp, lr}
	b	MVC_CombineFldsToFrm
.L568:
	str	r4, [r4, #740]
	mov	r1, #3
	mov	r2, #0
	strb	r1, [r4, #2]
	strb	r2, [r4, #736]
	add	r1, r3, #456
	ldrb	r5, [r3, #444]	@ zero_extendqisi2
	mov	r2, #664
	add	r0, r4, #72
	strb	r5, [r4, #737]
	ldrb	r6, [r3, #445]	@ zero_extendqisi2
	strb	r6, [r4, #738]
	ldr	ip, [r3, #1144]
	str	ip, [r4, #752]
	ldrb	r7, [r3, #452]	@ zero_extendqisi2
	strb	r7, [r4, #739]
	ldr	r8, [r3, #1172]
	str	r8, [r4, #760]
	ldr	ip, [r3, #1148]
	str	ip, [r4, #788]
	ldr	r3, [r3, #1152]
	str	r3, [r4, #824]
	bl	memcpy
	mov	r2, #1
	mov	r3, #2
	str	r8, [r4, #796]
	str	r8, [r4, #832]
	strb	r7, [r4, #775]
	strb	r7, [r4, #811]
	strb	r6, [r4, #774]
	strb	r6, [r4, #810]
	strb	r5, [r4, #773]
	strb	r5, [r4, #809]
	str	r4, [r4, #776]
	str	r4, [r4, #812]
	strb	r2, [r4, #772]
	strb	r3, [r4, #808]
	ldmfd	sp, {r4, r5, r6, r7, r8, r9, fp, sp, pc}
.L567:
	strb	r2, [r4, #772]
	mov	r5, #0
	str	r4, [r4, #776]
	ldrb	ip, [r3, #444]	@ zero_extendqisi2
	strb	ip, [r4, #773]
	ldrb	ip, [r3, #445]	@ zero_extendqisi2
	strb	ip, [r4, #774]
	ldr	ip, [r3, #1148]
	str	ip, [r4, #788]
	ldrb	ip, [r3, #452]	@ zero_extendqisi2
	strb	ip, [r4, #775]
	ldr	lr, [r3, #1172]
	str	r5, [r4, #40]
	str	lr, [r4, #796]
	ldrb	r6, [r3, #441]	@ zero_extendqisi2
	cmp	r6, r5
	beq	.L587
	ldr	r2, [r4, #832]
	mov	r6, #3
	strb	r6, [r4, #2]
	add	r3, r3, #1104
	add	lr, lr, r2
	str	lr, [r4, #44]
	str	lr, [r4, #760]
	mvn	r7, #0
	ldrb	r2, [r3, #-657]	@ zero_extendqisi2
	mvn	r6, #0
	cmp	r2, #1
	orreq	r5, r1, #1
	strb	r5, [r4, #4]
	ldrd	r8, [r3, #-8]
	cmp	r9, r7
	cmpeq	r8, r6
	beq	.L572
	add	r1, r4, #720
	ldrd	r2, [r1, #-8]
	cmp	r3, r7
	cmpeq	r2, r6
	streqd	r8, [r1, #-8]
.L572:
	ldrb	r3, [r4, #811]	@ zero_extendqisi2
	b	.L583
.L585:
	strb	r2, [r4, #2]
	add	r1, r0, #16640
	str	lr, [r4, #44]
	add	r1, r1, #200
	str	lr, [r4, #760]
	add	r0, r4, #72
	ldrb	r3, [r3, #447]	@ zero_extendqisi2
	mov	r2, #664
	cmp	r3, #1
	moveq	r5, #2
	strb	r5, [r4, #4]
	bl	memcpy
	ldmfd	sp, {r4, r5, r6, r7, r8, r9, fp, sp, pc}
.L587:
	strb	r2, [r4, #2]
	add	r1, r3, #456
	str	lr, [r4, #44]
	add	r0, r4, #72
	str	lr, [r4, #760]
	mov	r2, #664
	ldrb	r3, [r3, #447]	@ zero_extendqisi2
	sub	r3, r3, #1
	clz	r3, r3
	mov	r3, r3, lsr #5
	strb	r3, [r4, #4]
	bl	memcpy
	ldmfd	sp, {r4, r5, r6, r7, r8, r9, fp, sp, pc}
.L586:
	strd	r8, [r1, #-8]
	b	.L576
	UNWIND(.fnend)
	.size	MVC_UpdateCurrFrameInfo, .-MVC_UpdateCurrFrameInfo
	.align	2
	.global	MVC_SimpleSlideDPB
	.type	MVC_SimpleSlideDPB, %function
MVC_SimpleSlideDPB:
	UNWIND(.fnstart)
	@ args = 0, pretend = 0, frame = 0
	@ frame_needed = 1, uses_anonymous_args = 0
	UNWIND(.movsp ip)
	mov	ip, sp
	stmfd	sp!, {r4, r5, r6, r7, r8, r9, fp, ip, lr, pc}
	UNWIND(.pad #4)
	UNWIND(.save {r4, r5, r6, r7, r8, r9, fp, ip, lr})
	UNWIND(.setfp fp, ip, #-4)
	sub	fp, ip, #4
	add	r3, r0, #11075584
	mov	r7, r0
	add	r3, r3, #45056
	ldr	r5, [r3, #3016]
	ldr	r3, [r3, #3020]
	cmp	r3, r5
	addcc	r6, r0, #11141120
	bcc	.L589
	cmp	r5, #0
	beq	.L594
	movw	ip, #47876
	add	r6, r0, #11141120
	movt	ip, 169
	mov	r1, #0
	add	r8, r6, #16384
	add	ip, r0, ip
	mov	r3, r1
	mvn	r4, #-2147483648
.L592:
	ldr	r2, [ip, #4]!
	cmp	r2, #0
	beq	.L591
	ldr	lr, [r2, #64]
	cmp	r4, lr
	bls	.L591
	ldr	r0, [r2, #56]
	ldr	r2, [r8, #1200]
	cmp	r0, r2
	moveq	r4, lr
	moveq	r1, r3
.L591:
	add	r3, r3, #1
	cmp	r3, r5
	bne	.L592
	mov	r5, r1
.L590:
	movw	r3, #28354
	mov	r0, r7
	movt	r3, 42
	add	r3, r1, r3
	ldr	r1, [r7, r3, asl #2]
	bl	MVC_UnMarkFrameStoreRef
	mov	r1, r5
	mov	r0, r7
	bl	MVC_RemoveFrameStoreOutDPB
.L589:
	add	r3, r6, #16384
	mov	r1, #0
	ldr	r2, [r3, #1136]
	strb	r1, [r3, #444]
	cmp	r2, r1
	movne	r2, #1
	strneb	r2, [r3, #445]
	ldmfd	sp, {r4, r5, r6, r7, r8, r9, fp, sp, pc}
.L594:
	add	r6, r0, #11141120
	mov	r1, r5
	b	.L590
	UNWIND(.fnend)
	.size	MVC_SimpleSlideDPB, .-MVC_SimpleSlideDPB
	.align	2
	.global	MVC_ReleaseNAL
	.type	MVC_ReleaseNAL, %function
MVC_ReleaseNAL:
	UNWIND(.fnstart)
	@ args = 0, pretend = 0, frame = 0
	@ frame_needed = 1, uses_anonymous_args = 0
	UNWIND(.movsp ip)
	mov	ip, sp
	stmfd	sp!, {r4, r5, r6, r7, fp, ip, lr, pc}
	UNWIND(.pad #4)
	UNWIND(.save {r4, r5, r6, r7, fp, ip, lr})
	UNWIND(.setfp fp, ip, #-4)
	sub	fp, ip, #4
	subs	r5, r1, #0
	mov	r6, r0
	beq	.L612
	add	r7, r5, #56
	mov	r4, r5
	mov	r3, #0
	strb	r3, [r5, #1]
	strb	r3, [r5, #3]
.L607:
	ldr	r3, [r4, #8]
	mov	r0, r6
	cmp	r3, #0
	beq	.L606
	ldr	r1, [r4, #32]
	bl	SM_ReleaseStreamSeg
	ldr	r3, [r4, #12]
	ldr	r2, [r4, #8]
	mov	r0, #7
	ldr	r1, .L613
	bl	dprint_vfmw
	mov	r3, #0
	str	r3, [r4, #8]
	str	r3, [r4, #24]
	str	r3, [r4, #12]
.L606:
	add	r4, r4, #28
	cmp	r4, r7
	bne	.L607
	mov	r3, #0
	strb	r3, [r5]
	str	r3, [r5, #68]
	ldmfd	sp, {r4, r5, r6, r7, fp, sp, pc}
.L612:
	mov	r0, r5
	movw	r3, #4022
	ldr	r2, .L613+4
	ldr	r1, .L613+8
	sub	sp, fp, #28
	ldmfd	sp, {r4, r5, r6, r7, fp, sp, lr}
	b	dprint_vfmw
.L614:
	.align	2
.L613:
	.word	.LC21
	.word	.LC13
	.word	.LC14
	UNWIND(.fnend)
	.size	MVC_ReleaseNAL, .-MVC_ReleaseNAL
	.align	2
	.global	MVC_ClearCurrNal
	.type	MVC_ClearCurrNal, %function
MVC_ClearCurrNal:
	UNWIND(.fnstart)
	@ args = 0, pretend = 0, frame = 0
	@ frame_needed = 1, uses_anonymous_args = 0
	UNWIND(.movsp ip)
	mov	ip, sp
	stmfd	sp!, {r4, r5, fp, ip, lr, pc}
	UNWIND(.pad #4)
	UNWIND(.save {r4, r5, fp, ip, lr})
	UNWIND(.setfp fp, ip, #-4)
	sub	fp, ip, #4
	ldr	r1, [r0, #232]
	mov	r4, r0
	cmp	r1, #0
	beq	.L616
	ldr	r0, [r0, #120]
	bl	MVC_ReleaseNAL
	mov	r3, #0
	str	r3, [r4, #232]
.L616:
	mov	r0, #0
	ldmfd	sp, {r4, r5, fp, sp, pc}
	UNWIND(.fnend)
	.size	MVC_ClearCurrNal, .-MVC_ClearCurrNal
	.align	2
	.global	MVC_ClearCurrSlice
	.type	MVC_ClearCurrSlice, %function
MVC_ClearCurrSlice:
	UNWIND(.fnstart)
	@ args = 0, pretend = 0, frame = 0
	@ frame_needed = 1, uses_anonymous_args = 0
	UNWIND(.movsp ip)
	mov	ip, sp
	stmfd	sp!, {r4, r5, fp, ip, lr, pc}
	UNWIND(.pad #4)
	UNWIND(.save {r4, r5, fp, ip, lr})
	UNWIND(.setfp fp, ip, #-4)
	sub	fp, ip, #4
	ldr	r1, .L625
	mov	r4, r0
	mov	r0, #1
	bl	dprint_vfmw
	ldr	r1, [r4, #232]
	cmp	r1, #0
	beq	.L621
	ldr	r0, [r4, #120]
	bl	MVC_ReleaseNAL
	mov	r3, #0
	str	r3, [r4, #232]
.L621:
	ldr	r3, [r4, #80]
	mov	r0, #0
	add	r3, r3, #1
	str	r3, [r4, #80]
	ldmfd	sp, {r4, r5, fp, sp, pc}
.L626:
	.align	2
.L625:
	.word	.LC22
	UNWIND(.fnend)
	.size	MVC_ClearCurrSlice, .-MVC_ClearCurrSlice
	.align	2
	.global	MVC_ClearAllNal
	.type	MVC_ClearAllNal, %function
MVC_ClearAllNal:
	UNWIND(.fnstart)
	@ args = 0, pretend = 0, frame = 0
	@ frame_needed = 1, uses_anonymous_args = 0
	UNWIND(.movsp ip)
	mov	ip, sp
	stmfd	sp!, {r4, r5, r6, r7, fp, ip, lr, pc}
	UNWIND(.pad #4)
	UNWIND(.save {r4, r5, r6, r7, fp, ip, lr})
	UNWIND(.setfp fp, ip, #-4)
	sub	fp, ip, #4
	mov	r6, r0
	add	r4, r0, #936
	add	r5, r0, #12992
	b	.L629
.L628:
	add	r4, r4, #88
	cmp	r4, r5
	beq	.L631
.L629:
	ldrb	r3, [r4, #1]	@ zero_extendqisi2
	cmp	r3, #1
	bne	.L628
	mov	r1, r4
	ldr	r0, [r6, #120]
	add	r4, r4, #88
	bl	MVC_ReleaseNAL
	cmp	r4, r5
	bne	.L629
.L631:
	mov	r0, #0
	ldmfd	sp, {r4, r5, r6, r7, fp, sp, pc}
	UNWIND(.fnend)
	.size	MVC_ClearAllNal, .-MVC_ClearAllNal
	.align	2
	.global	MVC_ClearAllSlice
	.type	MVC_ClearAllSlice, %function
MVC_ClearAllSlice:
	UNWIND(.fnstart)
	@ args = 0, pretend = 0, frame = 0
	@ frame_needed = 1, uses_anonymous_args = 0
	UNWIND(.movsp ip)
	mov	ip, sp
	stmfd	sp!, {r4, r5, r6, r7, fp, ip, lr, pc}
	UNWIND(.pad #4)
	UNWIND(.save {r4, r5, r6, r7, fp, ip, lr})
	UNWIND(.setfp fp, ip, #-4)
	sub	fp, ip, #4
	movw	r4, #18384
	movw	r5, #18928
	movt	r4, 170
	movt	r5, 170
	add	r4, r0, r4
	add	r5, r0, r5
	mov	r6, r0
	mov	r7, #0
.L634:
	ldr	r1, [r4, #4]!
	cmp	r1, #0
	beq	.L633
	ldr	r0, [r6, #120]
	bl	MVC_ReleaseNAL
	str	r7, [r4]
.L633:
	cmp	r4, r5
	bne	.L634
	mov	r0, #0
	str	r0, [r6, #64]
	str	r0, [r6, #104]
	ldmfd	sp, {r4, r5, r6, r7, fp, sp, pc}
	UNWIND(.fnend)
	.size	MVC_ClearAllSlice, .-MVC_ClearAllSlice
	.align	2
	.global	MVC_ClearCurrPic
	.type	MVC_ClearCurrPic, %function
MVC_ClearCurrPic:
	UNWIND(.fnstart)
	@ args = 0, pretend = 0, frame = 0
	@ frame_needed = 1, uses_anonymous_args = 0
	UNWIND(.movsp ip)
	mov	ip, sp
	stmfd	sp!, {r4, r5, fp, ip, lr, pc}
	UNWIND(.pad #4)
	UNWIND(.save {r4, r5, fp, ip, lr})
	UNWIND(.setfp fp, ip, #-4)
	sub	fp, ip, #4
	mov	r4, r0
	bl	MVC_ClearAllSlice
	ldr	r0, [r4, #40]
	add	r3, r4, #11075584
	add	r3, r3, #40960
	mov	r2, #0
	movw	r1, #23352
	movt	r1, 1
	str	r0, [r3, #2828]
	str	r1, [r3, #2832]
	mov	r0, #2
	mov	r1, #7
	strb	r0, [r3, #2817]
	strb	r1, [r3, #2819]
	mov	r0, #32
	mov	r1, #3
	strb	r0, [r3, #2818]
	str	r1, [r3, #2840]
	mvn	r0, #0
	mov	r1, #262144
	str	r0, [r3, #2844]
	str	r1, [r3, #2856]
	mov	r0, r2
	strb	r2, [r3, #2816]
	str	r2, [r3, #2848]
	str	r2, [r3, #2852]
	ldmfd	sp, {r4, r5, fp, sp, pc}
	UNWIND(.fnend)
	.size	MVC_ClearCurrPic, .-MVC_ClearCurrPic
	.align	2
	.global	MVC_ArrangeVahbMem
	.type	MVC_ArrangeVahbMem, %function
MVC_ArrangeVahbMem:
	UNWIND(.fnstart)
	@ args = 4, pretend = 0, frame = 40
	@ frame_needed = 1, uses_anonymous_args = 0
	UNWIND(.movsp ip)
	mov	ip, sp
	stmfd	sp!, {r4, r5, r6, r7, fp, ip, lr, pc}
	UNWIND(.pad #4)
	UNWIND(.save {r4, r5, r6, r7, fp, ip, lr})
	UNWIND(.setfp fp, ip, #-4)
	sub	fp, ip, #4
	UNWIND(.pad #40)
	sub	sp, sp, #40
	sub	r4, r1, #32
	sub	r3, r2, #32
	movw	ip, #8160
	cmp	r3, ip
	cmpls	r4, ip
	mov	r6, r1
	mov	r7, r2
	mov	r5, r0
	movhi	r4, #1
	movls	r4, #0
	bhi	.L650
	ldr	r3, .L652
	mov	r2, #32
	mov	r1, r4
	sub	r0, fp, #60
	ldr	r3, [r3, #48]
	blx	r3
	ldr	r3, [r5, #224]
	str	r7, [fp, #-32]
	strb	r4, [fp, #-60]
	ldr	r3, [r3, #28]
	strb	r4, [fp, #-59]
	cmp	r3, #24
	str	r6, [fp, #-52]
	str	r7, [fp, #-48]
	str	r6, [fp, #-44]
	str	r7, [fp, #-40]
	str	r6, [fp, #-36]
	beq	.L643
	add	r2, r5, #11075584
	ldrb	r3, [fp, #4]	@ zero_extendqisi2
	add	r2, r2, #45056
	mov	r1, #5
	strb	r4, [fp, #-56]
	ldr	r2, [r2, #3016]
	strb	r1, [fp, #-55]
	add	r2, r2, #3
	strb	r2, [fp, #-57]
.L648:
	sub	r1, fp, #60
	ldr	r0, [r5, #120]
	mov	r4, #0
	strb	r3, [fp, #-54]
	strb	r4, [fp, #-58]
	bl	FSP_ConfigInstance
	cmp	r0, r4
	bne	.L644
	ldr	r1, [r5, #224]
	sub	r3, fp, #64
	ldr	r0, [r5, #120]
	ldr	r2, [r1, #24]
	ldr	r1, [r1, #20]
	bl	FSP_ConfigFrameBuf
	cmp	r0, #2
	beq	.L651
	cmp	r0, #0
	moveq	r0, #1
	bne	.L646
.L649:
	sub	sp, fp, #28
	ldmfd	sp, {r4, r5, r6, r7, fp, sp, pc}
.L643:
	mov	r3, #1
	mov	r2, #5
	strb	r4, [fp, #-56]
	strb	r3, [fp, #-57]
	strb	r2, [fp, #-55]
	b	.L648
.L651:
	add	r0, r5, #584
	bl	ResetVoQueue
.L646:
	ldr	r1, .L652+4
	mov	r0, #0
	bl	dprint_vfmw
	mvn	r0, #19
	b	.L649
.L650:
	mov	r3, r2
	mov	r0, #0
	mov	r2, r1
	ldr	r1, .L652+8
	bl	dprint_vfmw
	mvn	r0, #19
	sub	sp, fp, #28
	ldmfd	sp, {r4, r5, r6, r7, fp, sp, pc}
.L644:
	mov	r0, r4
	ldr	r1, .L652+12
	bl	dprint_vfmw
	mvn	r0, #19
	b	.L649
.L653:
	.align	2
.L652:
	.word	vfmw_Osal_Func_Ptr_S
	.word	.LC24
	.word	.LC23
	.word	.LC25
	UNWIND(.fnend)
	.size	MVC_ArrangeVahbMem, .-MVC_ArrangeVahbMem
	.align	2
	.global	MVC_RepairList
	.type	MVC_RepairList, %function
MVC_RepairList:
	UNWIND(.fnstart)
	@ args = 0, pretend = 0, frame = 0
	@ frame_needed = 1, uses_anonymous_args = 0
	UNWIND(.movsp ip)
	mov	ip, sp
	stmfd	sp!, {r3, r4, r5, r6, r7, r8, r9, r10, fp, ip, lr, pc}
	UNWIND(.pad #4)
	UNWIND(.save {r3, r4, r5, r6, r7, r8, r9, r10, fp, ip, lr})
	UNWIND(.setfp fp, ip, #-4)
	sub	fp, ip, #4
	add	r3, r0, #11075584
	mov	r7, r0
	add	r3, r3, #40960
	ldrb	r3, [r3, #1160]	@ zero_extendqisi2
	cmp	r3, #1
	beq	.L656
	bcc	.L671
	cmp	r3, #2
	bne	.L677
.L672:
	mov	r0, #0
	ldmfd	sp, {r3, r4, r5, r6, r7, r8, r9, r10, fp, sp, pc}
.L668:
	mov	r0, r7
.L677:
	bl	MVC_ClearCurrSlice
	mvn	r0, #0
	ldmfd	sp, {r3, r4, r5, r6, r7, r8, r9, r10, fp, sp, pc}
.L656:
	mov	r0, #2
.L657:
	movw	r6, #42164
	add	r8, r7, #11141120
	movt	r6, 169
	add	r6, r7, r6
	add	r8, r8, #16384
	add	r5, r7, #256
	ldr	r2, [r6, #4]!
	mov	lr, r7
	mov	r4, #0
	mov	r9, #1
	cmp	r2, #0
	beq	.L659
.L679:
	ldr	r10, [lr, #256]
	cmp	r10, #0
	bne	.L673
	mov	ip, r5
	mov	r3, r10
	b	.L661
.L662:
	ldr	r1, [ip, #4]!
	cmp	r1, #0
	bne	.L664
.L661:
	add	r3, r3, #1
	cmp	r3, r2
	bne	.L662
	ldr	r3, [r7, #224]
	ldr	r3, [r3, #12]
	cmp	r3, #2
	bne	.L668
	ldr	r1, [r8, #1120]
	add	r1, r1, #736
.L664:
	mov	ip, r5
	mov	r3, #0
	b	.L670
.L666:
	ldr	r10, [ip, #4]!
.L670:
	add	r3, r3, #1
	cmp	r10, #0
	streq	r1, [ip]
	cmp	r3, r2
	bne	.L666
.L667:
	add	r4, r4, #1
	add	r5, r5, #132
	cmp	r0, r4
	add	lr, lr, #132
	bls	.L672
	ldr	r2, [r6, #4]!
	cmp	r2, #0
	bne	.L679
.L659:
	ldr	r3, [r7, #224]
	ldr	r3, [r3, #12]
	cmp	r3, #2
	bne	.L668
	str	r9, [r6]
	ldr	r3, [r8, #1120]
	add	r3, r3, #736
	str	r3, [lr, #256]
	b	.L667
.L673:
	mov	r1, r10
	b	.L664
.L671:
	mov	r0, #1
	b	.L657
	UNWIND(.fnend)
	.size	MVC_RepairList, .-MVC_RepairList
	.align	2
	.global	MVC_GetShortTermPicPoint
	.type	MVC_GetShortTermPicPoint, %function
MVC_GetShortTermPicPoint:
	UNWIND(.fnstart)
	@ args = 0, pretend = 0, frame = 0
	@ frame_needed = 1, uses_anonymous_args = 0
	UNWIND(.movsp ip)
	mov	ip, sp
	stmfd	sp!, {r4, r5, fp, ip, lr, pc}
	UNWIND(.pad #4)
	UNWIND(.save {r4, r5, fp, ip, lr})
	UNWIND(.setfp fp, ip, #-4)
	sub	fp, ip, #4
	add	r3, r0, #11075584
	add	r2, r3, #40960
	ldrb	r4, [r2, #1161]	@ zero_extendqisi2
	cmp	r4, #0
	beq	.L681
	ldrb	r2, [r2, #1162]	@ zero_extendqisi2
	cmp	r2, #0
	movne	r4, #2
	moveq	r4, #1
.L681:
	add	r3, r3, #45056
	ldr	r5, [r3, #3024]
	cmp	r5, #0
	beq	.L689
	movw	r3, #47944
	mov	r2, #0
	movt	r3, 169
	add	r3, r0, r3
	b	.L686
.L699:
	ldrb	ip, [r0, #3]	@ zero_extendqisi2
	cmp	ip, #3
	beq	.L697
.L684:
	add	r2, r2, #1
	add	r3, r3, #4
	cmp	r2, r5
	beq	.L698
.L686:
	cmp	r4, #0
	ldr	r0, [r3]
	beq	.L699
	ldrb	lr, [r0, #3]	@ zero_extendqisi2
	tst	lr, #1
	beq	.L685
	ldr	ip, [r0, #772]
	bic	ip, ip, #-16777216
	bic	ip, ip, #255
	cmp	ip, #65536
	beq	.L700
.L685:
	tst	lr, #2
	beq	.L684
	ldr	ip, [r0, #808]
	bic	ip, ip, #-16777216
	bic	ip, ip, #255
	cmp	ip, #65536
	bne	.L684
	ldr	ip, [r0, #820]
	cmp	ip, r1
	bne	.L684
	add	r0, r0, #808
	ldmfd	sp, {r4, r5, fp, sp, pc}
.L697:
	ldr	ip, [r0, #736]
	bic	ip, ip, #-16777216
	bic	ip, ip, #255
	cmp	ip, #65536
	bne	.L684
	ldr	ip, [r0, #748]
	cmp	ip, r1
	bne	.L684
	add	r0, r0, #736
	ldmfd	sp, {r4, r5, fp, sp, pc}
.L700:
	ldr	ip, [r0, #784]
	cmp	ip, r1
	bne	.L685
	add	r0, r0, #772
	ldmfd	sp, {r4, r5, fp, sp, pc}
.L698:
	mov	r0, #0
	ldmfd	sp, {r4, r5, fp, sp, pc}
.L689:
	mov	r0, r5
	ldmfd	sp, {r4, r5, fp, sp, pc}
	UNWIND(.fnend)
	.size	MVC_GetShortTermPicPoint, .-MVC_GetShortTermPicPoint
	.align	2
	.global	MVC_GetLongTermPicPoint
	.type	MVC_GetLongTermPicPoint, %function
MVC_GetLongTermPicPoint:
	UNWIND(.fnstart)
	@ args = 0, pretend = 0, frame = 0
	@ frame_needed = 1, uses_anonymous_args = 0
	UNWIND(.movsp ip)
	mov	ip, sp
	stmfd	sp!, {r4, r5, fp, ip, lr, pc}
	UNWIND(.pad #4)
	UNWIND(.save {r4, r5, fp, ip, lr})
	UNWIND(.setfp fp, ip, #-4)
	sub	fp, ip, #4
	add	r3, r0, #11075584
	add	r2, r3, #40960
	ldrb	r4, [r2, #1161]	@ zero_extendqisi2
	cmp	r4, #0
	beq	.L702
	ldrb	r2, [r2, #1162]	@ zero_extendqisi2
	cmp	r2, #0
	movne	r4, #2
	moveq	r4, #1
.L702:
	add	r3, r3, #45056
	ldr	r5, [r3, #3028]
	cmp	r5, #0
	beq	.L710
	movw	r3, #48008
	mov	r2, #0
	movt	r3, 169
	add	r3, r0, r3
	b	.L707
.L720:
	ldrb	ip, [r0, #3]	@ zero_extendqisi2
	cmp	ip, #3
	beq	.L718
.L705:
	add	r2, r2, #1
	add	r3, r3, #4
	cmp	r2, r5
	beq	.L719
.L707:
	cmp	r4, #0
	ldr	r0, [r3]
	beq	.L720
	ldrb	lr, [r0, #3]	@ zero_extendqisi2
	tst	lr, #1
	beq	.L706
	ldr	ip, [r0, #772]
	bic	ip, ip, #-16777216
	bic	ip, ip, #255
	cmp	ip, #256
	beq	.L721
.L706:
	tst	lr, #2
	beq	.L705
	ldr	ip, [r0, #808]
	bic	ip, ip, #-16777216
	bic	ip, ip, #255
	cmp	ip, #256
	bne	.L705
	ldr	ip, [r0, #816]
	cmp	ip, r1
	bne	.L705
	add	r0, r0, #808
	ldmfd	sp, {r4, r5, fp, sp, pc}
.L718:
	ldr	ip, [r0, #736]
	bic	ip, ip, #-16777216
	bic	ip, ip, #255
	cmp	ip, #256
	bne	.L705
	ldr	ip, [r0, #744]
	cmp	ip, r1
	bne	.L705
	add	r0, r0, #736
	ldmfd	sp, {r4, r5, fp, sp, pc}
.L721:
	ldr	ip, [r0, #780]
	cmp	ip, r1
	bne	.L706
	add	r0, r0, #772
	ldmfd	sp, {r4, r5, fp, sp, pc}
.L719:
	mov	r0, #0
	ldmfd	sp, {r4, r5, fp, sp, pc}
.L710:
	mov	r0, r5
	ldmfd	sp, {r4, r5, fp, sp, pc}
	UNWIND(.fnend)
	.size	MVC_GetLongTermPicPoint, .-MVC_GetLongTermPicPoint
	.align	2
	.global	MVC_ReorderSTList
	.type	MVC_ReorderSTList, %function
MVC_ReorderSTList:
	UNWIND(.fnstart)
	@ args = 8, pretend = 0, frame = 0
	@ frame_needed = 1, uses_anonymous_args = 0
	UNWIND(.movsp ip)
	mov	ip, sp
	stmfd	sp!, {r4, r5, r6, r7, r8, r9, fp, ip, lr, pc}
	UNWIND(.pad #4)
	UNWIND(.save {r4, r5, r6, r7, r8, r9, fp, ip, lr})
	UNWIND(.setfp fp, ip, #-4)
	sub	fp, ip, #4
	mov	ip, r1, asl #7
	ldr	r7, [fp, #4]
	add	r6, ip, r1, lsl #2
	mov	r1, r3
	add	r6, r6, #256
	mov	r5, r3
	mov	r8, r2
	add	r6, r0, r6
	bl	MVC_GetShortTermPicPoint
	ldr	r4, [r7]
	add	r3, r8, #1
	ldr	r1, [fp, #8]
	cmp	r3, r4
	ble	.L723
	add	lr, r6, r3, lsl #2
	mov	ip, r3
.L724:
	ldr	r4, [lr, #-4]!
	sub	ip, ip, #1
	str	r4, [lr, #4]
	ldr	r4, [r7]
	cmp	r4, ip
	blt	.L724
.L723:
	add	r2, r4, #1
	str	r2, [r7]
	str	r0, [r6, r4, asl #2]
	ldr	ip, [r7]
	cmp	r3, ip
	ldmltfd	sp, {r4, r5, r6, r7, r8, r9, fp, sp, pc}
	add	r2, r8, #2
	add	r4, r6, ip, lsl #2
	mov	lr, ip
	b	.L728
.L727:
	str	r0, [r6, lr, asl #2]
	add	lr, lr, #1
.L726:
	cmp	ip, r2
	beq	.L736
.L728:
	ldr	r0, [r4], #4
	add	ip, ip, #1
	cmp	r0, #0
	beq	.L726
	ldrb	r3, [r0, #1]	@ zero_extendqisi2
	cmp	r3, #0
	bne	.L727
	ldr	r3, [r0, #12]
	cmp	r3, r5
	bne	.L727
	ldr	r3, [r0, #4]
	ldr	r3, [r3, #56]
	cmp	r3, r1
	bne	.L727
	cmp	ip, r2
	bne	.L728
.L736:
	ldmfd	sp, {r4, r5, r6, r7, r8, r9, fp, sp, pc}
	UNWIND(.fnend)
	.size	MVC_ReorderSTList, .-MVC_ReorderSTList
	.align	2
	.global	MVC_ReorderLTList
	.type	MVC_ReorderLTList, %function
MVC_ReorderLTList:
	UNWIND(.fnstart)
	@ args = 8, pretend = 0, frame = 0
	@ frame_needed = 1, uses_anonymous_args = 0
	UNWIND(.movsp ip)
	mov	ip, sp
	stmfd	sp!, {r4, r5, r6, r7, r8, r9, fp, ip, lr, pc}
	UNWIND(.pad #4)
	UNWIND(.save {r4, r5, r6, r7, r8, r9, fp, ip, lr})
	UNWIND(.setfp fp, ip, #-4)
	sub	fp, ip, #4
	mov	ip, r1, asl #7
	ldr	r7, [fp, #4]
	add	r6, ip, r1, lsl #2
	mov	r1, r3
	add	r6, r6, #256
	mov	r5, r3
	mov	r8, r2
	add	r6, r0, r6
	bl	MVC_GetLongTermPicPoint
	ldr	r4, [r7]
	add	r3, r8, #1
	ldr	r1, [fp, #8]
	cmp	r3, r4
	ble	.L738
	add	lr, r6, r3, lsl #2
	mov	ip, r3
.L739:
	ldr	r4, [lr, #-4]!
	sub	ip, ip, #1
	str	r4, [lr, #4]
	ldr	r4, [r7]
	cmp	r4, ip
	blt	.L739
.L738:
	add	r2, r4, #1
	str	r2, [r7]
	str	r0, [r6, r4, asl #2]
	ldr	ip, [r7]
	cmp	r3, ip
	ldmltfd	sp, {r4, r5, r6, r7, r8, r9, fp, sp, pc}
	add	r2, r8, #2
	add	r4, r6, ip, lsl #2
	mov	lr, ip
	b	.L743
.L742:
	str	r0, [r6, lr, asl #2]
	add	lr, lr, #1
.L741:
	cmp	ip, r2
	beq	.L754
.L743:
	ldr	r0, [r4], #4
	add	ip, ip, #1
	cmp	r0, #0
	beq	.L741
	ldrb	r3, [r0, #1]	@ zero_extendqisi2
	cmp	r3, #0
	beq	.L742
	ldr	r3, [r0, #8]
	cmp	r3, r5
	bne	.L742
	ldr	r3, [r0, #4]
	ldr	r3, [r3, #56]
	cmp	r3, r1
	bne	.L742
	cmp	ip, r2
	bne	.L743
.L754:
	ldmfd	sp, {r4, r5, r6, r7, r8, r9, fp, sp, pc}
	UNWIND(.fnend)
	.size	MVC_ReorderLTList, .-MVC_ReorderLTList
	.align	2
	.global	MVC_GetMaxViewIdx
	.type	MVC_GetMaxViewIdx, %function
MVC_GetMaxViewIdx:
	UNWIND(.fnstart)
	@ args = 0, pretend = 0, frame = 0
	@ frame_needed = 1, uses_anonymous_args = 0
	UNWIND(.movsp ip)
	mov	ip, sp
	stmfd	sp!, {r4, r5, r6, fp, ip, lr, pc}
	UNWIND(.pad #4)
	UNWIND(.save {r4, r5, r6, fp, ip, lr})
	UNWIND(.setfp fp, ip, #-4)
	sub	fp, ip, #4
	add	ip, r0, #10747904
	movw	lr, #22868
	add	ip, ip, #20480
	movt	lr, 164
	add	lr, r0, lr
	ldr	r5, [ip, #2384]
	adds	r5, r5, #1
	beq	.L762
	ldr	ip, [ip, #2388]
	cmp	r1, ip
	beq	.L763
	mov	r6, r5
	mov	ip, #0
	b	.L757
.L759:
	ldr	r4, [lr, #4]!
	cmp	r1, r4
	beq	.L765
.L757:
	add	ip, ip, #1
	cmp	ip, r5
	bne	.L759
	cmp	r6, #0
	blt	.L766
.L756:
	cmp	r2, #0
	add	r6, r6, r3, lsl #1
	movwne	r3, #5718
	movweq	r3, #5726
	movt	r3, 41
	add	r3, r6, r3
	add	r0, r0, r3, lsl #2
	ldr	r0, [r0, #4]
	ldmfd	sp, {r4, r5, r6, fp, sp, pc}
.L765:
	mov	r6, ip
	cmp	r6, #0
	bge	.L756
.L766:
	mov	r0, #0
	ldmfd	sp, {r4, r5, r6, fp, sp, pc}
.L762:
	mov	r6, r5
	b	.L756
.L763:
	mov	r6, #0
	b	.L756
	UNWIND(.fnend)
	.size	MVC_GetMaxViewIdx, .-MVC_GetMaxViewIdx
	.align	2
	.global	mvc_get_inter_view_pic
	.type	mvc_get_inter_view_pic, %function
mvc_get_inter_view_pic:
	UNWIND(.fnstart)
	@ args = 0, pretend = 0, frame = 0
	@ frame_needed = 1, uses_anonymous_args = 0
	UNWIND(.movsp ip)
	mov	ip, sp
	stmfd	sp!, {r4, fp, ip, lr, pc}
	UNWIND(.pad #4)
	UNWIND(.save {r4, fp, ip, lr})
	UNWIND(.setfp fp, ip, #-4)
	sub	fp, ip, #4
	movw	ip, #27326
	mov	r4, #1696
	movt	ip, 42
	add	ip, r3, ip
	mla	r3, r4, r3, r0
	ldr	lr, [r0, ip, asl #2]
	movw	ip, #31360
	cmp	lr, #0
	movt	ip, 169
	add	ip, r3, ip
	beq	.L773
	add	r4, r0, #11141120
	mov	r3, #0
	mov	r0, ip
	add	r4, r4, #16384
	b	.L772
.L769:
	cmp	r3, lr
	add	r0, r0, #848
	beq	.L775
.L772:
	ldr	ip, [r0, #56]
	add	r3, r3, #1
	cmp	ip, r1
	bne	.L769
	ldrb	ip, [r4, #443]	@ zero_extendqisi2
	cmp	ip, #0
	bne	.L770
	ldr	ip, [r0, #756]
	cmp	ip, r2
	bne	.L769
	add	r0, r0, #736
	ldmfd	sp, {r4, fp, sp, pc}
.L770:
	cmp	ip, #1
	beq	.L776
	cmp	ip, #2
	bne	.L769
	ldr	ip, [r0, #828]
	cmp	ip, r2
	bne	.L769
	add	r0, r0, #808
	ldmfd	sp, {r4, fp, sp, pc}
.L776:
	ldr	ip, [r0, #792]
	cmp	ip, r2
	bne	.L769
	add	r0, r0, #772
	ldmfd	sp, {r4, fp, sp, pc}
.L775:
	mov	r0, #0
	ldmfd	sp, {r4, fp, sp, pc}
.L773:
	mov	r0, lr
	ldmfd	sp, {r4, fp, sp, pc}
	UNWIND(.fnend)
	.size	mvc_get_inter_view_pic, .-mvc_get_inter_view_pic
	.align	2
	.global	mvc_reorder_interview
	.type	mvc_reorder_interview, %function
mvc_reorder_interview:
	UNWIND(.fnstart)
	@ args = 8, pretend = 0, frame = 0
	@ frame_needed = 1, uses_anonymous_args = 0
	UNWIND(.movsp ip)
	mov	ip, sp
	stmfd	sp!, {r4, r5, r6, r7, r8, r9, fp, ip, lr, pc}
	UNWIND(.pad #4)
	UNWIND(.save {r4, r5, r6, r7, r8, r9, fp, ip, lr})
	UNWIND(.setfp fp, ip, #-4)
	sub	fp, ip, #4
	ldr	r4, [fp, #8]
	mov	r7, r2
	ldr	r6, [fp, #4]
	mov	r5, r3
	mov	r8, r1
	mov	r1, r3
	mov	r2, r4, asl #7
	mov	r3, r4
	add	r4, r2, r4, lsl #2
	mov	r2, r6
	add	r4, r4, #256
	add	r4, r0, r4
	bl	mvc_get_inter_view_pic
	cmp	r0, #0
	ldmeqfd	sp, {r4, r5, r6, r7, r8, r9, fp, sp, pc}
	ldr	r3, [r7]
	add	r1, r8, #1
	cmp	r1, r3
	bls	.L779
	add	lr, r4, r1, lsl #2
	mov	ip, r1
.L780:
	ldr	r3, [lr, #-4]!
	sub	ip, ip, #1
	str	r3, [lr, #4]
	ldr	r3, [r7]
	cmp	r3, ip
	bcc	.L780
.L779:
	add	r2, r3, #1
	str	r2, [r7]
	str	r0, [r4, r3, asl #2]
	ldr	ip, [r7]
	cmp	r1, ip
	ldmccfd	sp, {r4, r5, r6, r7, r8, r9, fp, sp, pc}
	add	r3, r4, ip, lsl #2
	mov	lr, ip
	b	.L784
.L782:
	cmp	r1, ip
	str	r0, [r4, lr, asl #2]
	add	lr, lr, #1
	bcc	.L791
.L784:
	ldr	r0, [r3], #4
	add	ip, ip, #1
	cmp	r0, #0
	beq	.L782
	ldr	r2, [r0, #4]
	ldr	r2, [r2, #56]
	cmp	r2, r5
	bne	.L782
	ldr	r2, [r0, #20]
	cmp	r2, r6
	bne	.L782
	cmp	r1, ip
	bcs	.L784
.L791:
	ldmfd	sp, {r4, r5, r6, r7, r8, r9, fp, sp, pc}
	UNWIND(.fnend)
	.size	mvc_reorder_interview, .-mvc_reorder_interview
	.align	2
	.global	MVC_ReorderRefPiclist
	.type	MVC_ReorderRefPiclist, %function
MVC_ReorderRefPiclist:
	UNWIND(.fnstart)
	@ args = 0, pretend = 0, frame = 56
	@ frame_needed = 1, uses_anonymous_args = 0
	UNWIND(.movsp ip)
	mov	ip, sp
	stmfd	sp!, {r4, r5, r6, r7, r8, r9, r10, fp, ip, lr, pc}
	UNWIND(.pad #4)
	UNWIND(.save {r4, r5, r6, r7, r8, r9, r10, fp, ip, lr})
	UNWIND(.setfp fp, ip, #-4)
	sub	fp, ip, #4
	UNWIND(.pad #68)
	sub	sp, sp, #68
	mov	r5, r0
	add	r0, r0, #11075584
	str	r2, [fp, #-64]
	add	r9, r0, #40960
	mov	r2, #0
	mov	r10, r1
	str	r2, [fp, #-48]
	ldrb	r3, [r9, #1161]	@ zero_extendqisi2
	cmp	r3, r2
	beq	.L793
	ldrb	r3, [r9, #1162]	@ zero_extendqisi2
	cmp	r3, r2
	movne	r3, #2
	moveq	r3, #1
.L793:
	cmp	r10, #1
	bls	.L841
.L792:
	sub	sp, fp, #40
	ldmfd	sp, {r4, r5, r6, r7, r8, r9, r10, fp, sp, pc}
.L841:
	cmp	r10, #0
	beq	.L842
	movw	r1, #41204
	movw	r8, #41468
	movw	r7, #41988
	movt	r1, 169
	movt	r8, 169
	movt	r7, 169
	add	r1, r5, r1
	add	r8, r5, r8
	add	r7, r5, r7
	add	r2, r0, #41728
	str	r2, [fp, #-100]
.L796:
	ldr	r0, [r5, #236]
	cmp	r3, #0
	mov	r2, #1
	ldr	r3, [r0, #2896]
	add	r3, r3, #4
	mov	r3, r2, asl r3
	str	r3, [fp, #-88]
	ldr	r3, [r9, #1188]
	ldrne	r2, [fp, #-88]
	movne	r3, r3, asl #1
	addne	r3, r3, #1
	str	r3, [fp, #-92]
	ldr	r3, [fp, #-64]
	movne	r2, r2, asl #1
	strne	r2, [fp, #-88]
	adds	r3, r3, #2
	str	r3, [fp, #-72]
	beq	.L792
	ldr	r2, [r1]
	cmp	r2, #3
	beq	.L792
	movw	r3, #22868
	str	r9, [fp, #-68]
	mov	r0, r3
	mov	r3, #0
	mov	r4, r3
	str	r3, [fp, #-76]
	str	r3, [fp, #-80]
	mov	r6, r3
	ldr	r3, [fp, #-92]
	movt	r0, 164
	mov	r9, r1
	add	r0, r5, r0
	str	r0, [fp, #-96]
	str	r3, [fp, #-60]
	mov	r3, #1
	str	r3, [fp, #-84]
	b	.L800
.L801:
	cmp	r2, #2
	beq	.L843
	ldr	r3, [fp, #-84]
	cmp	r3, #1
	beq	.L807
	ldr	r3, [fp, #-68]
	ldrb	r3, [r3, #1169]	@ zero_extendqisi2
	str	r3, [fp, #-56]
	mov	r3, r10, asl #1
.L808:
	cmp	r2, #4
	ldr	r2, [r7]
	beq	.L844
	add	r2, r2, #1
	add	r4, r2, r4
	ldr	r2, [fp, #-76]
	cmp	r2, r4
	rsble	r4, r2, r4
.L818:
	ldr	r2, [fp, #-56]
	add	r0, r5, #11141120
	add	r0, r0, #16384
	ldr	r1, [fp, #-64]
	cmp	r2, #0
	ldr	r2, [fp, #-80]
	add	r3, r3, r2
	movwne	r2, #5722
	add	r3, r3, r4
	movweq	r2, #5730
	movt	r2, 41
	add	r2, r3, r2
	add	r2, r5, r2, lsl #2
	ldr	r3, [r2, #4]
	sub	r2, fp, #48
	str	r10, [sp, #4]
	ldr	ip, [r0, #1140]
	mov	r0, r5
	str	ip, [sp]
	bl	mvc_reorder_interview
.L805:
	ldr	r3, [fp, #-72]
	add	r6, r6, #1
	cmp	r6, r3
	beq	.L792
	ldr	r2, [r9, #4]!
	add	r7, r7, #4
	add	r8, r8, #4
	cmp	r2, #3
	beq	.L792
.L800:
	cmp	r2, #1
	bhi	.L801
	cmp	r2, #0
	ldr	r3, [r8]
	bne	.L802
	ldr	r2, [fp, #-60]
	mvn	r3, r3
	adds	r3, r2, r3
	str	r3, [fp, #-60]
	bmi	.L845
.L803:
	ldr	r2, [fp, #-60]
	mov	r1, r10
	ldr	r3, [fp, #-92]
	mov	r0, r5
	cmp	r3, r2
	movlt	r3, r2
	ldrlt	r2, [fp, #-88]
	ldrge	r3, [fp, #-60]
	rsblt	r3, r2, r3
	ldr	r2, [fp, #-68]
	ldr	ip, [r2, #2800]
	sub	r2, fp, #48
	str	r2, [sp]
	ldr	r2, [fp, #-64]
	str	ip, [sp, #4]
	bl	MVC_ReorderSTList
	b	.L805
.L842:
	movw	r1, #41072
	movw	r8, #41336
	movw	r2, #41600
	movw	r7, #41856
	movt	r1, 169
	movt	r8, 169
	movt	r2, 169
	movt	r7, 169
	add	r2, r5, r2
	add	r1, r5, r1
	add	r8, r5, r8
	str	r2, [fp, #-100]
	add	r7, r5, r7
	b	.L796
.L844:
	mvn	r2, r2
	adds	r4, r2, r4
	ldrmi	r2, [fp, #-76]
	addmi	r4, r4, r2
	b	.L818
.L807:
	add	r3, r5, #10747904
	ldr	r1, [fp, #-68]
	add	r3, r3, #20480
	ldr	ip, [r3, #2384]
	ldr	r1, [r1, #2800]
	adds	ip, ip, #1
	beq	.L809
	ldr	r3, [r3, #2388]
	cmp	r1, r3
	beq	.L810
	ldr	r0, [fp, #-96]
	mov	r3, #0
	str	ip, [fp, #-80]
	b	.L811
.L813:
	ldr	lr, [r0, #4]!
	cmp	r1, lr
	beq	.L827
.L811:
	add	r3, r3, #1
	cmp	r3, ip
	bne	.L813
.L812:
	ldr	r3, [fp, #-68]
	mov	r4, ip
	ldr	r0, [fp, #-96]
	ldrb	r3, [r3, #1169]	@ zero_extendqisi2
	str	r3, [fp, #-56]
	mov	r3, #0
	b	.L823
.L815:
	ldr	lr, [r0, #4]!
	cmp	r1, lr
	beq	.L828
.L823:
	add	r3, r3, #1
	cmp	r3, ip
	bne	.L815
	cmp	r4, #0
	blt	.L829
.L822:
	ldr	r3, [fp, #-56]
	cmp	r3, #0
	mov	r3, r10, asl #1
	beq	.L816
	add	r4, r3, r4
	movw	r1, #5718
	movt	r1, 41
	add	r1, r4, r1
	mov	r0, #0
	str	r0, [fp, #-84]
	add	r1, r5, r1, lsl #2
	mvn	r4, #0
	ldr	r1, [r1, #4]
	str	r1, [fp, #-76]
	b	.L808
.L802:
	ldr	r2, [fp, #-60]
	add	r3, r3, #1
	add	r3, r2, r3
	ldr	r2, [fp, #-88]
	str	r3, [fp, #-60]
	cmp	r2, r3
	rsble	r3, r2, r3
	strle	r3, [fp, #-60]
	b	.L803
.L843:
	ldr	r1, [fp, #-68]
	sub	r0, fp, #48
	ldr	r3, [fp, #-100]
	ldr	r2, [fp, #-64]
	ldr	ip, [r1, #2800]
	mov	r1, r10
	ldr	r3, [r3, r6, asl #2]
	str	r0, [sp]
	mov	r0, r5
	str	ip, [sp, #4]
	bl	MVC_ReorderLTList
	b	.L805
.L827:
	str	r3, [fp, #-80]
	b	.L812
.L828:
	mov	r4, r3
	cmp	r4, #0
	bge	.L822
.L829:
	mov	r3, #0
	mvn	r4, #0
	mov	r1, r3
	str	r3, [fp, #-84]
	str	r1, [fp, #-76]
	mov	r3, r10, asl #1
	b	.L808
.L816:
	add	r4, r3, r4
	movw	r1, #5726
	movt	r1, 41
	add	r1, r4, r1
	ldr	r0, [fp, #-56]
	mvn	r4, #0
	add	r1, r5, r1, lsl #2
	str	r0, [fp, #-84]
	ldr	r1, [r1, #4]
	str	r1, [fp, #-76]
	b	.L808
.L845:
	ldr	r2, [fp, #-88]
	add	r3, r3, r2
	str	r3, [fp, #-60]
	b	.L803
.L809:
	ldr	r3, [fp, #-68]
	mov	r4, ip
	str	ip, [fp, #-80]
	ldrb	r3, [r3, #1169]	@ zero_extendqisi2
	str	r3, [fp, #-56]
	b	.L822
.L810:
	ldr	r1, [fp, #-68]
	mov	r3, #0
	mov	r4, r3
	str	r3, [fp, #-80]
	ldrb	r1, [r1, #1169]	@ zero_extendqisi2
	str	r1, [fp, #-56]
	b	.L822
	UNWIND(.fnend)
	.size	MVC_ReorderRefPiclist, .-MVC_ReorderRefPiclist
	.align	2
	.global	MVC_ReorderListX
	.type	MVC_ReorderListX, %function
MVC_ReorderListX:
	UNWIND(.fnstart)
	@ args = 0, pretend = 0, frame = 0
	@ frame_needed = 1, uses_anonymous_args = 0
	UNWIND(.movsp ip)
	mov	ip, sp
	stmfd	sp!, {r4, r5, r6, r7, fp, ip, lr, pc}
	UNWIND(.pad #4)
	UNWIND(.save {r4, r5, r6, r7, fp, ip, lr})
	UNWIND(.setfp fp, ip, #-4)
	sub	fp, ip, #4
	add	r5, r0, #11075584
	mov	r6, r0
	add	r4, r5, #40960
	ldrb	r1, [r4, #1160]	@ zero_extendqisi2
	cmp	r1, #2
	ldmeqfd	sp, {r4, r5, r6, r7, fp, sp, pc}
	ldrb	r3, [r4, #108]	@ zero_extendqisi2
	cmp	r3, #0
	bne	.L858
.L849:
	ldr	r3, [r4, #1220]
	cmp	r1, #1
	add	r3, r3, #1
	str	r3, [r4, #1208]
	ldmnefd	sp, {r4, r5, r6, r7, fp, sp, pc}
	ldrb	r3, [r4, #109]	@ zero_extendqisi2
	cmp	r3, #0
	bne	.L859
.L851:
	add	r5, r5, #40960
	ldr	r3, [r5, #1224]
	add	r3, r3, #1
	str	r3, [r5, #1212]
	ldmfd	sp, {r4, r5, r6, r7, fp, sp, pc}
.L858:
	mov	r1, #0
	ldr	r2, [r4, #1220]
	bl	MVC_ReorderRefPiclist
	ldrb	r1, [r4, #1160]	@ zero_extendqisi2
	b	.L849
.L859:
	ldr	r2, [r4, #1224]
	mov	r0, r6
	bl	MVC_ReorderRefPiclist
	b	.L851
	UNWIND(.fnend)
	.size	MVC_ReorderListX, .-MVC_ReorderListX
	.align	2
	.global	MVC_GenPiclistfromFrmlist
	.type	MVC_GenPiclistfromFrmlist, %function
MVC_GenPiclistfromFrmlist:
	UNWIND(.fnstart)
	@ args = 8, pretend = 0, frame = 8
	@ frame_needed = 1, uses_anonymous_args = 0
	UNWIND(.movsp ip)
	mov	ip, sp
	stmfd	sp!, {r4, r5, r6, r7, r8, r9, r10, fp, ip, lr, pc}
	UNWIND(.pad #4)
	UNWIND(.save {r4, r5, r6, r7, r8, r9, r10, fp, ip, lr})
	UNWIND(.setfp fp, ip, #-4)
	sub	fp, ip, #4
	UNWIND(.pad #12)
	sub	sp, sp, #12
	cmp	r2, #31
	ldr	r6, [fp, #8]
	mov	r7, r1
	ldr	lr, .L923
	movcc	r4, r2
	ldr	ip, .L923+4
	movcs	r4, #31
	cmp	r6, #0
	str	r3, [fp, #-52]
	movne	r6, lr
	moveq	r6, ip
	cmp	r0, #1
	moveq	r5, #0
	moveq	r10, r5
	beq	.L863
	cmp	r0, #2
	moveq	r5, #0
	moveq	r10, r5
	bne	.L871
.L872:
	cmp	r10, r4
	movcs	r3, #0
	movcc	r3, #1
	cmp	r5, r4
	str	r3, [fp, #-48]
	movcs	r2, #0
	movcc	r2, #1
	orrs	r3, r2, r3
	beq	.L871
	cmp	r2, #0
	beq	.L877
	add	r8, r7, r5, lsl #2
	b	.L876
.L873:
	add	r5, r5, #1
	cmp	r4, r5
	bls	.L877
.L876:
	mov	r9, r8
	ldr	r0, [r8], #4
	ldrb	ip, [r0, #2]	@ zero_extendqisi2
	tst	ip, #2
	beq	.L873
	add	r0, r0, #808
	blx	r6
	cmp	r0, #0
	beq	.L873
	ldr	r3, [fp, #4]
	add	r5, r5, #1
	ldr	r2, [r9]
	ldr	r0, [r3]
	add	r2, r2, #808
	ldr	r3, [fp, #-52]
	str	r2, [r3, r0, asl #2]
	ldr	r3, [fp, #4]
	ldr	r2, [r3]
	add	r2, r2, #1
	str	r2, [r3]
.L877:
	ldr	r3, [fp, #-48]
	cmp	r3, #0
	addne	r8, r7, r10, lsl #2
	bne	.L879
	b	.L872
.L878:
	add	r10, r10, #1
	cmp	r4, r10
	bls	.L872
.L879:
	mov	r9, r8
	ldr	r0, [r8], #4
	ldrb	r2, [r0, #2]	@ zero_extendqisi2
	tst	r2, #1
	beq	.L878
	add	r0, r0, #772
	blx	r6
	cmp	r0, #0
	beq	.L878
	ldr	r3, [fp, #4]
	add	r10, r10, #1
	ldr	r2, [r9]
	ldr	r0, [r3]
	add	r2, r2, #772
	ldr	r3, [fp, #-52]
	str	r2, [r3, r0, asl #2]
	ldr	r3, [fp, #4]
	ldr	r2, [r3]
	add	r2, r2, #1
	str	r2, [r3]
	b	.L872
.L922:
	add	r0, r0, #772
	blx	r6
	cmp	r0, #0
	beq	.L864
	ldr	r3, [fp, #4]
	add	r10, r10, #1
	ldr	r2, [r8]
	ldr	r0, [r3]
	add	r2, r2, #772
	ldr	r3, [fp, #-52]
	str	r2, [r3, r0, asl #2]
	ldr	r3, [fp, #4]
	ldr	r2, [r3]
	add	r2, r2, #1
	str	r2, [r3]
.L868:
	ldr	r3, [fp, #-48]
	cmp	r3, #0
	addne	r8, r7, r5, lsl #2
	bne	.L870
	b	.L863
.L869:
	add	r5, r5, #1
	cmp	r4, r5
	bls	.L863
.L870:
	mov	r9, r8
	ldr	r0, [r8], #4
	ldrb	r2, [r0, #2]	@ zero_extendqisi2
	tst	r2, #2
	beq	.L869
	add	r0, r0, #808
	blx	r6
	cmp	r0, #0
	beq	.L869
	ldr	r3, [fp, #4]
	add	r5, r5, #1
	ldr	r2, [r9]
	ldr	r0, [r3]
	add	r2, r2, #808
	ldr	r3, [fp, #-52]
	str	r2, [r3, r0, asl #2]
	ldr	r3, [fp, #4]
	ldr	r2, [r3]
	add	r2, r2, #1
	str	r2, [r3]
.L863:
	cmp	r10, r4
	movcs	r2, #0
	movcc	r2, #1
	cmp	r5, r4
	movcs	r3, #0
	movcc	r3, #1
	str	r3, [fp, #-48]
	orrs	r3, r3, r2
	beq	.L871
	cmp	r2, #0
	beq	.L868
	add	r9, r7, r10, lsl #2
	b	.L867
.L864:
	add	r10, r10, #1
	cmp	r4, r10
	bls	.L868
.L867:
	mov	r8, r9
	ldr	r0, [r9], #4
	ldrb	ip, [r0, #2]	@ zero_extendqisi2
	tst	ip, #1
	beq	.L864
	b	.L922
.L871:
	mov	r0, #0
	sub	sp, fp, #40
	ldmfd	sp, {r4, r5, r6, r7, r8, r9, r10, fp, sp, pc}
.L924:
	.align	2
.L923:
	.word	MVC_IsLTRefFlg
	.word	MVC_IsSTRefFlg
	UNWIND(.fnend)
	.size	MVC_GenPiclistfromFrmlist, .-MVC_GenPiclistfromFrmlist
	.align	2
	.global	MVC_GetBaseViewId
	.type	MVC_GetBaseViewId, %function
MVC_GetBaseViewId:
	UNWIND(.fnstart)
	@ args = 0, pretend = 0, frame = 0
	@ frame_needed = 1, uses_anonymous_args = 0
	UNWIND(.movsp ip)
	mov	ip, sp
	stmfd	sp!, {fp, ip, lr, pc}
	UNWIND(.pad #4)
	UNWIND(.save {fp, ip, lr})
	UNWIND(.setfp fp, ip, #-4)
	sub	fp, ip, #4
	add	r3, r0, #12992
	mov	r2, #0
	add	r3, r3, #16
.L928:
	ldr	r1, [r3]
	cmp	r1, #0
	beq	.L926
	ldrb	r1, [r3, #-4]	@ zero_extendqisi2
	cmp	r1, #0
	bne	.L936
.L926:
	add	r2, r2, #1
	add	r3, r3, #335872
	cmp	r2, #32
	add	r3, r3, #308
	bne	.L928
	mvn	r0, #0
	ldmfd	sp, {fp, sp, pc}
.L936:
	movw	r3, #8500
	movt	r3, 5
	mla	r2, r3, r2, r0
	add	r2, r2, #12992
	ldr	r0, [r2, #20]
	ldmfd	sp, {fp, sp, pc}
	UNWIND(.fnend)
	.size	MVC_GetBaseViewId, .-MVC_GetBaseViewId
	.align	2
	.global	MVC_GetVOIdx
	.type	MVC_GetVOIdx, %function
MVC_GetVOIdx:
	UNWIND(.fnstart)
	@ args = 0, pretend = 0, frame = 0
	@ frame_needed = 1, uses_anonymous_args = 0
	UNWIND(.movsp ip)
	mov	ip, sp
	stmfd	sp!, {fp, ip, lr, pc}
	UNWIND(.pad #4)
	UNWIND(.save {fp, ip, lr})
	UNWIND(.setfp fp, ip, #-4)
	sub	fp, ip, #4
	cmp	r1, #0
	beq	.L941
	ldr	r3, [r0]
	cmp	r3, r2
	beq	.L942
	mov	ip, r0
	mov	r3, #0
	mov	r0, r1
	b	.L939
.L940:
	ldr	lr, [ip, #4]!
	cmp	lr, r2
	beq	.L943
.L939:
	add	r3, r3, #1
	cmp	r3, r1
	bne	.L940
	ldmfd	sp, {fp, sp, pc}
.L943:
	mov	r0, r3
	ldmfd	sp, {fp, sp, pc}
.L941:
	mov	r0, r1
	ldmfd	sp, {fp, sp, pc}
.L942:
	mov	r0, #0
	ldmfd	sp, {fp, sp, pc}
	UNWIND(.fnend)
	.size	MVC_GetVOIdx, .-MVC_GetVOIdx
	.align	2
	.global	MVC_is_view_id_in_ref_view_list
	.type	MVC_is_view_id_in_ref_view_list, %function
MVC_is_view_id_in_ref_view_list:
	UNWIND(.fnstart)
	@ args = 0, pretend = 0, frame = 0
	@ frame_needed = 1, uses_anonymous_args = 0
	UNWIND(.movsp ip)
	mov	ip, sp
	stmfd	sp!, {fp, ip, lr, pc}
	UNWIND(.pad #4)
	UNWIND(.save {fp, ip, lr})
	UNWIND(.setfp fp, ip, #-4)
	sub	fp, ip, #4
	cmp	r2, #0
	beq	.L948
	ldr	r3, [r1]
	cmp	r3, r0
	beq	.L949
	mov	r3, #0
	b	.L946
.L947:
	ldr	ip, [r1, #4]!
	cmp	ip, r0
	beq	.L945
.L946:
	add	r3, r3, #1
	cmp	r3, r2
	mov	lr, r3
	bne	.L947
.L945:
	cmp	r2, #0
	cmpne	r2, lr
	movhi	r0, #1
	movls	r0, #0
	ldmfd	sp, {fp, sp, pc}
.L948:
	mov	lr, r2
	b	.L945
.L949:
	mov	lr, #0
	b	.L945
	UNWIND(.fnend)
	.size	MVC_is_view_id_in_ref_view_list, .-MVC_is_view_id_in_ref_view_list
	.align	2
	.global	MVC_GenPiclistfromFrmlist_Interview
	.type	MVC_GenPiclistfromFrmlist_Interview, %function
MVC_GenPiclistfromFrmlist_Interview:
	UNWIND(.fnstart)
	@ args = 4, pretend = 0, frame = 0
	@ frame_needed = 1, uses_anonymous_args = 0
	UNWIND(.movsp ip)
	mov	ip, sp
	stmfd	sp!, {fp, ip, lr, pc}
	UNWIND(.pad #4)
	UNWIND(.save {fp, ip, lr})
	UNWIND(.setfp fp, ip, #-4)
	sub	fp, ip, #4
	cmp	r0, #1
	ldr	ip, [fp, #4]
	beq	.L966
	cmp	r0, #2
	ldmnefd	sp, {fp, sp, pc}
	cmp	r2, #0
	ldmeqfd	sp, {fp, sp, pc}
	ldr	r0, [ip]
	add	r1, r1, #808
	mov	lr, #0
.L957:
	add	lr, lr, #1
	str	r1, [r3, r0, asl #2]
	cmp	lr, r2
	ldr	r0, [ip]
	add	r1, r1, #848
	add	r0, r0, #1
	str	r0, [ip]
	bne	.L957
	ldmfd	sp, {fp, sp, pc}
.L966:
	cmp	r2, #0
	ldmeqfd	sp, {fp, sp, pc}
	ldr	r0, [ip]
	add	r1, r1, #772
	mov	lr, #0
.L953:
	add	lr, lr, #1
	str	r1, [r3, r0, asl #2]
	cmp	lr, r2
	ldr	r0, [ip]
	add	r1, r1, #848
	add	r0, r0, #1
	str	r0, [ip]
	bne	.L953
	ldmfd	sp, {fp, sp, pc}
	UNWIND(.fnend)
	.size	MVC_GenPiclistfromFrmlist_Interview, .-MVC_GenPiclistfromFrmlist_Interview
	.align	2
	.global	mvc_append_interview_list
	.type	mvc_append_interview_list, %function
mvc_append_interview_list:
	UNWIND(.fnstart)
	@ args = 0, pretend = 0, frame = 8
	@ frame_needed = 1, uses_anonymous_args = 0
	UNWIND(.movsp ip)
	mov	ip, sp
	stmfd	sp!, {r4, r5, r6, r7, r8, r9, r10, fp, ip, lr, pc}
	UNWIND(.pad #4)
	UNWIND(.save {r4, r5, r6, r7, r8, r9, r10, fp, ip, lr})
	UNWIND(.setfp fp, ip, #-4)
	sub	fp, ip, #4
	UNWIND(.pad #12)
	sub	sp, sp, #12
	add	lr, r0, #10747904
	add	lr, lr, #20480
	add	ip, r0, #11075584
	add	r5, ip, #40960
	mov	r9, r0
	ldr	r6, [lr, #2384]
	movw	r0, #22868
	movt	r0, 164
	str	r2, [fp, #-48]
	adds	r6, r6, #1
	ldr	r7, [r5, #2800]
	add	r0, r9, r0
	beq	.L986
	ldr	r2, [lr, #2388]
	cmp	r7, r2
	beq	.L987
	mov	r2, #0
	b	.L969
.L970:
	ldr	lr, [r0, #4]!
	cmp	r7, lr
	beq	.L968
.L969:
	add	r2, r2, #1
	cmp	r2, r6
	mov	r4, r2
	bne	.L970
.L968:
	ldrb	r2, [r5, #1169]	@ zero_extendqisi2
	add	r4, r4, r1, lsl #1
	add	r6, r9, #11141120
	add	ip, ip, #45056
	cmp	r2, #0
	add	r6, r6, #16384
	movwne	r2, #5718
	movweq	r2, #5726
	movtne	r2, 41
	movteq	r2, 41
	addne	r2, r4, r2
	addeq	r2, r4, r2
	ldrb	r8, [r6, #443]	@ zero_extendqisi2
	addne	r4, r9, r4, lsl #2
	add	r2, r9, r2, lsl #2
	movwne	r10, #22892
	addeq	r4, r9, r4, lsl #2
	movweq	r10, #22924
	ldr	r7, [r2, #4]
	sub	r8, r8, #2
	ldr	r2, [ip, #3016]
	movt	r10, 164
	clz	r8, r8
	add	r10, r4, r10
	subs	r4, r2, #1
	mov	r8, r8, lsr #5
	bmi	.L967
	movw	r5, #28354
	movt	r5, 42
	add	r5, r2, r5
	mov	r2, r3
	mov	r3, r9
	add	r5, r9, r5, lsl #2
	mov	r9, r2
	b	.L984
.L1010:
	ldrb	r2, [r1, #2]	@ zero_extendqisi2
	cmp	r2, #3
	ldreq	r0, [r1, #756]
	bne	.L974
.L976:
	add	r2, r1, r8
	ldrb	r2, [r2, #12]	@ zero_extendqisi2
	cmp	r2, #0
	beq	.L974
	ldr	r2, [r6, #1140]
	cmp	r2, r0
	beq	.L1009
.L974:
	subs	r4, r4, #1
	bmi	.L967
.L984:
	ldr	r1, [r5, #-4]!
	cmp	r1, #0
	beq	.L974
	ldrb	r2, [r6, #443]	@ zero_extendqisi2
	cmp	r2, #0
	beq	.L1010
	cmp	r2, #1
	beq	.L1011
	cmp	r2, #2
	bne	.L974
	ldrb	r0, [r6, #441]	@ zero_extendqisi2
	ldrb	r2, [r1, #2]	@ zero_extendqisi2
	cmp	r0, #0
	ubfx	r2, r2, #1, #1
	beq	.L979
	ldr	r0, [r6, #1120]
	ldr	ip, [r1, #792]
	ldr	r0, [r0, #792]
	cmp	ip, r0
	movne	r2, #0
	andeq	r2, r2, #1
.L979:
	cmp	r2, #0
	ldrne	r0, [r1, #828]
	bne	.L976
	subs	r4, r4, #1
	bpl	.L984
.L967:
	sub	sp, fp, #40
	ldmfd	sp, {r4, r5, r6, r7, r8, r9, r10, fp, sp, pc}
.L1011:
	ldrb	r0, [r6, #441]	@ zero_extendqisi2
	ldrb	r2, [r1, #2]	@ zero_extendqisi2
	cmp	r0, #0
	and	r2, r2, #1
	beq	.L978
	ldr	r0, [r6, #1120]
	ldr	ip, [r1, #828]
	ldr	r0, [r0, #828]
	cmp	ip, r0
	movne	r2, #0
	andeq	r2, r2, #1
.L978:
	cmp	r2, #0
	ldrne	r0, [r1, #792]
	bne	.L976
	b	.L974
.L1009:
	cmp	r7, #0
	ldr	lr, [r1, #56]
	beq	.L974
	ldr	r2, [r10]
	cmp	lr, r2
	beq	.L980
	mov	r0, r10
	mov	r2, #0
.L981:
	add	r2, r2, #1
	cmp	r2, r7
	beq	.L974
	ldr	ip, [r0, #4]!
	cmp	lr, ip
	bne	.L981
.L980:
	str	r3, [fp, #-52]
	mov	r2, #848
	ldr	r3, .L1012
	ldr	r0, [r9]
	ldr	ip, [r3, #52]
	ldr	r3, [fp, #-48]
	mla	r0, r2, r0, r3
	blx	ip
	ldr	r2, [r9]
	ldr	r0, [fp, #-48]
	mov	r1, #848
	mov	ip, #848
	ldr	r3, [fp, #-52]
	mla	r2, r1, r2, r0
	str	r2, [r2, #812]
	str	r2, [r2, #776]
	str	r2, [r2, #740]
	ldr	r2, [r9]
	ldr	r1, [r3, #52]
	mla	r2, ip, r2, r0
	sub	r1, r1, #1
	str	r1, [r2, #48]
	ldr	r2, [r9]
	cmp	r2, r7
	beq	.L967
	add	r2, r2, #1
	str	r2, [r9]
	b	.L974
.L986:
	mov	r4, r6
	b	.L968
.L987:
	mov	r4, #0
	b	.L968
.L1013:
	.align	2
.L1012:
	.word	vfmw_Osal_Func_Ptr_S
	UNWIND(.fnend)
	.size	mvc_append_interview_list, .-mvc_append_interview_list
	.align	2
	.global	MVC_InitListX
	.type	MVC_InitListX, %function
MVC_InitListX:
	UNWIND(.fnstart)
	@ args = 0, pretend = 0, frame = 216
	@ frame_needed = 1, uses_anonymous_args = 0
	UNWIND(.movsp ip)
	mov	ip, sp
	stmfd	sp!, {r4, r5, r6, r7, r8, r9, r10, fp, ip, lr, pc}
	UNWIND(.pad #4)
	UNWIND(.save {r4, r5, r6, r7, r8, r9, r10, fp, ip, lr})
	UNWIND(.setfp fp, ip, #-4)
	sub	fp, ip, #4
	UNWIND(.pad #228)
	sub	sp, sp, #228
	add	r3, r0, #11075584
	add	r4, r3, #40960
	add	r6, r0, #11141120
	str	r3, [fp, #-244]
	add	r6, r6, #16384
	ldrb	r9, [r4, #1160]	@ zero_extendqisi2
	mov	r3, #0
	mov	r5, r0
	str	r3, [r4, #2812]
	cmp	r9, r3
	str	r3, [r4, #2808]
	ldrb	r7, [r6, #443]	@ zero_extendqisi2
	bne	.L1015
	cmp	r7, r3
	ldr	r3, [fp, #-244]
	add	r3, r3, #45056
	str	r3, [fp, #-240]
	bne	.L1173
	ldr	ip, [r3, #3024]
	cmp	ip, #0
	beq	.L1099
	movw	r1, #47940
	mov	r3, r7
	movt	r1, 169
	add	r1, r0, r1
	b	.L1021
.L1020:
	cmp	r3, ip
	beq	.L1019
.L1021:
	ldr	r2, [r1, #4]!
	add	r3, r3, #1
	ldrb	r0, [r2, #3]	@ zero_extendqisi2
	cmp	r0, #3
	bne	.L1020
	ldr	r0, [r2, #736]
	bic	r0, r0, #-16777216
	bic	r0, r0, #255
	cmp	r0, #65536
	addeq	r0, r7, #64
	addeq	r2, r2, #736
	addeq	r7, r7, #1
	streq	r2, [r5, r0, asl #2]
	cmp	r3, ip
	bne	.L1021
.L1019:
	add	r3, r5, #256
	mov	r1, r7
	str	r3, [fp, #-248]
	mov	r2, #4
	mov	r0, r3
	ldr	r3, .L1183
	bl	qsort
	ldr	r3, [fp, #-240]
	str	r7, [r4, #1208]
	ldr	r1, [r3, #3028]
	cmp	r1, #0
	beq	.L1100
	movw	r0, #48004
	mov	r8, r7
	movt	r0, 169
	mov	r3, #0
	add	r0, r5, r0
	b	.L1024
.L1023:
	cmp	r3, r1
	beq	.L1174
.L1024:
	ldr	r2, [r0, #4]!
	add	r3, r3, #1
	ldrb	ip, [r2, #3]	@ zero_extendqisi2
	cmp	ip, #3
	bne	.L1023
	ldr	ip, [r2, #736]
	bic	ip, ip, #-16777216
	bic	ip, ip, #255
	cmp	ip, #256
	addeq	ip, r8, #64
	addeq	r2, r2, #736
	addeq	r8, r8, #1
	streq	r2, [r5, ip, asl #2]
	cmp	r3, r1
	bne	.L1024
.L1174:
	rsb	r1, r7, r8
.L1022:
	add	r0, r7, #64
	ldr	r3, .L1183+4
	mov	r2, #4
	add	r0, r5, r0, lsl #2
	bl	qsort
	str	r8, [r4, #1208]
	b	.L1025
.L1015:
	cmp	r7, #0
	beq	.L1042
	ldr	r2, [fp, #-244]
	add	r2, r2, #45056
	str	r2, [fp, #-240]
	ldr	ip, [r2, #3024]
	cmp	ip, #0
	beq	.L1175
	movw	r8, #47940
	mov	r7, r3
	movt	r8, 169
	add	r8, r0, r8
	mov	r1, r8
.L1061:
	ldr	r2, [r1, #4]!
	add	r3, r3, #1
	ldrb	r0, [r2, #2]	@ zero_extendqisi2
	cmp	r0, #0
	beq	.L1060
	sub	r0, fp, #44
	ldr	lr, [r6, #1140]
	add	r9, r0, r7, lsl #2
	ldr	r0, [r2, #32]
	cmp	lr, r0
	strge	r2, [r9, #-192]
	addge	r7, r7, #1
.L1060:
	cmp	r3, ip
	bne	.L1061
	sub	r9, fp, #236
	ldr	r3, .L1183+8
	mov	r2, #4
	mov	r1, r7
	mov	r0, r9
	bl	qsort
	ldr	r3, [fp, #-240]
	ldr	r10, [r3, #3024]
	cmp	r10, #0
	beq	.L1170
.L1097:
	mov	r3, r8
	mov	r2, #0
	mov	r8, r7
.L1064:
	ldr	r1, [r3, #4]!
	add	r2, r2, #1
	ldrb	r0, [r1, #2]	@ zero_extendqisi2
	cmp	r0, #0
	beq	.L1063
	sub	r0, fp, #44
	ldr	ip, [r6, #1140]
	add	lr, r0, r8, lsl #2
	ldr	r0, [r1, #32]
	cmp	ip, r0
	strlt	r1, [lr, #-192]
	addlt	r8, r8, #1
.L1063:
	cmp	r2, r10
	bne	.L1064
	rsb	r10, r7, r8
	mov	ip, r7, asl #2
	ldr	r3, .L1183+12
	add	r0, r9, ip
	mov	r1, r10
	mov	r2, #4
	str	ip, [fp, #-248]
	bl	qsort
	cmp	r7, #0
	ldr	ip, [fp, #-248]
	subeq	r3, fp, #172
	streq	r3, [fp, #-252]
	beq	.L1065
.L1092:
	sub	r3, fp, #172
	mov	r2, r9
	str	r3, [fp, #-252]
	add	r10, r3, r10, lsl #2
	mov	r3, #0
.L1066:
	add	r3, r3, #1
	ldr	r1, [r2], #4
	cmp	r3, r7
	str	r1, [r10], #4
	bcc	.L1066
.L1065:
	cmp	r8, r7
	bls	.L1067
	ldr	r3, [fp, #-252]
	add	ip, r9, ip
.L1068:
	add	r7, r7, #1
	ldr	r2, [ip], #4
	cmp	r7, r8
	str	r2, [r3], #4
	bne	.L1068
.L1067:
	movw	ip, #42168
	mov	r7, #0
	add	r3, r5, #256
	str	r7, [r4, #1208]
	str	r7, [r4, #1212]
	mov	r1, r9
	ldrb	r0, [r6, #443]	@ zero_extendqisi2
	mov	r2, r8
	str	r7, [sp, #4]
	movt	ip, 169
	movw	r10, #42172
	add	ip, r5, ip
	str	ip, [sp]
	movt	r10, 169
	str	ip, [fp, #-260]
	add	r10, r5, r10
	str	r3, [fp, #-248]
	bl	MVC_GenPiclistfromFrmlist
	ldrb	r0, [r6, #443]	@ zero_extendqisi2
	add	r3, r5, #388
	mov	r2, r8
	str	r7, [sp, #4]
	ldr	r1, [fp, #-252]
	str	r10, [sp]
	str	r3, [fp, #-256]
	bl	MVC_GenPiclistfromFrmlist
	ldr	r3, [fp, #-240]
	ldr	ip, [fp, #-260]
	ldr	r8, [r3, #3028]
	cmp	r8, r7
	subeq	r9, fp, #108
	beq	.L1069
	movw	r3, #48004
	sub	r9, fp, #108
	movt	r3, 169
	add	r3, r5, r3
	mov	r2, r9
.L1070:
	add	r7, r7, #1
	ldr	r1, [r3, #4]!
	cmp	r7, r8
	str	r1, [r2], #4
	bne	.L1070
.L1069:
	ldr	r3, .L1183+16
	mov	r2, #4
	mov	r1, r8
	mov	r0, r9
	str	ip, [fp, #-240]
	bl	qsort
	ldr	ip, [fp, #-240]
	mov	r7, #1
	ldrb	r0, [r6, #443]	@ zero_extendqisi2
	mov	r2, r8
	ldr	r3, [fp, #-248]
	mov	r1, r9
	str	ip, [sp]
	str	r7, [sp, #4]
	bl	MVC_GenPiclistfromFrmlist
	ldrb	r0, [r6, #443]	@ zero_extendqisi2
	ldr	r3, [fp, #-256]
	mov	r2, r8
	str	r7, [sp, #4]
	mov	r1, r9
	str	r10, [sp]
	bl	MVC_GenPiclistfromFrmlist
	ldr	r7, [r4, #1208]
	ldr	r3, [r4, #1212]
	rsb	r3, r3, r7
	clz	r3, r3
	mov	r3, r3, lsr #5
.L1059:
	cmp	r7, #1
	movls	r3, #0
	andhi	r3, r3, #1
	cmp	r3, #0
	beq	.L1071
	cmp	r7, #0
	beq	.L1072
	ldr	lr, [r5, #256]
	ldr	r3, [r5, #388]
	cmp	lr, r3
	bne	.L1071
	ldr	r1, [fp, #-248]
	add	r2, r5, #388
	mov	r3, #0
	b	.L1073
.L1074:
	ldr	ip, [r1, #4]!
	ldr	r0, [r2, #4]!
	cmp	ip, r0
	bne	.L1071
.L1073:
	add	r3, r3, #1
	cmp	r3, r7
	bne	.L1074
.L1075:
	ldr	r3, [r5, #392]
	str	lr, [r5, #392]
	str	r3, [r5, #388]
	ldrb	r3, [r4, #1172]	@ zero_extendqisi2
.L1093:
	cmp	r3, #0
	bne	.L1162
.L1076:
	movw	r7, #31360
	movw	r3, #43768
	movt	r7, 169
	add	r7, r5, r7
	mov	r0, r5
	movt	r3, 169
	mov	r1, #0
	mov	r2, r7
	add	r3, r5, r3
	bl	mvc_append_interview_list
	ldrb	r0, [r6, #443]	@ zero_extendqisi2
	cmp	r0, #0
	bne	.L1176
	ldr	r1, [r4, #2808]
	ldr	ip, [r4, #1208]
	cmp	r1, #0
	beq	.L1078
	add	r2, ip, #63
	movw	r3, #32096
	movt	r3, 169
	add	r3, r5, r3
	add	r2, r5, r2, lsl #2
.L1079:
	add	r0, r0, #1
	str	r3, [r2, #4]!
	cmp	r0, r1
	add	r3, r3, #848
	bne	.L1079
	add	ip, ip, r0
.L1078:
	str	ip, [r4, #1208]
.L1080:
	ldrb	r1, [r4, #1160]	@ zero_extendqisi2
	cmp	r1, #1
	beq	.L1177
.L1163:
	ldr	r0, [r4, #1208]
.L1077:
	cmp	r1, #0
	bne	.L1035
	cmp	r0, #0
	ldreq	r1, .L1183+20
	beq	.L1164
.L1034:
	ldr	r2, [r4, #1220]
	ldr	r3, [r4, #1224]
	add	r2, r2, #1
	ldr	r1, [r4, #1212]
	cmp	r0, r2
	add	r3, r3, #1
	movcc	r2, r0
	cmp	r3, r1
	str	r2, [r4, #1208]
	movcs	r3, r1
	cmp	r2, #32
	str	r3, [r4, #1212]
	bhi	.L1086
.L1094:
	add	r1, r2, #63
	mov	r0, #0
	add	r1, r5, r1, lsl #2
.L1087:
	add	r2, r2, #1
	str	r0, [r1, #4]!
	cmp	r2, #32
	bls	.L1087
.L1086:
	cmp	r3, #32
	bhi	.L1090
	add	r3, r3, #96
	add	r1, r5, #516
	mov	r2, #0
	add	r5, r5, r3, lsl #2
.L1089:
	str	r2, [r5, #4]!
	cmp	r5, r1
	bne	.L1089
.L1090:
	mov	r0, #0
.L1156:
	sub	sp, fp, #40
	ldmfd	sp, {r4, r5, r6, r7, r8, r9, r10, fp, sp, pc}
.L1042:
	ldr	r3, [fp, #-244]
	add	r3, r3, #45056
	str	r3, [fp, #-240]
	ldr	r10, [r3, #3024]
	cmp	r10, #0
	beq	.L1045
	movw	r8, #47940
	mov	r3, r7
	movt	r8, 169
	add	r8, r0, r8
	mov	r1, r8
	b	.L1047
.L1046:
	cmp	r3, r10
	beq	.L1178
.L1047:
	ldr	r2, [r1, #4]!
	add	r3, r3, #1
	ldrb	r0, [r2, #3]	@ zero_extendqisi2
	cmp	r0, #3
	bne	.L1046
	ldr	r0, [r2, #752]
	add	lr, r7, #64
	ldr	ip, [r6, #1144]
	add	r2, r2, #736
	cmp	ip, r0
	strge	r2, [r5, lr, asl #2]
	addge	r7, r7, #1
	cmp	r3, r10
	bne	.L1047
.L1178:
	add	r3, r5, #256
	mov	r2, #4
	str	r3, [fp, #-248]
	mov	r1, r7
	mov	r0, r3
	ldr	r3, .L1183+24
	bl	qsort
	ldr	r3, [fp, #-240]
	ldr	r9, [r3, #3024]
	cmp	r9, #0
	beq	.L1169
.L1095:
	mov	r10, r7
	mov	r3, #0
	b	.L1050
.L1049:
	cmp	r3, r9
	beq	.L1179
.L1050:
	ldr	r2, [r8, #4]!
	add	r3, r3, #1
	ldrb	r1, [r2, #3]	@ zero_extendqisi2
	cmp	r1, #3
	bne	.L1049
	ldr	r1, [r2, #752]
	add	ip, r10, #64
	ldr	r0, [r6, #1144]
	add	r2, r2, #736
	cmp	r0, r1
	strlt	r2, [r5, ip, asl #2]
	addlt	r10, r10, #1
	cmp	r3, r9
	bne	.L1050
.L1179:
	rsb	r9, r7, r10
	add	r0, r7, #64
	ldr	r3, .L1183+28
	mov	r2, #4
	mov	r1, r9
	add	r0, r5, r0, lsl #2
	bl	qsort
	add	r8, r10, #64
	cmp	r7, #0
	add	r8, r5, r8, lsl #2
	beq	.L1052
.L1091:
	add	r9, r9, #96
	add	r2, r5, #252
	mov	r3, #0
	add	r9, r5, r9, lsl #2
.L1053:
	add	r3, r3, #1
	ldr	r1, [r2, #4]!
	cmp	r3, r7
	str	r1, [r9, #4]!
	bcc	.L1053
.L1052:
	cmp	r10, r7
	bls	.L1054
	add	r3, r7, #63
	add	r2, r5, #384
	add	r3, r5, r3, lsl #2
.L1055:
	add	r7, r7, #1
	ldr	r1, [r3, #4]!
	cmp	r7, r10
	str	r1, [r2, #4]!
	bne	.L1055
.L1054:
	ldr	r3, [fp, #-240]
	str	r10, [r4, #1212]
	str	r10, [r4, #1208]
	ldr	r1, [r3, #3028]
	cmp	r1, #0
	beq	.L1101
	movw	r0, #48004
	mov	r7, r10
	movt	r0, 169
	mov	r3, #0
	add	r0, r5, r0
	b	.L1058
.L1057:
	cmp	r3, r1
	beq	.L1180
.L1058:
	ldr	r2, [r0, #4]!
	add	r3, r3, #1
	ldrb	ip, [r2, #2]	@ zero_extendqisi2
	cmp	ip, #3
	bne	.L1057
	ldrb	ip, [r2, #737]	@ zero_extendqisi2
	cmp	ip, #1
	addeq	ip, r5, r7, lsl #2
	addeq	r2, r2, #736
	addeq	r7, r7, #1
	streq	r2, [ip, #256]
	streq	r2, [ip, #388]
	cmp	r3, r1
	bne	.L1058
.L1180:
	rsb	r1, r10, r7
.L1056:
	mov	r0, r8
	ldr	r3, .L1183+4
	mov	r2, #4
	bl	qsort
	ldr	r1, [r4, #1208]
	ldr	r3, .L1183+4
	mov	r2, #4
	add	r0, r1, #97
	rsb	r1, r1, r7
	add	r0, r5, r0, lsl #2
	bl	qsort
	str	r7, [r4, #1212]
	str	r7, [r4, #1208]
	mov	r3, #1
	b	.L1059
.L1173:
	ldr	lr, [r3, #3024]
	cmp	lr, #0
	moveq	r9, lr
	beq	.L1018
	movw	r1, #47940
	mov	r3, r9
	movt	r1, 169
	add	r1, r0, r1
.L1027:
	ldr	r2, [r1, #4]!
	sub	r0, fp, #44
	add	ip, r0, r9, lsl #2
	add	r3, r3, #1
	ldrb	r0, [r2, #3]	@ zero_extendqisi2
	cmp	r0, #0
	strne	r2, [ip, #-192]
	addne	r9, r9, #1
	cmp	r3, lr
	bne	.L1027
.L1018:
	mov	r1, r9
	ldr	r3, .L1183+32
	mov	r2, #4
	sub	r0, fp, #236
	movw	r8, #42168
	bl	qsort
	mov	r7, #0
	add	r3, r5, #256
	str	r7, [r4, #1208]
	mov	r2, r9
	ldrb	r0, [r6, #443]	@ zero_extendqisi2
	sub	r1, fp, #236
	str	r7, [sp, #4]
	movt	r8, 169
	add	r8, r5, r8
	str	r8, [sp]
	str	r3, [fp, #-248]
	bl	MVC_GenPiclistfromFrmlist
	ldr	r3, [fp, #-240]
	ldr	r10, [r3, #3028]
	cmp	r10, r7
	subeq	r9, fp, #108
	beq	.L1028
	movw	r3, #48004
	sub	r9, fp, #108
	movt	r3, 169
	add	r3, r5, r3
	mov	r2, r9
.L1029:
	add	r7, r7, #1
	ldr	r1, [r3, #4]!
	cmp	r7, r10
	str	r1, [r2], #4
	bne	.L1029
.L1028:
	ldr	r3, .L1183+16
	mov	r2, #4
	mov	r1, r10
	mov	r0, r9
	bl	qsort
	ldrb	r0, [r6, #443]	@ zero_extendqisi2
	mov	r3, #1
	str	r8, [sp]
	str	r3, [sp, #4]
	mov	r2, r10
	mov	r1, r9
	ldr	r3, [fp, #-248]
	bl	MVC_GenPiclistfromFrmlist
.L1025:
	ldrb	r3, [r4, #1172]	@ zero_extendqisi2
	mov	r2, #0
	str	r2, [r4, #1212]
	cmp	r3, r2
	beq	.L1076
	ldr	r0, [r4, #1208]
	cmp	r0, #0
	bne	.L1181
	ldr	r3, [r5, #224]
	ldr	r3, [r3, #12]
	cmp	r3, #2
	bne	.L1036
	ldrb	r3, [r6, #443]	@ zero_extendqisi2
	cmp	r3, #0
	bne	.L1037
	ldr	r3, [r6, #1120]
	add	r3, r3, #736
	str	r3, [r5, #256]
.L1038:
	mov	r3, #1
	str	r3, [r4, #1208]
.L1162:
	ldrb	r1, [r4, #1160]	@ zero_extendqisi2
	b	.L1163
.L1181:
	ldrb	r3, [r4, #1160]	@ zero_extendqisi2
	cmp	r3, #0
	beq	.L1034
.L1035:
	cmp	r0, #0
	bne	.L1034
	ldr	r1, [r4, #1212]
	cmp	r1, #0
	beq	.L1182
	ldr	r3, [r4, #1224]
	mov	r2, r0
	str	r0, [r4, #1208]
	add	r3, r3, #1
	cmp	r3, r1
	movcs	r3, r1
	str	r3, [r4, #1212]
	b	.L1094
.L1071:
	ldrb	r3, [r4, #1172]	@ zero_extendqisi2
	b	.L1093
.L1176:
	movw	ip, #42168
	ldr	r2, [r4, #2808]
	ldr	r3, [fp, #-248]
	mov	r1, r7
	movt	ip, 169
	add	ip, r5, ip
	str	ip, [sp]
	bl	MVC_GenPiclistfromFrmlist_Interview
	b	.L1080
.L1037:
	cmp	r3, #1
	ldr	r3, [r6, #1120]
	addeq	r3, r3, #772
	addne	r3, r3, #808
	str	r3, [r5, #256]
	b	.L1038
.L1072:
	ldr	lr, [r5, #388]
	b	.L1075
.L1177:
	movw	r7, #33056
	movw	r3, #43772
	movt	r7, 169
	add	r7, r5, r7
	mov	r0, r5
	movt	r3, 169
	mov	r2, r7
	add	r3, r5, r3
	bl	mvc_append_interview_list
	ldrb	r0, [r6, #443]	@ zero_extendqisi2
	cmp	r0, #0
	bne	.L1082
	ldr	r1, [r4, #2812]
	ldr	ip, [r4, #1212]
	cmp	r1, #0
	beq	.L1083
	add	r2, ip, #96
	ldr	r3, [fp, #-244]
	add	r2, r5, r2, lsl #2
	add	r3, r3, #33792
.L1084:
	add	r0, r0, #1
	str	r3, [r2, #4]!
	cmp	r0, r1
	add	r3, r3, #848
	bne	.L1084
	add	ip, ip, r0
.L1083:
	str	ip, [r4, #1212]
	ldrb	r1, [r4, #1160]	@ zero_extendqisi2
	ldr	r0, [r4, #1208]
	b	.L1077
.L1170:
	mov	ip, r7, asl #2
	ldr	r3, .L1183+12
	add	r0, r9, ip
	mov	r2, #4
	mov	r1, r10
	str	ip, [fp, #-248]
	bl	qsort
	subs	r8, r7, #0
	ldr	ip, [fp, #-248]
	bne	.L1092
.L1165:
	sub	r3, fp, #172
	str	r3, [fp, #-252]
	b	.L1067
.L1169:
	add	r8, r7, #64
	ldr	r3, .L1183+28
	mov	r2, #4
	mov	r1, r9
	add	r8, r5, r8, lsl #2
	mov	r0, r8
	bl	qsort
	subs	r10, r7, #0
	bne	.L1091
	b	.L1054
.L1099:
	mov	r7, ip
	b	.L1019
.L1100:
	mov	r8, r7
	b	.L1022
.L1101:
	mov	r7, r10
	b	.L1056
.L1175:
	sub	r9, fp, #236
	ldr	r3, .L1183+8
	mov	r1, ip
	mov	r2, #4
	mov	r0, r9
	str	ip, [fp, #-248]
	bl	qsort
	ldr	r3, [fp, #-240]
	ldr	ip, [fp, #-248]
	ldr	r10, [r3, #3024]
	cmp	r10, #0
	movwne	r8, #47940
	movne	r7, ip
	movtne	r8, 169
	addne	r8, r5, r8
	bne	.L1097
	ldr	r3, .L1183+12
	mov	r2, #4
	mov	r1, r10
	mov	r0, r9
	mov	r8, r10
	bl	qsort
	b	.L1165
.L1045:
	add	r3, r0, #256
	mov	r2, #4
	str	r3, [fp, #-248]
	mov	r1, r10
	mov	r0, r3
	ldr	r3, .L1183+24
	bl	qsort
	ldr	r3, [fp, #-240]
	ldr	r9, [r3, #3024]
	cmp	r9, #0
	movwne	r8, #47940
	movne	r7, r10
	movtne	r8, 169
	addne	r8, r5, r8
	bne	.L1095
	ldr	r8, [fp, #-248]
	mov	r2, #4
	ldr	r3, .L1183+28
	mov	r1, r9
	mov	r10, r9
	mov	r0, r8
	bl	qsort
	b	.L1054
.L1182:
	ldr	r1, .L1183+36
.L1164:
	mov	r0, #1
	bl	dprint_vfmw
	mov	r0, r5
	bl	MVC_ClearCurrSlice
	mvn	r0, #0
	b	.L1156
.L1082:
	movw	ip, #42172
	ldr	r2, [r4, #2812]
	mov	r1, r7
	movt	ip, 169
	add	r3, r5, #388
	add	ip, r5, ip
	str	ip, [sp]
	bl	MVC_GenPiclistfromFrmlist_Interview
	b	.L1162
.L1036:
	ldr	r1, .L1183+40
	b	.L1164
.L1184:
	.align	2
.L1183:
	.word	MVC_compare_pic_by_pic_num_desc
	.word	MVC_compare_pic_by_lt_pic_num_asc
	.word	MVC_compare_fs_by_poc_desc
	.word	MVC_compare_fs_by_poc_asc
	.word	MVC_compare_fs_by_lt_pic_idx_asc
	.word	.LC27
	.word	MVC_compare_pic_by_poc_desc
	.word	MVC_compare_pic_by_poc_asc
	.word	MVC_compare_fs_by_frame_num_desc
	.word	.LC28
	.word	.LC26
	UNWIND(.fnend)
	.size	MVC_InitListX, .-MVC_InitListX
	.align	2
	.global	MVC_DumpList
	.type	MVC_DumpList, %function
MVC_DumpList:
	UNWIND(.fnstart)
	@ args = 0, pretend = 0, frame = 0
	@ frame_needed = 1, uses_anonymous_args = 0
	UNWIND(.movsp ip)
	mov	ip, sp
	stmfd	sp!, {r4, r5, r6, r7, r8, fp, ip, lr, pc}
	UNWIND(.pad #4)
	UNWIND(.save {r4, r5, r6, r7, r8, fp, ip, lr})
	UNWIND(.setfp fp, ip, #-4)
	sub	fp, ip, #4
	UNWIND(.pad #12)
	sub	sp, sp, #12
	ldr	r3, .L1198
	ldr	r3, [r3]
	tst	r3, #8192
	beq	.L1185
	movw	r8, #42164
	add	r7, r0, #252
	movt	r8, 169
	add	r8, r0, r8
	mov	r6, #0
.L1187:
	ldr	r3, [r8, #4]!
	cmp	r3, #0
	movne	r5, r7
	movne	r4, #0
	beq	.L1189
.L1188:
	ldr	ip, [r5, #4]!
	mov	r3, r4
	mov	r2, r6
	ldr	r1, .L1198+4
	mov	r0, #13
	add	r4, r4, #1
	ldr	ip, [ip, #4]
	ldr	lr, [ip, #32]
	str	lr, [sp, #4]
	ldr	ip, [ip, #20]
	str	ip, [sp]
	bl	dprint_vfmw
	ldr	r3, [r8]
	cmp	r3, r4
	bhi	.L1188
.L1189:
	add	r6, r6, #1
	add	r7, r7, #132
	cmp	r6, #2
	bne	.L1187
.L1185:
	sub	sp, fp, #32
	ldmfd	sp, {r4, r5, r6, r7, r8, fp, sp, pc}
.L1199:
	.align	2
.L1198:
	.word	g_PrintEnable
	.word	.LC29
	UNWIND(.fnend)
	.size	MVC_DumpList, .-MVC_DumpList
	.align	2
	.global	MVC_FindNearestPOCPicId
	.type	MVC_FindNearestPOCPicId, %function
MVC_FindNearestPOCPicId:
	UNWIND(.fnstart)
	@ args = 0, pretend = 0, frame = 0
	@ frame_needed = 1, uses_anonymous_args = 0
	UNWIND(.movsp ip)
	mov	ip, sp
	stmfd	sp!, {r4, r5, r6, fp, ip, lr, pc}
	UNWIND(.pad #4)
	UNWIND(.save {r4, r5, r6, fp, ip, lr})
	UNWIND(.setfp fp, ip, #-4)
	sub	fp, ip, #4
	add	r3, r0, #11075584
	add	r3, r3, #45056
	ldr	r2, [r3, #3020]
	cmp	r2, #0
	beq	.L1205
	ldr	r4, [r3, #3016]
	add	r3, r0, #11141120
	add	r3, r3, #16384
	cmp	r4, #0
	ldr	r5, [r3, #1140]
	beq	.L1206
	movw	ip, #47876
	mov	r6, #0
	movt	ip, 169
	add	ip, r0, ip
	mov	r1, r6
	mvn	lr, #-2147483648
.L1204:
	ldr	r2, [ip, #4]!
	add	r1, r1, #1
	cmp	r2, #0
	beq	.L1203
	ldr	r3, [r2, #32]
	rsb	r3, r3, r5
	cmp	r3, #0
	rsblt	r3, r3, #0
	cmp	r3, lr
	ldrlt	r6, [r2, #252]
	movlt	lr, r3
.L1203:
	cmp	r1, r4
	bne	.L1204
.L1202:
	mov	r0, r6
	ldmfd	sp, {r4, r5, r6, fp, sp, pc}
.L1206:
	mov	r6, r4
	b	.L1202
.L1205:
	mvn	r0, #0
	ldmfd	sp, {r4, r5, r6, fp, sp, pc}
	UNWIND(.fnend)
	.size	MVC_FindNearestPOCPicId, .-MVC_FindNearestPOCPicId
	.align	2
	.global	MVC_FindMinRefIdx
	.type	MVC_FindMinRefIdx, %function
MVC_FindMinRefIdx:
	UNWIND(.fnstart)
	@ args = 0, pretend = 0, frame = 0
	@ frame_needed = 1, uses_anonymous_args = 0
	UNWIND(.movsp ip)
	mov	ip, sp
	stmfd	sp!, {r4, r5, r6, r7, r8, fp, ip, lr, pc}
	UNWIND(.pad #4)
	UNWIND(.save {r4, r5, r6, r7, r8, fp, ip, lr})
	UNWIND(.setfp fp, ip, #-4)
	sub	fp, ip, #4
	add	r3, r0, #11075584
	add	r3, r3, #40960
	ldrb	r2, [r3, #1160]	@ zero_extendqisi2
	cmp	r2, #2
	ldmeqfd	sp, {r4, r5, r6, r7, r8, fp, sp, pc}
	add	r2, r0, #11141120
	movw	r6, #48308
	add	r2, r2, #16384
	ldrb	lr, [r2, #443]	@ zero_extendqisi2
	cmp	lr, #0
	bne	.L1241
	ldr	r4, [r3, #1208]
	movw	r5, #48312
	movt	r6, 169
	movt	r5, 169
	cmp	r4, #0
	add	r6, r0, r6
	add	r5, r0, r5
	mov	r7, lr
	beq	.L1219
.L1243:
	add	r2, r0, #252
	mov	ip, #32
	mov	r3, #0
	b	.L1217
.L1216:
	add	r3, r3, #1
	cmp	r3, r4
	beq	.L1242
.L1217:
	ldr	r1, [r2, #4]!
	ldr	r1, [r1, #4]
	ldr	r1, [r1, #52]
	cmp	r1, lr
	bne	.L1216
	cmp	ip, r3
	movcs	ip, r3
	add	r3, r3, #1
	cmp	r3, r4
	str	ip, [r5, #-4]
	str	ip, [r6, #4]
	bne	.L1217
.L1242:
	cmp	ip, #31
	bhi	.L1219
.L1218:
	add	lr, lr, #1
	add	r6, r6, #8
	cmp	lr, #16
	add	r5, r5, #8
	ldmeqfd	sp, {r4, r5, r6, r7, r8, fp, sp, pc}
	cmp	r4, #0
	bne	.L1243
.L1219:
	str	r7, [r5, #-4]
	str	r7, [r6, #4]
	b	.L1218
.L1241:
	ldr	r5, [r3, #1208]
	mov	lr, #0
	movt	r6, 169
	mov	r7, lr
	cmp	r5, #0
	add	r6, r0, r6
	beq	.L1223
.L1245:
	add	r1, r0, #252
	mov	r4, #32
	mov	r2, #0
	b	.L1221
.L1220:
	add	r2, r2, #1
	cmp	r2, r5
	beq	.L1244
.L1221:
	ldr	r3, [r1, #4]!
	ldr	r8, [r3, #4]
	ldrb	ip, [r3]	@ zero_extendqisi2
	ldr	r3, [r8, #52]
	mov	r3, r3, asl #1
	cmp	ip, #2
	orreq	r3, r3, #1
	cmp	r3, lr
	bne	.L1220
	cmp	r4, r2
	movcs	r4, r2
	add	r2, r2, #1
	cmp	r2, r5
	str	r4, [r6]
	bne	.L1221
.L1244:
	cmp	r4, #31
	bhi	.L1223
.L1222:
	add	lr, lr, #1
	add	r6, r6, #4
	cmp	lr, #32
	ldmeqfd	sp, {r4, r5, r6, r7, r8, fp, sp, pc}
	cmp	r5, #0
	bne	.L1245
.L1223:
	str	r7, [r6]
	b	.L1222
	UNWIND(.fnend)
	.size	MVC_FindMinRefIdx, .-MVC_FindMinRefIdx
	.align	2
	.global	MVC_DecList
	.type	MVC_DecList, %function
MVC_DecList:
	UNWIND(.fnstart)
	@ args = 0, pretend = 0, frame = 0
	@ frame_needed = 1, uses_anonymous_args = 0
	UNWIND(.movsp ip)
	mov	ip, sp
	stmfd	sp!, {r4, r5, r6, r7, fp, ip, lr, pc}
	UNWIND(.pad #4)
	UNWIND(.save {r4, r5, r6, r7, fp, ip, lr})
	UNWIND(.setfp fp, ip, #-4)
	sub	fp, ip, #4
	mov	r4, r0
	bl	MVC_FindNearestPOCPicId
	add	r5, r4, #11075584
	mvn	r6, #0
	add	r3, r5, #40960
	ldrb	r2, [r3, #1160]	@ zero_extendqisi2
	str	r6, [r3, #2792]
	cmp	r2, #2
	str	r0, [r3, #2796]
	beq	.L1253
	mov	r0, r4
	bl	MVC_InitListX
	cmp	r0, #0
	bne	.L1254
	mov	r0, r4
	bl	MVC_ReorderListX
	mov	r0, r4
	bl	MVC_RepairList
	cmp	r0, #0
	bne	.L1251
	mov	r0, r4
	add	r5, r5, #40960
	bl	MVC_FindMinRefIdx
	ldr	r3, [r4, #256]
	mov	r0, #0
	cmp	r3, #0
	ldrne	r3, [r3, #4]
	ldrne	r6, [r3, #252]
	str	r6, [r5, #2792]
	ldmfd	sp, {r4, r5, r6, r7, fp, sp, pc}
.L1253:
	mov	r0, #0
	str	r0, [r3, #1208]
	str	r0, [r3, #1212]
	ldmfd	sp, {r4, r5, r6, r7, fp, sp, pc}
.L1251:
	mov	r0, r6
	ldmfd	sp, {r4, r5, r6, r7, fp, sp, pc}
.L1254:
	ldr	r1, .L1255
	mov	r0, #13
	bl	dprint_vfmw
	mov	r0, r6
	ldmfd	sp, {r4, r5, r6, r7, fp, sp, pc}
.L1256:
	.align	2
.L1255:
	.word	.LC30
	UNWIND(.fnend)
	.size	MVC_DecList, .-MVC_DecList
	.align	2
	.global	MVC_NoPicOut
	.type	MVC_NoPicOut, %function
MVC_NoPicOut:
	UNWIND(.fnstart)
	@ args = 0, pretend = 0, frame = 0
	@ frame_needed = 1, uses_anonymous_args = 0
	UNWIND(.movsp ip)
	mov	ip, sp
	stmfd	sp!, {fp, ip, lr, pc}
	UNWIND(.pad #4)
	UNWIND(.save {fp, ip, lr})
	UNWIND(.setfp fp, ip, #-4)
	sub	fp, ip, #4
	ldr	ip, [r0, #48]
	cmp	ip, #0
	beq	.L1264
	movw	r3, #48447
	mov	r2, #0
	movt	r3, 169
	mov	lr, r2
	add	r3, r0, r3
	b	.L1263
.L1272:
	ldrb	r1, [r3, #-2]	@ zero_extendqisi2
	cmp	r1, #1
	beq	.L1261
	cmp	r2, ip
	add	r3, r3, #848
	beq	.L1264
.L1263:
	ldrb	r1, [r3]	@ zero_extendqisi2
	add	r2, r2, #1
	cmp	r1, #1
	bne	.L1272
.L1261:
	cmp	r2, ip
	strb	lr, [r3, #-5]
	strb	lr, [r3, #-4]
	add	r3, r3, #848
	bne	.L1263
.L1264:
	ldr	r2, [r0, #52]
	cmp	r2, #0
	beq	.L1273
	mov	r3, #0
	add	r0, r0, #144
	mov	r1, r3
.L1265:
	add	r3, r3, #1
	str	r1, [r0, #4]!
	cmp	r3, r2
	bne	.L1265
	ldmfd	sp, {fp, sp, pc}
.L1273:
	ldmfd	sp, {fp, sp, pc}
	UNWIND(.fnend)
	.size	MVC_NoPicOut, .-MVC_NoPicOut
	.align	2
	.global	MVC_GetBackPicFromVOQueue
	.type	MVC_GetBackPicFromVOQueue, %function
MVC_GetBackPicFromVOQueue:
	UNWIND(.fnstart)
	@ args = 0, pretend = 0, frame = 0
	@ frame_needed = 1, uses_anonymous_args = 0
	UNWIND(.movsp ip)
	mov	ip, sp
	stmfd	sp!, {r4, r5, r6, r7, r8, r9, fp, ip, lr, pc}
	UNWIND(.pad #4)
	UNWIND(.save {r4, r5, r6, r7, r8, r9, fp, ip, lr})
	UNWIND(.setfp fp, ip, #-4)
	sub	fp, ip, #4
	mov	r8, r0
	ldr	r0, [r0, #120]
	bl	FSP_GetFspType
	cmp	r0, #0
	beq	.L1291
.L1275:
	ldr	r3, [r8, #48]
	cmp	r3, #0
	beq	.L1282
	movw	r5, #49136
	mov	r6, #0
	movt	r5, 169
	add	r5, r8, r5
	mov	r7, #0
	mov	r9, #0
.L1281:
	sub	r4, r5, #32
	mov	r3, #0
	strb	r3, [r5, #-694]
	strb	r3, [r5, #-693]
.L1280:
	ldrd	r2, [r4, #8]!
	orrs	r1, r2, r3
	bne	.L1292
.L1279:
	cmp	r4, r5
	bne	.L1280
	ldr	r3, [r8, #48]
	add	r9, r9, #1
	add	r5, r5, #848
	cmp	r3, r9
	bhi	.L1281
.L1282:
	ldr	r2, [r8, #52]
	cmp	r2, #0
	beq	.L1293
	mov	r3, #0
	add	r8, r8, #144
	mov	r1, r3
.L1283:
	add	r3, r3, #1
	str	r1, [r8, #4]!
	cmp	r3, r2
	bne	.L1283
	ldmfd	sp, {r4, r5, r6, r7, r8, r9, fp, sp, pc}
.L1292:
	mov	r1, r2
	ldr	r0, [r8, #120]
	bl	FreeUsdByDec
	strd	r6, [r4]
	b	.L1279
.L1291:
	add	r0, r8, #584
	bl	ResetVoQueue
	b	.L1275
.L1293:
	ldmfd	sp, {r4, r5, r6, r7, r8, r9, fp, sp, pc}
	UNWIND(.fnend)
	.size	MVC_GetBackPicFromVOQueue, .-MVC_GetBackPicFromVOQueue
	.align	2
	.global	mvc_wait_vo
	.type	mvc_wait_vo, %function
mvc_wait_vo:
	UNWIND(.fnstart)
	@ args = 0, pretend = 0, frame = 0
	@ frame_needed = 1, uses_anonymous_args = 0
	UNWIND(.movsp ip)
	mov	ip, sp
	stmfd	sp!, {fp, ip, lr, pc}
	UNWIND(.pad #4)
	UNWIND(.save {fp, ip, lr})
	UNWIND(.setfp fp, ip, #-4)
	sub	fp, ip, #4
	ldmfd	sp, {fp, sp, pc}
	UNWIND(.fnend)
	.size	mvc_wait_vo, .-mvc_wait_vo
	.align	2
	.global	MVC_RoundLog2
	.type	MVC_RoundLog2, %function
MVC_RoundLog2:
	UNWIND(.fnstart)
	@ args = 0, pretend = 0, frame = 0
	@ frame_needed = 1, uses_anonymous_args = 0
	UNWIND(.movsp ip)
	mov	ip, sp
	stmfd	sp!, {fp, ip, lr, pc}
	UNWIND(.pad #4)
	UNWIND(.save {fp, ip, lr})
	UNWIND(.setfp fp, ip, #-4)
	sub	fp, ip, #4
	mul	r0, r0, r0
	mov	r3, #0
	mov	r2, #1
.L1296:
	add	r3, r3, #1
	cmp	r0, r2, asl r3
	bge	.L1296
	mov	r0, r3, asr #1
	ldmfd	sp, {fp, sp, pc}
	UNWIND(.fnend)
	.size	MVC_RoundLog2, .-MVC_RoundLog2
	.align	2
	.global	MVC_GetReRangeFlag
	.type	MVC_GetReRangeFlag, %function
MVC_GetReRangeFlag:
	UNWIND(.fnstart)
	@ args = 0, pretend = 0, frame = 8
	@ frame_needed = 1, uses_anonymous_args = 0
	UNWIND(.movsp ip)
	mov	ip, sp
	stmfd	sp!, {r4, r5, r6, r7, r8, fp, ip, lr, pc}
	UNWIND(.pad #4)
	UNWIND(.save {r4, r5, r6, r7, r8, fp, ip, lr})
	UNWIND(.setfp fp, ip, #-4)
	sub	fp, ip, #4
	UNWIND(.pad #12)
	sub	sp, sp, #12
	add	ip, r0, #11075584
	add	r6, ip, #40960
	ldr	lr, [r0, #252]
	mov	r4, r0
	mov	r7, #2240
	ldrb	r0, [r6, #1172]	@ zero_extendqisi2
	mov	r5, r1
	ldr	r3, [r6, #1176]
	sxtb	r2, r0
	cmn	r2, #1
	mla	r3, r7, r3, lr
	beq	.L1315
	cmp	r0, #0
	bne	.L1301
	ldrb	r2, [r4, #2]	@ zero_extendqisi2
	ldr	r3, [r3, #28]
	cmp	r2, #1
	beq	.L1316
	ldr	r2, [r4, #28]
	cmp	r2, r3
	beq	.L1303
	ldr	r1, .L1318
	mov	r0, #1
	bl	dprint_vfmw
	mvn	r0, #0
	sub	sp, fp, #32
	ldmfd	sp, {r4, r5, r6, r7, r8, fp, sp, pc}
.L1301:
	ldr	r1, .L1318+4
	mov	r0, #1
	bl	dprint_vfmw
	mvn	r0, #0
	sub	sp, fp, #32
	ldmfd	sp, {r4, r5, r6, r7, r8, fp, sp, pc}
.L1315:
	ldr	r2, [r3, #28]
	movw	r7, #3992
	ldr	r3, [r4, #248]
	mla	r7, r7, r2, r3
.L1300:
	ldrb	r3, [r7, #20]	@ zero_extendqisi2
	ldr	r1, [r7, #3952]
	rsb	r3, r3, #2
	ldr	r2, [r7, #3948]
	ldr	lr, [r4, #12]
	mla	r3, r1, r3, r3
	ldr	r0, [r4, #16]
	add	r2, r2, #1
	cmp	r2, lr
	cmpeq	r3, r0
	movne	r8, #1
	moveq	r8, #0
	bne	.L1305
	add	r1, ip, #45056
	ldr	ip, [r7, #3972]
	ldr	r1, [r1, #3016]
	add	r1, r1, #1
	cmp	ip, r1
	movls	lr, r8
	bls	.L1306
.L1305:
	ldr	r1, .L1318+8
	ldr	ip, [r1]
	cmp	ip, #0
	moveq	lr, #1
	beq	.L1306
	mov	lr, lr, asl #4
	mov	r1, r3, asl #4
	mov	r0, r0, asl #4
	strh	lr, [fp, #-44]	@ movhi
	mov	r2, r2, asl #4
	strh	r0, [fp, #-42]	@ movhi
	strh	r2, [fp, #-40]	@ movhi
	mov	r3, #8
	strh	r1, [fp, #-38]	@ movhi
	sub	r2, fp, #44
	mov	r1, #2
	ldr	r0, [r4, #120]
	blx	ip
	mov	lr, #1
.L1306:
	ldrb	r3, [r6, #1171]	@ zero_extendqisi2
	cmp	r3, #1
	ldrne	ip, [r7, #3972]
	subne	ip, ip, #1
	beq	.L1317
.L1309:
	ldr	r3, [r4, #44]
	mov	r0, lr
	cmp	r3, ip
	orrne	lr, lr, #1
	str	lr, [r5]
	str	ip, [r4, #44]
	sub	sp, fp, #32
	ldmfd	sp, {r4, r5, r6, r7, r8, fp, sp, pc}
.L1303:
	movw	r7, #35364
	movt	r7, 168
	add	r7, r4, r7
	b	.L1300
.L1317:
	movw	r1, #39336
	add	r3, r4, #290816
	movt	r1, 168
	add	r3, r3, #808
	add	r1, r4, r1
	mov	ip, #0
.L1308:
	ldr	r2, [r3]
	add	r3, r3, #335872
	add	r3, r3, #308
	cmp	r2, ip
	subhi	ip, r2, #1
	cmp	r3, r1
	bne	.L1308
	add	ip, ip, #1
	mov	ip, ip, asl #1
	cmp	ip, #16
	movcs	ip, #16
	b	.L1309
.L1316:
	movw	r7, #8500
	movt	r7, 5
	mla	r7, r7, r3, r4
	add	r7, r7, #286720
	add	r7, r7, #932
	b	.L1300
.L1319:
	.align	2
.L1318:
	.word	.LC31
	.word	.LC32
	.word	g_event_report
	UNWIND(.fnend)
	.size	MVC_GetReRangeFlag, .-MVC_GetReRangeFlag
	.global	__aeabi_uidiv
	.global	__aeabi_uidivmod
	.align	2
	.global	MVC_DecPOC
	.type	MVC_DecPOC, %function
MVC_DecPOC:
	UNWIND(.fnstart)
	@ args = 0, pretend = 0, frame = 0
	@ frame_needed = 1, uses_anonymous_args = 0
	UNWIND(.movsp ip)
	mov	ip, sp
	stmfd	sp!, {r4, r5, r6, r7, r8, r9, fp, ip, lr, pc}
	UNWIND(.pad #4)
	UNWIND(.save {r4, r5, r6, r7, r8, r9, fp, ip, lr})
	UNWIND(.setfp fp, ip, #-4)
	sub	fp, ip, #4
	add	r6, r0, #11075584
	ldr	r5, [r0, #236]
	add	r4, r6, #40960
	mov	r1, #1
	ldrb	r2, [r4, #1163]	@ zero_extendqisi2
	ldr	r0, [r5, #2900]
	ldr	r3, [r5, #2896]
	sub	r2, r2, #5
	clz	r2, r2
	cmp	r0, r1
	add	r3, r3, #4
	ldr	ip, [r5, #2904]
	mov	r2, r2, lsr #5
	mov	r3, r1, asl r3
	beq	.L1322
	bcc	.L1323
	cmp	r0, #2
	ldmnefd	sp, {r4, r5, r6, r7, r8, r9, fp, sp, pc}
	cmp	r2, #0
	bne	.L1378
	ldrsb	r1, [r4, #24]
	cmp	r1, #0
	bne	.L1356
	ldr	r2, [r4, #80]
	ldr	r0, [r4, #76]
	ldr	r1, [r4, #88]
	cmp	r2, r0
	addcc	r1, r1, r3
	strcc	r1, [r4, #84]
	bcs	.L1358
.L1359:
	ldrb	r0, [r4, #1168]	@ zero_extendqisi2
	add	r3, r1, r2
	str	r3, [r4, #72]
	cmp	r0, #0
	ldrb	r0, [r4, #1161]	@ zero_extendqisi2
	mov	r3, r3, asl #1
	subeq	r3, r3, #1
	cmp	r0, #0
	str	r3, [r4, #60]
	bne	.L1362
	str	r3, [r4, #56]
	str	r3, [r4, #52]
	str	r3, [r4, #48]
.L1355:
	add	r6, r6, #40960
	str	r2, [r6, #76]
	str	r1, [r6, #88]
	ldmfd	sp, {r4, r5, r6, r7, r8, r9, fp, sp, pc}
.L1323:
	cmp	r2, #0
	add	ip, ip, #4
	mov	r1, r1, asl ip
	bne	.L1329
	ldrsb	r3, [r4, #24]
	cmp	r3, #0
	bne	.L1327
	ldr	lr, [r4, #36]
	ldr	r0, [r4, #40]
	mov	ip, lr
.L1328:
	ldr	r2, [r4, #28]
	cmp	r2, r0
	bcs	.L1326
	rsb	r3, r2, r0
	cmp	r3, r1, lsr #1
	addcs	ip, ip, r1
	strcs	ip, [r4, #44]
	bcc	.L1326
.L1330:
	ldrb	r3, [r4, #1161]	@ zero_extendqisi2
	cmp	r3, #0
	bne	.L1332
.L1380:
	ldr	r3, [r4, #32]
	add	r2, ip, r2
	str	r2, [r4, #48]
	add	r3, r2, r3
	str	r3, [r4, #52]
	cmp	r3, r2
	movge	r3, r2
	str	r3, [r4, #60]
.L1333:
	ldr	r2, [r4, #80]
	add	r6, r6, #40960
	ldr	r1, [r4, #76]
	str	r3, [r4, #56]
	cmp	r2, r1
	strne	r2, [r4, #76]
	ldrb	r3, [r6, #1168]	@ zero_extendqisi2
	cmp	r3, #0
	ldrne	r2, [r6, #28]
	ldrne	r3, [r6, #44]
	strne	r2, [r6, #40]
	strne	r3, [r6, #36]
	ldmfd	sp, {r4, r5, r6, r7, r8, r9, fp, sp, pc}
.L1322:
	cmp	r2, #0
	movne	r3, #0
	strne	r3, [r4, #84]
	bne	.L1337
	ldrsb	r1, [r4, #24]
	cmp	r1, #0
	beq	.L1338
	mov	r3, r2
	str	r2, [r4, #88]
	str	r2, [r4, #76]
.L1339:
	str	r3, [r4, #84]
.L1337:
	ldr	r3, [r5, #2916]
	cmp	r3, #0
	beq	.L1341
	ldrb	r7, [r4, #1168]	@ zero_extendqisi2
	ldr	r3, [r4, #80]
	ldr	r0, [r4, #84]
	cmp	r7, #0
	add	r0, r3, r0
	str	r0, [r4, #72]
	bne	.L1343
	cmp	r0, #0
	beq	.L1344
	sub	r0, r0, #1
	str	r0, [r4, #72]
.L1343:
	mov	r3, #0
	str	r3, [r4, #104]
	ldr	r1, [r5, #2916]
	cmp	r1, r3
	bgt	.L1364
	cmp	r0, #0
	beq	.L1347
.L1381:
	sub	r8, r0, #1
	mov	r0, r8
	bl	__aeabi_uidiv
	mov	r9, r0
	mov	r0, r8
	str	r9, [r4, #96]
	ldr	r1, [r5, #2916]
	bl	__aeabi_uidivmod
	ldr	r0, [r4, #104]
	mul	r0, r0, r9
	str	r0, [r4, #100]
	cmp	r1, #0
	str	r1, [r4, #92]
	blt	.L1348
	add	r2, r5, #2912
	add	r1, r1, #1
	add	r2, r2, #4
	mov	r3, #0
.L1349:
	add	r3, r3, #1
	ldr	ip, [r2, #4]!
	cmp	r3, r1
	add	r0, r0, ip
	str	r0, [r4, #100]
	bne	.L1349
.L1348:
	cmp	r7, #0
	ldreq	r3, [r5, #2908]
	addeq	r0, r0, r3
	ldrb	r3, [r4, #1161]	@ zero_extendqisi2
	streq	r0, [r4, #100]
	cmp	r3, #0
	bne	.L1351
	ldr	r2, [r4, #64]
	ldr	r1, [r4, #68]
	add	r2, r0, r2
	str	r2, [r4, #48]
	ldr	r3, [r5, #2912]
	add	r3, r2, r3
	add	r0, r3, r1
	str	r0, [r4, #52]
	cmp	r0, r2
	movge	r0, r2
	str	r0, [r4, #60]
.L1352:
	add	r6, r6, #40960
	ldr	r2, [r6, #80]
	ldr	r3, [r6, #84]
	str	r0, [r6, #56]
	str	r2, [r6, #76]
	str	r3, [r6, #88]
	ldmfd	sp, {r4, r5, r6, r7, r8, r9, fp, sp, pc}
.L1327:
	ldrsb	r3, [r4, #25]
	cmp	r3, #0
	beq	.L1379
.L1329:
	ldr	r2, [r4, #28]
	mov	r3, #0
	mov	lr, r3
	mov	ip, r0
	str	r3, [r4, #36]
	str	r3, [r4, #40]
.L1326:
	cmp	r2, r0
	bls	.L1331
	rsb	r3, r0, r2
	cmp	r3, r1, lsr #1
	rsbhi	ip, r1, ip
	strhi	ip, [r4, #44]
	bhi	.L1330
.L1331:
	ldrb	r3, [r4, #1161]	@ zero_extendqisi2
	str	lr, [r4, #44]
	cmp	r3, #0
	beq	.L1380
.L1332:
	ldrb	r3, [r4, #1162]	@ zero_extendqisi2
	cmp	r3, #0
	add	r3, ip, r2
	streq	r3, [r4, #48]
	strne	r3, [r4, #52]
	str	r3, [r4, #60]
	b	.L1333
.L1378:
	mov	r3, #0
	ldr	r2, [r4, #80]
	str	r3, [r4, #84]
	mov	r1, r3
	str	r3, [r4, #52]
	str	r3, [r4, #48]
	str	r3, [r4, #56]
	str	r3, [r4, #60]
	b	.L1355
.L1341:
	ldrb	r7, [r4, #1168]	@ zero_extendqisi2
	str	r3, [r4, #72]
.L1344:
	mov	r0, #0
	str	r0, [r4, #104]
	ldr	r3, [r5, #2916]
	cmp	r3, r0
	ble	.L1347
.L1364:
	add	ip, r5, #2912
	mov	r3, #0
	add	ip, ip, #4
	mov	r2, r3
.L1346:
	ldr	r1, [ip, #4]!
	add	r2, r2, #1
	add	r3, r3, r1
	str	r3, [r4, #104]
	ldr	r1, [r5, #2916]
	cmp	r1, r2
	bgt	.L1346
	cmp	r0, #0
	bne	.L1381
.L1347:
	mov	r0, #0
	str	r0, [r4, #100]
	b	.L1348
.L1351:
	ldrb	r3, [r4, #1162]	@ zero_extendqisi2
	cmp	r3, #0
	ldrne	r2, [r5, #2912]
	ldreq	r3, [r4, #64]
	ldrne	r3, [r4, #64]
	addne	r0, r0, r2
	addeq	r0, r0, r3
	streq	r0, [r4, #48]
	addne	r0, r0, r3
	strne	r0, [r4, #52]
	str	r0, [r4, #60]
	b	.L1352
.L1338:
	ldr	r1, [r4, #80]
	ldr	r2, [r4, #76]
	cmp	r1, r2
	bcs	.L1340
	ldr	r2, [r4, #88]
	add	r3, r3, r2
	str	r3, [r4, #84]
	b	.L1337
.L1362:
	ldrb	r0, [r4, #1162]	@ zero_extendqisi2
	str	r3, [r4, #56]
	cmp	r0, #0
	streq	r3, [r4, #48]
	strne	r3, [r4, #52]
	b	.L1355
.L1356:
	str	r2, [r4, #76]
	mov	r1, r2
	str	r2, [r4, #88]
	ldr	r2, [r4, #80]
.L1358:
	str	r1, [r4, #84]
	b	.L1359
.L1379:
	ldr	r2, [r4, #48]
	mov	ip, r0
	mov	lr, r3
	str	r3, [r4, #36]
	mov	r0, r2
	str	r2, [r4, #40]
	b	.L1328
.L1340:
	ldr	r3, [r4, #88]
	b	.L1339
	UNWIND(.fnend)
	.size	MVC_DecPOC, .-MVC_DecPOC
	.align	2
	.global	MVC_CalcPicNum
	.type	MVC_CalcPicNum, %function
MVC_CalcPicNum:
	UNWIND(.fnstart)
	@ args = 0, pretend = 0, frame = 0
	@ frame_needed = 1, uses_anonymous_args = 0
	UNWIND(.movsp ip)
	mov	ip, sp
	stmfd	sp!, {r4, r5, r6, r7, r8, fp, ip, lr, pc}
	UNWIND(.pad #4)
	UNWIND(.save {r4, r5, r6, r7, r8, fp, ip, lr})
	UNWIND(.setfp fp, ip, #-4)
	sub	fp, ip, #4
	add	r5, r0, #11141120
	ldr	r3, [r0, #236]
	add	r5, r5, #16384
	mov	r6, #1
	ldrb	r2, [r5, #443]	@ zero_extendqisi2
	ldr	r3, [r3, #2896]
	cmp	r2, #0
	add	r3, r3, #4
	mov	r6, r6, asl r3
	add	r3, r0, #11075584
	beq	.L1383
	add	r3, r3, #45056
	sub	r7, r2, #1
	sub	r2, r2, #2
	clz	r7, r7
	ldr	r1, [r3, #3024]
	clz	r2, r2
	mov	r7, r7, lsr #5
	cmp	r1, #0
	mov	r2, r2, lsr #5
	movwne	lr, #47940
	movne	r1, #0
	movtne	lr, 169
	addne	lr, r0, lr
	beq	.L1403
.L1402:
	ldr	ip, [lr, #4]!
	ldrb	r4, [ip, #3]	@ zero_extendqisi2
	cmp	r4, #0
	beq	.L1397
	ldr	r4, [ip, #20]
	ldr	r8, [r5, #1128]
	cmp	r4, r8
	rsbhi	r4, r6, r4
	str	r4, [ip, #24]
	ldr	ip, [lr]
	ldrb	r4, [ip, #3]	@ zero_extendqisi2
	tst	r4, #1
	beq	.L1400
	ldr	r8, [ip, #772]
	bic	r8, r8, #-16777216
	bic	r8, r8, #255
	cmp	r8, #65536
	ldreq	r4, [ip, #24]
	addeq	r4, r7, r4, lsl #1
	streq	r4, [ip, #784]
	ldreq	ip, [lr]
	ldreqb	r4, [ip, #3]	@ zero_extendqisi2
.L1400:
	tst	r4, #2
	beq	.L1397
	ldr	r4, [ip, #808]
	bic	r4, r4, #-16777216
	bic	r4, r4, #255
	cmp	r4, #65536
	ldreq	r4, [ip, #24]
	addeq	r4, r2, r4, lsl #1
	streq	r4, [ip, #820]
.L1397:
	ldr	ip, [r3, #3024]
	add	r1, r1, #1
	cmp	ip, r1
	bhi	.L1402
.L1403:
	ldr	r1, [r3, #3028]
	cmp	r1, #0
	beq	.L1427
	movw	r4, #48004
	mov	ip, #0
	movt	r4, 169
	add	r4, r0, r4
.L1408:
	ldr	lr, [r4, #4]!
	add	ip, ip, #1
	ldrb	r1, [lr, #3]	@ zero_extendqisi2
	cmp	r1, #0
	beq	.L1405
	tst	r1, #1
	beq	.L1406
	ldr	r0, [lr, #772]
	bic	r0, r0, #-16777216
	bic	r0, r0, #255
	cmp	r0, #256
	ldreq	r1, [lr, #28]
	addeq	r1, r7, r1, lsl #1
	streq	r1, [lr, #780]
	ldreq	lr, [r4]
	ldreqb	r1, [lr, #3]	@ zero_extendqisi2
.L1406:
	tst	r1, #2
	beq	.L1405
	ldr	r1, [lr, #808]
	bic	r1, r1, #-16777216
	bic	r1, r1, #255
	cmp	r1, #256
	ldreq	r1, [lr, #28]
	addeq	r1, r2, r1, lsl #1
	streq	r1, [lr, #816]
.L1405:
	ldr	r1, [r3, #3028]
	cmp	r1, ip
	bhi	.L1408
	ldmfd	sp, {r4, r5, r6, r7, r8, fp, sp, pc}
.L1383:
	add	r3, r3, #45056
	ldr	r1, [r3, #3024]
	cmp	r1, #0
	movwne	lr, #47940
	movtne	lr, 169
	addne	lr, r0, lr
	bne	.L1392
.L1393:
	ldr	r2, [r3, #3028]
	cmp	r2, #0
	beq	.L1428
	movw	ip, #48004
	mov	r2, #0
	movt	ip, 169
	add	ip, r0, ip
	b	.L1395
.L1394:
	ldr	r1, [r3, #3028]
	cmp	r1, r2
	bls	.L1429
.L1395:
	ldr	r1, [ip, #4]!
	add	r2, r2, #1
	ldrb	r0, [r1, #3]	@ zero_extendqisi2
	cmp	r0, #3
	bne	.L1394
	ldr	r0, [r1, #736]
	bic	r0, r0, #-16777216
	bic	r0, r0, #255
	cmp	r0, #256
	ldreq	r0, [r1, #28]
	streq	r0, [r1, #744]
	ldr	r1, [r3, #3028]
	cmp	r1, r2
	bhi	.L1395
.L1429:
	ldmfd	sp, {r4, r5, r6, r7, r8, fp, sp, pc}
.L1430:
	ldr	ip, [r1, #736]
	bic	ip, ip, #-16777216
	bic	ip, ip, #255
	cmp	ip, #65536
	bne	.L1389
	ldr	ip, [r1, #20]
	ldr	r4, [r5, #1128]
	rsb	r7, r6, ip
	cmp	ip, r4
	strhi	r7, [r1, #24]
	strls	ip, [r1, #24]
	ldr	r1, [lr]
	ldr	ip, [r1, #24]
	str	ip, [r1, #748]
.L1389:
	ldr	r1, [r3, #3024]
	add	r2, r2, #1
	cmp	r1, r2
	bls	.L1393
.L1392:
	ldr	r1, [lr, #4]!
	ldrb	ip, [r1, #3]	@ zero_extendqisi2
	cmp	ip, #3
	bne	.L1389
	b	.L1430
.L1428:
	ldmfd	sp, {r4, r5, r6, r7, r8, fp, sp, pc}
.L1427:
	ldmfd	sp, {r4, r5, r6, r7, r8, fp, sp, pc}
	UNWIND(.fnend)
	.size	MVC_CalcPicNum, .-MVC_CalcPicNum
	.align	2
	.global	MVC_IsOutDPB
	.type	MVC_IsOutDPB, %function
MVC_IsOutDPB:
	UNWIND(.fnstart)
	@ args = 0, pretend = 0, frame = 0
	@ frame_needed = 1, uses_anonymous_args = 0
	UNWIND(.movsp ip)
	mov	ip, sp
	stmfd	sp!, {fp, ip, lr, pc}
	UNWIND(.pad #4)
	UNWIND(.save {fp, ip, lr})
	UNWIND(.setfp fp, ip, #-4)
	sub	fp, ip, #4
	cmp	r1, #0
	beq	.L1436
	add	r3, r0, #11075584
	add	r3, r3, #45056
	ldr	lr, [r3, #3016]
	cmp	lr, #0
	beq	.L1436
	ldr	r2, [r3, #2824]
	rsb	r3, r2, r1
	cmp	r2, #0
	clz	r3, r3
	mov	r3, r3, lsr #5
	moveq	r3, #0
	cmp	r3, #0
	bne	.L1438
	movw	ip, #47880
	movt	ip, 169
	add	ip, r0, ip
	b	.L1433
.L1434:
	ldr	r2, [ip, #4]!
	rsb	r0, r2, r1
	cmp	r2, #0
	clz	r0, r0
	mov	r0, r0, lsr #5
	moveq	r0, #0
	cmp	r0, #0
	bne	.L1438
.L1433:
	add	r3, r3, #1
	cmp	r3, lr
	bne	.L1434
.L1436:
	mov	r0, #1
	ldmfd	sp, {fp, sp, pc}
.L1438:
	mov	r0, #0
	ldmfd	sp, {fp, sp, pc}
	UNWIND(.fnend)
	.size	MVC_IsOutDPB, .-MVC_IsOutDPB
	.align	2
	.global	mvc_combine_scalinglist
	.type	mvc_combine_scalinglist, %function
mvc_combine_scalinglist:
	UNWIND(.fnstart)
	@ args = 0, pretend = 0, frame = 0
	@ frame_needed = 1, uses_anonymous_args = 0
	UNWIND(.movsp ip)
	mov	ip, sp
	stmfd	sp!, {r4, r5, r6, r7, r8, fp, ip, lr, pc}
	UNWIND(.pad #4)
	UNWIND(.save {r4, r5, r6, r7, r8, fp, ip, lr})
	UNWIND(.setfp fp, ip, #-4)
	sub	fp, ip, #4
	cmp	r2, #0
	ldmlefd	sp, {r4, r5, r6, r7, r8, fp, sp, pc}
	ldr	r6, .L1446
	mov	lr, #0
	mov	r5, #255
	sub	r7, r6, #16
.L1443:
	cmp	r2, #16
	ldreqb	ip, [lr, r7]	@ zero_extendqisi2
	ldrneb	ip, [lr, r6]	@ zero_extendqisi2
	add	lr, lr, #1
	cmp	lr, r2
	and	r3, ip, #3
	mov	r4, ip, lsr #2
	ldrb	r8, [r0, ip, asl #2]	@ zero_extendqisi2
	mov	r3, r3, asl #3
	ldr	ip, [r1, r4, asl #2]
	bic	ip, ip, r5, asl r3
	orr	r3, ip, r8, asl r3
	str	r3, [r1, r4, asl #2]
	bne	.L1443
	ldmfd	sp, {r4, r5, r6, r7, r8, fp, sp, pc}
.L1447:
	.align	2
.L1446:
	.word	.LANCHOR0+16
	UNWIND(.fnend)
	.size	mvc_combine_scalinglist, .-mvc_combine_scalinglist
	.align	2
	.global	mvc_assign_quant_params
	.type	mvc_assign_quant_params, %function
mvc_assign_quant_params:
	UNWIND(.fnstart)
	@ args = 0, pretend = 0, frame = 16
	@ frame_needed = 1, uses_anonymous_args = 0
	UNWIND(.movsp ip)
	mov	ip, sp
	stmfd	sp!, {r4, r5, r6, r7, r8, r9, r10, fp, ip, lr, pc}
	UNWIND(.pad #4)
	UNWIND(.save {r4, r5, r6, r7, r8, r9, r10, fp, ip, lr})
	UNWIND(.setfp fp, ip, #-4)
	sub	fp, ip, #4
	UNWIND(.pad #20)
	sub	sp, sp, #20
	subs	r3, r0, #0
	str	r1, [fp, #-48]
	str	r3, [fp, #-52]
	beq	.L1479
	ldr	r3, [fp, #-48]
	cmp	r3, #0
	beq	.L1480
	ldr	r3, [fp, #-48]
	ldrb	r3, [r3, #18]	@ zero_extendqisi2
	cmp	r3, #0
	beq	.L1468
	ldr	r3, [fp, #-48]
	mov	r4, #0
	ldr	r1, [fp, #-52]
	add	r2, r3, #2016
	add	r8, r3, #1728
	str	r2, [fp, #-56]
	add	r9, r1, #2384
	mov	r6, r2
	add	r7, r3, #1984
	add	r5, r3, #5
	ldr	r10, .L1485
	b	.L1453
.L1483:
	cmp	r4, #0
	beq	.L1481
	cmp	r4, #3
	beq	.L1482
	ldr	r3, [r10, #52]
	mov	r2, #16
	sub	r1, r6, #16
	mov	r0, r6
	blx	r3
.L1461:
	add	r4, r4, #1
	cmp	r4, #7
	bhi	.L1468
.L1467:
	add	r8, r8, #64
	add	r9, r9, #64
	add	r6, r6, #16
	add	r7, r7, #4
	add	r5, r5, #1
.L1453:
	cmp	r4, #5
	ldrsb	r3, [r5]
	bhi	.L1454
	cmp	r3, #0
	beq	.L1483
	ldr	r3, [r7]
	cmp	r3, #0
	beq	.L1461
	ldr	r1, .L1485+4
	cmp	r4, #2
	mov	r2, #16
	ldr	r3, [r10, #52]
	add	r0, r1, r2
	add	r4, r4, #1
	movhi	r1, r0
	mov	r0, r6
	blx	r3
	cmp	r4, #7
	bls	.L1467
.L1468:
	mov	r0, #0
.L1450:
	sub	sp, fp, #40
	ldmfd	sp, {r4, r5, r6, r7, r8, r9, r10, fp, sp, pc}
.L1454:
	cmp	r3, #0
	bne	.L1463
	ldr	r3, [fp, #-52]
	mov	r2, #64
	ldrb	r3, [r3, #27]	@ zero_extendqisi2
	cmp	r3, #0
	ldr	r3, [r10, #52]
	bne	.L1484
.L1478:
	ldr	r1, .L1485+8
	cmp	r4, #6
	add	r0, r1, r2
	movne	r1, r0
	mov	r0, r8
	blx	r3
	b	.L1461
.L1463:
	ldr	r3, [r7]
	cmp	r3, #0
	beq	.L1461
	ldr	r3, [r10, #52]
	mov	r2, #64
	b	.L1478
.L1484:
	mov	r1, r9
	mov	r0, r8
	blx	r3
	b	.L1461
.L1479:
	movw	r3, #6980
	ldr	r2, .L1485+12
	ldr	r1, .L1485+16
	bl	dprint_vfmw
	mvn	r0, #0
	b	.L1450
.L1480:
	mov	r0, r3
	ldr	r2, .L1485+12
	movw	r3, #6981
	ldr	r1, .L1485+16
	bl	dprint_vfmw
	mvn	r0, #0
	b	.L1450
.L1482:
	ldr	r3, [fp, #-52]
	mov	r2, #16
	ldr	r0, [fp, #-48]
	mov	r4, #4
	ldrb	r3, [r3, #27]	@ zero_extendqisi2
	add	r0, r0, #2064
	cmp	r3, #0
	ldr	r3, [r10, #52]
	ldrne	r1, [fp, #-52]
	ldreq	r1, .L1485+20
	addne	r1, r1, #2720
	blx	r3
	b	.L1467
.L1481:
	ldr	r3, [fp, #-52]
	mov	r2, #16
	ldr	r0, [fp, #-56]
	mov	r4, #1
	ldrb	r3, [r3, #27]	@ zero_extendqisi2
	cmp	r3, #0
	ldr	r3, [r10, #52]
	ldrne	r1, [fp, #-52]
	ldreq	r1, .L1485+4
	addne	r1, r1, #2672
	blx	r3
	b	.L1467
.L1486:
	.align	2
.L1485:
	.word	vfmw_Osal_Func_Ptr_S
	.word	.LANCHOR1
	.word	.LANCHOR1+32
	.word	.LC13
	.word	.LC14
	.word	.LANCHOR1+16
	UNWIND(.fnend)
	.size	mvc_assign_quant_params, .-mvc_assign_quant_params
	.align	2
	.global	MVC_WriteCurrPicYUV
	.type	MVC_WriteCurrPicYUV, %function
MVC_WriteCurrPicYUV:
	UNWIND(.fnstart)
	@ args = 0, pretend = 0, frame = 0
	@ frame_needed = 1, uses_anonymous_args = 0
	UNWIND(.movsp ip)
	mov	ip, sp
	stmfd	sp!, {r4, r5, fp, ip, lr, pc}
	UNWIND(.pad #4)
	UNWIND(.save {r4, r5, fp, ip, lr})
	UNWIND(.setfp fp, ip, #-4)
	sub	fp, ip, #4
	UNWIND(.pad #8)
	sub	sp, sp, #8
	add	r5, r0, #11141120
	add	r3, r5, #16384
	add	r5, r5, #16384
	ldr	r1, .L1490
	mov	r0, #2
	ldrb	r4, [r3, #443]	@ zero_extendqisi2
	ldr	r3, [r3, #1120]
	mov	r2, r4
	ldr	r3, [r3, #252]
	bl	dprint_vfmw
	ldr	ip, [r5, #1180]
	cmp	r4, #3
	cmpne	r4, #0
	ldr	r3, [r5, #1176]
	addne	r2, r4, #1
	ldr	r1, .L1490+4
	moveq	r2, #1
	str	ip, [sp]
	mov	r0, #22
	bl	dprint_vfmw
	sub	sp, fp, #20
	ldmfd	sp, {r4, r5, fp, sp, pc}
.L1491:
	.align	2
.L1490:
	.word	.LC33
	.word	.LC34
	UNWIND(.fnend)
	.size	MVC_WriteCurrPicYUV, .-MVC_WriteCurrPicYUV
	.align	2
	.global	MVC_WritePicMsg
	.type	MVC_WritePicMsg, %function
MVC_WritePicMsg:
	UNWIND(.fnstart)
	@ args = 0, pretend = 0, frame = 8
	@ frame_needed = 1, uses_anonymous_args = 0
	UNWIND(.movsp ip)
	mov	ip, sp
	stmfd	sp!, {r4, r5, r6, r7, r8, r9, r10, fp, ip, lr, pc}
	UNWIND(.pad #4)
	UNWIND(.save {r4, r5, r6, r7, r8, r9, r10, fp, ip, lr})
	UNWIND(.setfp fp, ip, #-4)
	sub	fp, ip, #4
	UNWIND(.pad #20)
	sub	sp, sp, #20
	add	r10, r0, #11141120
	add	r4, r10, #16384
	mov	r6, r0
	ldr	r1, .L1528
	mov	r0, #2
	ldr	lr, [r4, #1196]
	mov	r5, #0
	ldr	ip, [r4, #636]
	add	r10, r10, #18944
	ldrb	r3, [r4, #443]	@ zero_extendqisi2
	add	r7, r6, #11075584
	ldr	r2, [r4, #1136]
	add	r8, r7, #32768
	stmia	sp, {ip, lr}
	add	r9, r7, #36864
	bl	dprint_vfmw
	movw	r3, #17488
	movt	r3, 170
	add	r3, r6, r3
	str	r5, [r6, #64]
	add	r1, r7, #40960
	ldrd	r2, [r3, #-8]
	strd	r2, [r10]
	ldr	r10, [r6, #544]
	ldr	lr, [r4, #620]
	ldr	ip, [r4, #624]
	ldr	r0, [r4, #628]
	ldr	r2, [r4, #1136]
	ldrb	r3, [r4, #443]	@ zero_extendqisi2
	str	r10, [r4, #3608]
	str	lr, [r4, #3388]
	str	ip, [r4, #3392]
	str	r0, [r4, #3396]
	str	r2, [r4, #2568]
	strb	r3, [r4, #2552]
	ldr	r3, [r6, #236]
	ldr	ip, [r4, #1180]
	ldr	r0, [r4, #1184]
	ldrb	r2, [r3, #21]	@ zero_extendqisi2
	str	ip, [r4, #2572]
	str	r0, [r4, #2576]
	str	r2, [r4, #2584]
	ldr	r2, [r3, #3948]
	add	r2, r2, #1
	str	r2, [r4, #2580]
	ldrb	r2, [r8, #2004]	@ zero_extendqisi2
	strb	r2, [r4, #2555]
	ldr	r2, [r9, #1940]
	str	r2, [r4, #2588]
	ldrb	r2, [r9, #1880]	@ zero_extendqisi2
	str	r2, [r4, #2592]
	ldr	r3, [r3, #748]
	strb	r3, [r4, #2553]
	ldrb	r3, [r9, #1884]	@ zero_extendqisi2
	str	r3, [r4, #2596]
	ldr	r2, [r1, #60]
	ldr	r3, [r4, #1120]
	str	r2, [r4, #2600]
	ldr	r2, [r1, #48]
	str	r2, [r4, #2604]
	ldr	r2, [r1, #52]
	str	r2, [r4, #2608]
	ldrsb	r1, [r3, #6]
	ldr	r0, [r6, #120]
	bl	FSP_GetLogicFs
	subs	r10, r0, #0
	beq	.L1526
	ldr	r2, [r10, #680]
	ldr	r3, [r10, #684]
	cmp	r2, #0
	beq	.L1496
	cmp	r3, #0
	beq	.L1496
	movw	r3, #19372
	movw	r2, #19244
	movw	r1, #19632
	ldr	r0, [r6, #120]
	movt	r3, 170
	movt	r2, 170
	add	r3, r6, r3
	add	r2, r6, r2
	movt	r1, 170
	add	r1, r6, r1
	bl	FSP_GetDecFsAddrTab
	ldr	r3, [r10, #680]
	movw	r2, #19636
	movw	r1, #19764
	movt	r2, 170
	movt	r1, 170
	ldr	r3, [r3, #8]
	add	r2, r6, r2
	add	r1, r6, r1
	add	r7, r7, #45056
	str	r3, [r4, #2844]
	ldr	r0, [r6, #120]
	bl	FSP_GetPmvAddrTab
	ldr	r3, [r4, #1196]
	str	r3, [r4, #2852]
	ldr	r3, [r10, #696]
	str	r3, [r4, #3384]
	ldr	r3, [r10, #684]
	ldr	r3, [r3, #16]
	str	r3, [r4, #2848]
	ldr	r3, [r10, #684]
	ldr	r3, [r3, #76]
	str	r3, [r4, #2856]
	ldr	r3, [r7, #3244]
	cmp	r3, #0
	str	r3, [fp, #-48]
	str	r3, [r4, #3600]
	beq	.L1502
	movw	r4, #48104
	movw	lr, #19788
	movw	ip, #48168
	movw	r0, #19852
	movw	r1, #48232
	movw	r2, #19916
	ldr	r10, [fp, #-48]
	movt	r4, 169
	movt	lr, 170
	movt	ip, 169
	movt	r0, 170
	movt	r1, 169
	movt	r2, 170
	add	r4, r6, r4
	add	lr, r6, lr
	add	ip, r6, ip
	add	r0, r6, r0
	add	r1, r6, r1
	add	r2, r6, r2
	mov	r3, r5
.L1501:
	ldr	r5, [r4, #4]!
	add	r3, r3, #1
	cmp	r3, r10
	str	r5, [lr, #4]!
	ldr	r5, [ip, #4]!
	str	r5, [r0, #4]!
	ldr	r5, [r1, #4]!
	str	r5, [r2, #4]!
	bne	.L1501
.L1502:
	ldrb	r3, [r8, #2011]	@ zero_extendqisi2
	cmp	r3, #0
	bne	.L1527
	ldrb	ip, [r9, #1898]	@ zero_extendqisi2
	cmp	ip, #0
	bne	.L1503
	movw	lr, #18992
	ldr	r0, .L1528+4
	movt	lr, 170
	add	lr, r6, lr
.L1504:
	and	r3, ip, #3
	add	ip, ip, #1
	cmp	ip, #24
	add	r3, r0, r3, lsl #2
	ldr	r3, [r3, #352]
	bic	r2, r3, #16711680
	ubfx	r1, r3, #8, #8
	bic	r2, r2, #65280
	mov	r3, r3, lsr #8
	orr	r2, r2, r1, asl #16
	and	r3, r3, #65280
	orr	r3, r2, r3
	str	r3, [lr, #4]!
	bne	.L1504
	movw	r8, #19092
	mov	r5, #0
	movt	r8, 170
	add	r8, r6, r8
.L1505:
	add	r3, r5, #1
	and	r2, r5, #14
	and	r3, r3, #15
	add	r5, r5, #2
	add	r2, r0, r2, lsl #2
	cmp	r5, #32
	add	r3, r0, r3, lsl #2
	ldr	r1, [r2, #368]
	ldr	ip, [r3, #368]
	ubfx	r3, r1, #8, #8
	mov	r2, r1, lsr #24
	uxtb	r9, r1
	uxtb	r4, ip
	mov	lr, ip, lsr #16
	orr	r3, r3, r2, asl #8
	mov	r1, r1, lsr #8
	mov	r4, r4, asl #16
	and	r2, ip, #-16777216
	orr	lr, r4, lr, asl #24
	ubfx	ip, ip, #8, #8
	orr	r3, r3, r2
	orr	lr, lr, r9
	and	r1, r1, #65280
	orr	r3, r3, ip, asl #16
	orr	r2, lr, r1
	stmia	r8, {r2, r3}
	add	r8, r8, #8
	bne	.L1505
.L1510:
	ldr	r3, [fp, #-48]
	cmp	r3, #0
	beq	.L1507
	movw	r4, #48108
	movw	r9, #20120
	movw	r8, #20184
	movt	r4, 169
	movt	r9, 170
	movt	r8, 170
	add	r4, r6, r4
	add	r9, r6, r9
	add	r8, r6, r8
	mov	r5, #0
.L1513:
	ldr	r2, [r4]
	mov	r1, #0
	ldr	r0, [r6, #120]
	add	r5, r5, #1
	bl	FSP_GetStoreType
	adds	r0, r0, #0
	movne	r0, #1
	str	r0, [r9, #4]!
	ldr	r3, [r4], #4
	str	r3, [r8, #4]!
	ldr	r3, [r7, #3244]
	cmp	r3, r5
	bhi	.L1513
.L1507:
	mov	r0, #0
.L1523:
	sub	sp, fp, #40
	ldmfd	sp, {r4, r5, r6, r7, r8, r9, r10, fp, sp, pc}
.L1527:
	ldrb	ip, [r9, #1898]	@ zero_extendqisi2
.L1503:
	cmp	ip, #1
	movw	ip, #18992
	movt	ip, 170
	mov	r0, #0
	add	ip, r6, ip
	beq	.L1508
.L1511:
	movw	r3, #25740
	movt	r3, 42
	add	r3, r0, r3
	add	r0, r0, #1
	ldr	r3, [r6, r3, asl #2]
	cmp	r0, #24
	bic	r2, r3, #16711680
	ubfx	r1, r3, #8, #8
	bic	r2, r2, #65280
	mov	r3, r3, lsr #8
	orr	r2, r2, r1, asl #16
	and	r3, r3, #65280
	orr	r3, r2, r3
	str	r3, [ip, #4]!
	bne	.L1511
	movw	r9, #19092
	mov	r10, #1
	movt	r9, 170
	add	r9, r6, r9
	mov	r8, #0
.L1512:
	mov	r2, r8, lsr #3
	mov	r3, r8, asl #1
	and	r1, r3, #14
	and	r0, r10, #15
	mov	r3, r2, asl #4
	movw	r2, #25764
	add	r0, r3, r0
	add	r3, r3, r1
	mov	r1, r2
	movt	r2, 42
	movt	r1, 42
	add	r2, r0, r2
	add	r1, r3, r1
	add	r8, r8, #1
	ldr	r2, [r6, r2, asl #2]
	cmp	r8, #16
	ldr	r3, [r6, r1, asl #2]
	add	r10, r10, #2
	ubfx	r5, r2, #8, #8
	and	lr, r2, #-16777216
	mov	r0, r2, lsr #16
	uxtb	r1, r2
	mov	ip, r3, lsr #24
	uxtb	r4, r3
	mov	r2, r0, asl #24
	mov	r0, r3, lsr #8
	mov	ip, ip, asl #8
	orr	r2, r2, r1, asl #16
	orr	ip, ip, r5, asl #16
	orr	r1, r2, r4
	ubfx	r3, r3, #8, #8
	and	r2, r0, #65280
	orr	ip, ip, lr
	orr	r2, r1, r2
	orr	r3, ip, r3
	stmia	r9, {r2, r3}
	add	r9, r9, #8
	bne	.L1512
	b	.L1510
.L1508:
	movw	r3, #26574
	movt	r3, 42
	add	r3, r0, r3
	add	r0, r0, #1
	ldr	r3, [r6, r3, asl #2]
	cmp	r0, #24
	bic	r2, r3, #16711680
	ubfx	r1, r3, #8, #8
	bic	r2, r2, #65280
	mov	r3, r3, lsr #8
	orr	r2, r2, r1, asl #16
	and	r3, r3, #65280
	orr	r3, r2, r3
	str	r3, [ip, #4]!
	bne	.L1508
	movw	r9, #19092
	mov	r10, #1
	movt	r9, 170
	add	r9, r6, r9
	mov	r8, #0
.L1509:
	mov	r2, r8, lsr #3
	mov	r3, r8, asl #1
	and	r1, r3, #14
	and	r0, r10, #15
	mov	r3, r2, asl #4
	movw	r2, #26598
	add	r0, r3, r0
	add	r3, r3, r1
	mov	r1, r2
	movt	r2, 42
	movt	r1, 42
	add	r2, r0, r2
	add	r1, r3, r1
	add	r8, r8, #1
	ldr	r2, [r6, r2, asl #2]
	cmp	r8, #16
	ldr	r3, [r6, r1, asl #2]
	add	r10, r10, #2
	ubfx	r5, r2, #8, #8
	and	lr, r2, #-16777216
	mov	r0, r2, lsr #16
	uxtb	r1, r2
	mov	ip, r3, lsr #24
	uxtb	r4, r3
	mov	r2, r0, asl #24
	mov	r0, r3, lsr #8
	mov	ip, ip, asl #8
	orr	r2, r2, r1, asl #16
	orr	ip, ip, r5, asl #16
	orr	r1, r2, r4
	ubfx	r3, r3, #8, #8
	and	r2, r0, #65280
	orr	ip, ip, lr
	orr	r2, r1, r2
	orr	r3, ip, r3
	stmia	r9, {r2, r3}
	add	r9, r9, #8
	bne	.L1509
	b	.L1510
.L1496:
	ldr	r1, .L1528+8
	mov	r0, #0
	bl	dprint_vfmw
	mvn	r0, #0
	b	.L1523
.L1526:
	ldr	r3, [r4, #1120]
	ldr	r1, .L1528+12
	ldrsb	r2, [r3, #6]
	bl	dprint_vfmw
	mvn	r0, #0
	b	.L1523
.L1529:
	.align	2
.L1528:
	.word	.LC35
	.word	.LANCHOR1
	.word	.LC37
	.word	.LC36
	UNWIND(.fnend)
	.size	MVC_WritePicMsg, .-MVC_WritePicMsg
	.align	2
	.global	MVC_UpdatePicQpInf
	.type	MVC_UpdatePicQpInf, %function
MVC_UpdatePicQpInf:
	UNWIND(.fnstart)
	@ args = 0, pretend = 0, frame = 0
	@ frame_needed = 1, uses_anonymous_args = 0
	UNWIND(.movsp ip)
	mov	ip, sp
	stmfd	sp!, {fp, ip, lr, pc}
	UNWIND(.pad #4)
	UNWIND(.save {fp, ip, lr})
	UNWIND(.setfp fp, ip, #-4)
	sub	fp, ip, #4
	ldr	r2, [r1, #28]
	ldr	r3, [r1, #32]
	cmp	r2, r0
	movlt	r2, r0
	cmp	r3, r0
	str	r2, [r1, #28]
	movge	r3, r0
	str	r3, [r1, #32]
	ldmfd	sp, {fp, sp, pc}
	UNWIND(.fnend)
	.size	MVC_UpdatePicQpInf, .-MVC_UpdatePicQpInf
	.align	2
	.global	MVC_WriteSliceMsg
	.type	MVC_WriteSliceMsg, %function
MVC_WriteSliceMsg:
	UNWIND(.fnstart)
	@ args = 0, pretend = 0, frame = 24
	@ frame_needed = 1, uses_anonymous_args = 0
	UNWIND(.movsp ip)
	mov	ip, sp
	stmfd	sp!, {r4, r5, r6, r7, r8, r9, r10, fp, ip, lr, pc}
	UNWIND(.pad #4)
	UNWIND(.save {r4, r5, r6, r7, r8, r9, r10, fp, ip, lr})
	UNWIND(.setfp fp, ip, #-4)
	sub	fp, ip, #4
	UNWIND(.pad #28)
	sub	sp, sp, #28
	ldr	r3, [r0, #64]
	movw	r1, #4060
	mov	r4, r0
	mov	ip, r3
	str	r3, [fp, #-48]
	mul	r1, r1, ip
	ldr	r3, [r0, #32]
	ldr	r0, [r0, #544]
	add	r2, ip, #1
	sub	r3, r3, #1
	str	r2, [r4, #64]
	cmp	ip, r3
	add	r6, r0, r1
	addcc	r3, r1, #4048
	addcc	r3, r3, #12
	movcs	r3, #0
	addcc	r3, r0, r3
	str	r3, [r6, #4056]
	ldr	r2, [r4, #232]
	ldrb	ip, [r2]	@ zero_extendqisi2
	ldr	r3, [r2, #68]
	cmp	ip, #1
	cmpls	ip, r3
	bcs	.L1534
	add	lr, ip, #3
	add	lr, r6, lr, lsl #2
.L1535:
	mov	r3, ip, asl #5
	sub	r3, r3, ip, asl #2
	add	ip, ip, #1
	add	r2, r2, r3
	ldr	r2, [r2, #24]
	str	r2, [lr, #4]!
	ldr	r2, [r4, #232]
	add	r2, r2, r3
	ldr	r2, [r2, #20]
	str	r2, [lr, #-8]
	ldr	r2, [r4, #232]
	add	r3, r2, r3
	ldr	r3, [r3, #28]
	str	r3, [lr, #8]
	ldr	r2, [r4, #232]
	ldr	r3, [r2, #68]
	cmp	r3, ip
	movhi	r5, #1
	movls	r5, #0
	cmp	ip, #1
	movhi	r5, #0
	cmp	r5, #0
	bne	.L1535
.L1534:
	cmp	r3, #1
	bhi	.L1540
	add	r3, r3, #3
	add	ip, r6, #20
	mov	r2, #0
	add	r3, r6, r3, lsl #2
.L1539:
	str	r2, [r3, #4]!
	cmp	r3, ip
	str	r2, [r3, #-8]
	str	r2, [r3, #8]
	bne	.L1539
.L1540:
	add	r8, r4, #11141120
	ldr	r3, [fp, #-48]
	add	r8, r8, #16384
	add	r5, r4, #11075584
	cmp	r3, #0
	add	r9, r5, #36864
	ldrb	r3, [r8, #449]	@ zero_extendqisi2
	add	r5, r5, #40960
	strb	r3, [r6, #1]
	ldr	r3, [r9, #1928]
	ldr	r2, [r5, #2776]
	add	r3, r3, #26
	add	r3, r3, r2
	str	r3, [r6, #32]
	bne	.L1636
	ldr	r2, [r8, #1120]
	str	r3, [r2, #764]
	ldr	r3, [r8, #1120]
	ldr	r2, [r6, #32]
	str	r2, [r3, #768]
.L1541:
	ldr	r3, [r5, #2772]
	str	r3, [r6, #36]
	ldr	r3, [r5, #1224]
	str	r3, [r6, #40]
	ldr	r3, [r5, #1220]
	str	r3, [r6, #44]
	ldrb	r3, [r5, #1160]	@ zero_extendqisi2
	strb	r3, [r0, r1]
	ldr	r3, [r5, #1216]
	str	r3, [r6, #48]
	ldrb	r3, [r5, #1166]	@ zero_extendqisi2
	strb	r3, [r6, #2]
	ldr	r3, [r4, #236]
	ldrb	r3, [r3, #22]	@ zero_extendqisi2
	strb	r3, [r6, #3]
	ldr	r3, [r5, #1208]
	str	r3, [r6, #52]
	ldr	r3, [r5, #1212]
	str	r3, [r6, #56]
	ldrb	r3, [r5, #1160]	@ zero_extendqisi2
	cmp	r3, #1
	ldreq	r3, [r9, #1924]
	streqb	r3, [r6, #4]
	beq	.L1543
	cmp	r3, #0
	ldreqb	r3, [r9, #1882]	@ zero_extendqisi2
	movne	r3, #0
	strb	r3, [r6, #4]
.L1543:
	ldr	r3, [r9, #1932]
	str	r3, [r6, #60]
	ldr	r3, [r9, #1936]
	str	r3, [r6, #64]
	ldr	r3, [r5, #2784]
	str	r3, [r6, #68]
	ldr	r3, [r5, #2788]
	str	r3, [r6, #72]
	ldr	r3, [r5, #2780]
	str	r3, [r6, #76]
	ldrb	r3, [r5, #1160]	@ zero_extendqisi2
	cmp	r3, #2
	beq	.L1582
	ldr	r7, [r5, #1208]
	cmp	r7, #0
	beq	.L1585
	ldr	r3, [r4, #256]
	ldr	r2, [r3, #4]
	ldrb	r3, [r2, #1]	@ zero_extendqisi2
	cmp	r3, #0
	addne	r1, r4, #256
	movne	r3, #0
	bne	.L1550
	b	.L1548
.L1552:
	ldr	r2, [r1, #4]!
	ldr	r2, [r2, #4]
	ldrb	r0, [r2, #1]	@ zero_extendqisi2
	cmp	r0, #0
	beq	.L1548
.L1550:
	add	r3, r3, #1
	cmp	r3, r7
	bne	.L1552
	mov	r3, #0
	str	r3, [fp, #-52]
.L1547:
	ldr	ip, [r5, #1212]
	cmp	ip, #0
	beq	.L1586
	ldr	r3, [r4, #388]
	ldr	r2, [r3, #4]
	ldrb	r3, [r2, #1]	@ zero_extendqisi2
	cmp	r3, #0
	addne	r1, r4, #388
	movne	r3, #0
	bne	.L1556
	b	.L1554
.L1558:
	ldr	r2, [r1, #4]!
	ldr	r2, [r2, #4]
	ldrb	r0, [r2, #1]	@ zero_extendqisi2
	cmp	r0, #0
	beq	.L1554
.L1556:
	add	r3, r3, #1
	cmp	r3, ip
	bne	.L1558
	mov	r3, #0
	str	r3, [fp, #-56]
.L1553:
	ldrb	ip, [r8, #443]	@ zero_extendqisi2
	ldr	r3, [r5, #1208]
	cmp	ip, #0
	beq	.L1559
	cmp	r3, #0
	beq	.L1574
	mov	r3, r6
	mov	r7, #0
	str	r6, [fp, #-60]
	add	r10, r4, #256
	mov	r6, r7
	str	r8, [fp, #-64]
	mov	r7, r3
	mov	r8, r5
	ldr	r5, [fp, #-52]
	b	.L1573
.L1571:
	strb	r1, [r7, #1630]
	ldr	r1, [r10]
	ldrb	r1, [r1, #1]	@ zero_extendqisi2
	strb	r1, [r7, #1631]
	ldr	r1, [r10]
	ldr	r1, [r1, #16]
	str	r1, [r7, #1656]
.L1572:
	ldr	r1, [r8, #1208]
	add	r6, r6, #1
	add	r10, r10, #4
	add	r7, r7, #36
	cmp	r1, r6
	bls	.L1637
.L1573:
	ldr	r1, [r10]
	ldr	r0, [r4, #120]
	ldr	r1, [r1, #4]
	ldrsb	r1, [r1, #6]
	bl	FSP_GetLogicFs
	ldr	r1, [r10]
	ldr	r1, [r1, #4]
	ldr	r1, [r1, #48]
	str	r1, [r7, #1636]
	ldr	r1, [r10]
	ldr	r1, [r1, #4]
	ldrb	r1, [r1, #2]	@ zero_extendqisi2
	strb	r1, [r7, #1625]
	ldr	r1, [r10]
	ldr	r1, [r1, #4]
	ldrb	r1, [r1, #1]	@ zero_extendqisi2
	cmp	r1, #1
	moveq	r0, r5
	beq	.L1570
	cmp	r0, #0
	ldrne	r1, [r0, #680]
	ldrne	r0, [r1, #8]
.L1570:
	str	r0, [r7, #1640]
	ldr	r1, [r10]
	ldr	r1, [r1, #4]
	ldr	r1, [r1, #52]
	str	r1, [r7, #1644]
	ldr	r1, [r10]
	ldr	r1, [r1, #4]
	ldr	r1, [r1, #32]
	str	r1, [r7, #1632]
	ldr	r1, [r10]
	ldrb	r1, [r1]	@ zero_extendqisi2
	strb	r1, [r7, #1624]
	ldr	r1, [r10]
	ldr	r1, [r1, #4]
	ldrb	r1, [r1, #736]	@ zero_extendqisi2
	strb	r1, [r7, #1626]
	ldr	r1, [r10]
	ldrb	r1, [r1]	@ zero_extendqisi2
	cmp	r1, #1
	bne	.L1571
	strb	r1, [r7, #1628]
	ldr	r1, [r10]
	ldrb	r1, [r1, #1]	@ zero_extendqisi2
	strb	r1, [r7, #1629]
	ldr	r1, [r10]
	ldr	r1, [r1, #16]
	str	r1, [r7, #1652]
	b	.L1572
.L1637:
	mov	r5, r8
	ldr	r6, [fp, #-60]
	ldr	r8, [fp, #-64]
.L1574:
	ldrb	r3, [r5, #1160]	@ zero_extendqisi2
	cmp	r3, #1
	beq	.L1638
.L1562:
	movw	r2, #48304
	add	r3, r6, #3920
	add	r0, r6, #4048
	movt	r2, 169
	add	r3, r3, #4
	add	r2, r4, r2
	add	r0, r0, #4
.L1579:
	ldr	r1, [r2, #4]!
	str	r1, [r3, #4]!
	cmp	r3, r0
	bne	.L1579
	ldrb	r3, [r9, #1882]	@ zero_extendqisi2
	cmp	r3, #0
	str	r3, [r8, #2836]
	ldr	r3, [r9, #1924]
	str	r3, [r8, #2840]
	beq	.L1580
	ldrb	r2, [r5, #1160]	@ zero_extendqisi2
	cmp	r2, #0
	beq	.L1581
.L1580:
	cmp	r3, #1
	beq	.L1639
.L1582:
	ldr	r2, [fp, #-48]
	movw	r3, #37364
	movt	r3, 42
	ldr	r1, [r4, #232]
	add	r3, r2, r3
	mov	r2, #0
	add	r3, r4, r3, lsl #2
	str	r1, [r3, #4]
	str	r2, [r4, #232]
	sub	sp, fp, #40
	ldmfd	sp, {r4, r5, r6, r7, r8, r9, r10, fp, sp, pc}
.L1636:
	ldr	r2, [r8, #1120]
	ldr	lr, [r2, #764]
	ldr	ip, [r2, #768]
	cmp	lr, r3
	movlt	lr, r3
	cmp	ip, r3
	str	lr, [r2, #764]
	movge	ip, r3
	str	ip, [r2, #768]
	b	.L1541
.L1548:
	ldrsb	r1, [r2, #6]
	ldr	r0, [r4, #120]
	bl	FSP_GetLogicFs
	subs	r3, r0, #0
	movweq	r3, #8038
	beq	.L1632
	ldr	r3, [r3, #680]
	ldr	r3, [r3, #8]
	str	r3, [fp, #-52]
	b	.L1547
.L1639:
	ldrb	r3, [r5, #1160]	@ zero_extendqisi2
	cmp	r3, #1
	bne	.L1582
.L1581:
	ldr	r3, [r5, #1228]
	movw	r8, #42192
	movw	r7, #42320
	movw	lr, #42448
	movw	ip, #42960
	movw	r0, #43088
	str	r3, [r6, #80]
	movw	r1, #43216
	ldr	r10, [r5, #1232]
	movt	r8, 169
	movt	r7, 169
	movt	lr, 169
	movt	ip, 169
	movt	r0, 169
	movt	r1, 169
	add	r8, r4, r8
	add	r7, r4, r7
	add	lr, r4, lr
	add	ip, r4, ip
	add	r0, r4, r0
	add	r1, r4, r1
	mov	r9, r6
	mov	r3, r6
	mov	r2, #0
	str	r6, [fp, #-52]
	str	r10, [r9, #84]!
.L1583:
	ldr	r10, [r8, #4]!
	add	r2, r2, #1
	add	r3, r3, #4
	str	r10, [r9, #4]!
	ldr	r10, [r7, #4]!
	str	r10, [r3, #212]
	ldr	r10, [lr, #4]!
	str	r10, [r3, #340]
	ldr	r10, [ip, #4]!
	str	r10, [r3, #852]
	ldr	r10, [r0, #4]!
	str	r10, [r3, #980]
	ldr	r10, [r1, #4]!
	str	r10, [r3, #1108]
	ldr	r10, [r5, #1220]
	cmp	r10, r2
	bcs	.L1583
	ldrb	r3, [r5, #1160]	@ zero_extendqisi2
	cmp	r3, #1
	bne	.L1582
	movw	r7, #42576
	movw	lr, #42704
	movw	ip, #42832
	movw	r0, #43344
	movw	r1, #43472
	movw	r2, #43600
	ldr	r8, [fp, #-52]
	movt	r7, 169
	movt	lr, 169
	movt	ip, 169
	movt	r0, 169
	movt	r1, 169
	movt	r2, 169
	add	r6, r6, #468
	add	r7, r4, r7
	add	lr, r4, lr
	add	ip, r4, ip
	add	r0, r4, r0
	add	r1, r4, r1
	add	r2, r4, r2
	mov	r3, #0
.L1584:
	ldr	r9, [r7, #4]!
	add	r3, r3, #1
	add	r8, r8, #4
	str	r9, [r6, #4]!
	ldr	r9, [lr, #4]!
	str	r9, [r8, #596]
	ldr	r9, [ip, #4]!
	str	r9, [r8, #724]
	ldr	r9, [r0, #4]!
	str	r9, [r8, #1236]
	ldr	r9, [r1, #4]!
	str	r9, [r8, #1364]
	ldr	r9, [r2, #4]!
	str	r9, [r8, #1492]
	ldr	r9, [r5, #1224]
	cmp	r9, r3
	bcs	.L1584
	b	.L1582
.L1559:
	cmp	r3, #0
	beq	.L1567
	add	r2, r4, #256
	str	r8, [fp, #-64]
	mov	r8, r5
	ldr	r5, [fp, #-52]
	mov	r7, r6
	str	r6, [fp, #-60]
	mov	r10, r2
	mov	r6, ip
.L1566:
	ldr	r1, [r10]
	ldr	r0, [r4, #120]
	ldr	r1, [r1, #4]
	ldrsb	r1, [r1, #6]
	bl	FSP_GetLogicFs
	ldr	r1, [r10]
	ldr	r1, [r1, #4]
	ldr	r1, [r1, #48]
	str	r1, [r7, #1636]
	ldr	r1, [r10]
	ldr	r1, [r1, #4]
	ldrb	r1, [r1, #2]	@ zero_extendqisi2
	strb	r1, [r7, #1625]
	ldr	r1, [r10]
	ldr	r1, [r1, #4]
	ldrb	r1, [r1, #1]	@ zero_extendqisi2
	cmp	r1, #1
	moveq	r0, r5
	beq	.L1565
	cmp	r0, #0
	ldrne	r1, [r0, #680]
	ldrne	r0, [r1, #8]
.L1565:
	str	r0, [r7, #1640]
	mov	r3, #0
	ldr	r1, [r10]
	add	r6, r6, #1
	add	r7, r7, #36
	ldr	r1, [r1, #4]
	ldr	r1, [r1, #52]
	str	r1, [r7, #1608]
	ldr	r1, [r10]
	ldr	r1, [r1, #4]
	ldr	r1, [r1, #32]
	str	r1, [r7, #1596]
	ldr	r1, [r10]
	ldrb	r1, [r1, #1]	@ zero_extendqisi2
	strb	r1, [r7, #1591]
	ldr	r1, [r10]
	ldrb	r1, [r1]	@ zero_extendqisi2
	strb	r1, [r7, #1590]
	ldr	r1, [r10]
	ldr	r1, [r1, #4]
	ldr	r1, [r1, #752]
	str	r1, [r7, #1612]
	ldr	r1, [r10]
	ldr	r1, [r1, #4]
	ldr	r1, [r1, #788]
	str	r1, [r7, #1616]
	ldr	r1, [r10], #4
	ldr	r1, [r1, #4]
	ldr	r1, [r1, #824]
	strb	r3, [r7, #1588]
	str	r1, [r7, #1620]
	ldr	r1, [r8, #1208]
	cmp	r1, r6
	bhi	.L1566
	mov	r5, r8
	ldr	r6, [fp, #-60]
	ldr	r8, [fp, #-64]
.L1567:
	ldrb	r3, [r5, #1160]	@ zero_extendqisi2
	cmp	r3, #1
	bne	.L1562
	ldr	r3, [r5, #1212]
	cmp	r3, #0
	beq	.L1562
	add	r3, r4, #388
	str	r8, [fp, #-60]
	mov	r8, r5
	ldr	r5, [fp, #-56]
	mov	r7, #0
	mov	r10, r6
	str	r6, [fp, #-52]
	mov	r6, r7
	mov	r7, r3
.L1569:
	ldr	r1, [r7]
	ldr	r0, [r4, #120]
	ldr	r1, [r1, #4]
	ldrsb	r1, [r1, #6]
	bl	FSP_GetLogicFs
	ldr	r1, [r7]
	ldr	r1, [r1, #4]
	ldr	r1, [r1, #48]
	str	r1, [r10, #2788]
	ldr	r1, [r7]
	ldr	r1, [r1, #4]
	ldrb	r1, [r1, #2]	@ zero_extendqisi2
	strb	r1, [r10, #2777]
	ldr	r1, [r7]
	ldr	r1, [r1, #4]
	ldrb	r1, [r1, #1]	@ zero_extendqisi2
	cmp	r1, #1
	moveq	r0, r5
	beq	.L1568
	cmp	r0, #0
	ldrne	r1, [r0, #680]
	ldrne	r0, [r1, #8]
.L1568:
	str	r0, [r10, #1640]
	mov	r3, #0
	ldr	r1, [r7]
	add	r6, r6, #1
	add	r10, r10, #36
	ldr	r1, [r1, #4]
	ldr	r1, [r1, #52]
	str	r1, [r10, #2760]
	ldr	r1, [r7]
	ldr	r1, [r1, #4]
	ldr	r1, [r1, #32]
	str	r1, [r10, #2748]
	ldr	r1, [r7]
	ldrb	r1, [r1, #1]	@ zero_extendqisi2
	strb	r1, [r10, #2743]
	ldr	r1, [r7]
	ldrb	r1, [r1]	@ zero_extendqisi2
	strb	r1, [r10, #2742]
	ldr	r1, [r7]
	ldr	r1, [r1, #4]
	ldr	r1, [r1, #752]
	str	r1, [r10, #2764]
	ldr	r1, [r7]
	ldr	r1, [r1, #4]
	ldr	r1, [r1, #788]
	str	r1, [r10, #2768]
	ldr	r1, [r7], #4
	ldr	r1, [r1, #4]
	ldr	r1, [r1, #824]
	strb	r3, [r10, #2740]
	str	r1, [r10, #2772]
	ldr	r1, [r8, #1212]
	cmp	r1, r6
	bhi	.L1569
.L1631:
	mov	r5, r8
	ldr	r6, [fp, #-52]
	ldr	r8, [fp, #-60]
	b	.L1562
.L1554:
	ldrsb	r1, [r2, #6]
	ldr	r0, [r4, #120]
	bl	FSP_GetLogicFs
	subs	r3, r0, #0
	beq	.L1640
	ldr	r3, [r3, #680]
	ldr	r3, [r3, #8]
	str	r3, [fp, #-56]
	b	.L1553
.L1638:
	ldr	r3, [r5, #1212]
	cmp	r3, #0
	beq	.L1562
	mov	r3, #0
	mov	r10, r6
	str	r6, [fp, #-52]
	add	r7, r4, #388
	str	r8, [fp, #-60]
	mov	r6, r3
	mov	r8, r5
	ldr	r5, [fp, #-56]
	b	.L1578
.L1576:
	strb	r1, [r10, #2782]
	ldr	r1, [r7]
	ldrb	r1, [r1, #1]	@ zero_extendqisi2
	strb	r1, [r10, #2783]
	ldr	r1, [r7]
	ldr	r1, [r1, #16]
	str	r1, [r10, #2808]
.L1577:
	ldr	r1, [r8, #1212]
	add	r6, r6, #1
	add	r7, r7, #4
	add	r10, r10, #36
	cmp	r1, r6
	bls	.L1631
.L1578:
	ldr	r1, [r7]
	ldr	r0, [r4, #120]
	ldr	r1, [r1, #4]
	ldrsb	r1, [r1, #6]
	bl	FSP_GetLogicFs
	ldr	r1, [r7]
	ldr	r1, [r1, #4]
	ldr	r1, [r1, #48]
	str	r1, [r10, #2788]
	ldr	r1, [r7]
	ldr	r1, [r1, #4]
	ldrb	r1, [r1, #2]	@ zero_extendqisi2
	strb	r1, [r10, #2777]
	ldr	r1, [r7]
	ldr	r1, [r1, #4]
	ldrb	r1, [r1, #1]	@ zero_extendqisi2
	cmp	r1, #1
	moveq	r0, r5
	beq	.L1575
	cmp	r0, #0
	ldrne	r1, [r0, #680]
	ldrne	r0, [r1, #8]
.L1575:
	str	r0, [r10, #2792]
	ldr	r1, [r7]
	ldr	r1, [r1, #4]
	ldr	r1, [r1, #52]
	str	r1, [r10, #2796]
	ldr	r1, [r7]
	ldr	r1, [r1, #4]
	ldr	r1, [r1, #32]
	str	r1, [r10, #2784]
	ldr	r1, [r7]
	ldrb	r1, [r1]	@ zero_extendqisi2
	strb	r1, [r10, #2776]
	ldr	r1, [r7]
	ldr	r1, [r1, #4]
	ldrb	r1, [r1, #736]	@ zero_extendqisi2
	strb	r1, [r10, #2778]
	ldr	r1, [r7]
	ldrb	r1, [r1]	@ zero_extendqisi2
	cmp	r1, #1
	bne	.L1576
	strb	r1, [r10, #2780]
	ldr	r1, [r7]
	ldrb	r1, [r1, #1]	@ zero_extendqisi2
	strb	r1, [r10, #2781]
	ldr	r1, [r7]
	ldr	r1, [r1, #16]
	str	r1, [r10, #2804]
	b	.L1577
.L1640:
	movw	r3, #8059
.L1632:
	ldr	r2, .L1641
	ldr	r1, .L1641+4
	sub	sp, fp, #40
	ldmfd	sp, {r4, r5, r6, r7, r8, r9, r10, fp, sp, lr}
	b	dprint_vfmw
.L1585:
	str	r7, [fp, #-52]
	b	.L1547
.L1586:
	str	ip, [fp, #-56]
	b	.L1553
.L1642:
	.align	2
.L1641:
	.word	.LANCHOR0+80
	.word	.LC38
	UNWIND(.fnend)
	.size	MVC_WriteSliceMsg, .-MVC_WriteSliceMsg
	.align	2
	.global	MVC_StopPicNum
	.type	MVC_StopPicNum, %function
MVC_StopPicNum:
	UNWIND(.fnstart)
	@ args = 0, pretend = 0, frame = 0
	@ frame_needed = 1, uses_anonymous_args = 0
	UNWIND(.movsp ip)
	mov	ip, sp
	stmfd	sp!, {fp, ip, lr, pc}
	UNWIND(.pad #4)
	UNWIND(.save {fp, ip, lr})
	UNWIND(.setfp fp, ip, #-4)
	sub	fp, ip, #4
	ldmfd	sp, {fp, sp, pc}
	UNWIND(.fnend)
	.size	MVC_StopPicNum, .-MVC_StopPicNum
	.align	2
	.global	MVC_GetPicStreamSize
	.type	MVC_GetPicStreamSize, %function
MVC_GetPicStreamSize:
	UNWIND(.fnstart)
	@ args = 0, pretend = 0, frame = 0
	@ frame_needed = 1, uses_anonymous_args = 0
	UNWIND(.movsp ip)
	mov	ip, sp
	stmfd	sp!, {fp, ip, lr, pc}
	UNWIND(.pad #4)
	UNWIND(.save {fp, ip, lr})
	UNWIND(.setfp fp, ip, #-4)
	sub	fp, ip, #4
	add	r0, r0, #11141120
	add	r0, r0, #16384
	ldr	r2, [r0, #3608]
	cmp	r2, #0
	beq	.L1647
	mov	r0, #0
.L1646:
	ldr	r3, [r2, #8]
	ldr	r1, [r2, #12]
	ldr	r2, [r2, #4056]
	add	r3, r3, r1
	add	r3, r3, #7
	cmp	r2, #0
	add	r0, r0, r3, lsr #3
	bne	.L1646
	ldmfd	sp, {fp, sp, pc}
.L1647:
	mov	r0, r2
	ldmfd	sp, {fp, sp, pc}
	UNWIND(.fnend)
	.size	MVC_GetPicStreamSize, .-MVC_GetPicStreamSize
	.align	2
	.global	MVC_SliceCheck
	.type	MVC_SliceCheck, %function
MVC_SliceCheck:
	UNWIND(.fnstart)
	@ args = 0, pretend = 0, frame = 0
	@ frame_needed = 1, uses_anonymous_args = 0
	UNWIND(.movsp ip)
	mov	ip, sp
	stmfd	sp!, {r4, r5, r6, r7, fp, ip, lr, pc}
	UNWIND(.pad #4)
	UNWIND(.save {r4, r5, r6, r7, fp, ip, lr})
	UNWIND(.setfp fp, ip, #-4)
	sub	fp, ip, #4
	ldr	r1, .L1660
	mov	r4, r0
	add	r5, r0, #11075584
	bl	mvc_ue_v
	add	r5, r5, #40960
	str	r0, [r5, #1216]
	ldrb	r3, [r4, #10]	@ zero_extendqisi2
	cmp	r3, #0
	bne	.L1658
	cmp	r0, #262144
	bcs	.L1659
	ldr	r2, [r4, #12]
	ldr	r3, [r4, #16]
	mul	r3, r3, r2
	sub	r3, r3, #1
	cmp	r0, r3
	bhi	.L1658
	ldr	r1, .L1660+4
	mov	r0, r4
	bl	mvc_ue_v
	ldr	r1, .L1660+8
	mov	r2, r0
	mov	r6, r0
	mov	r0, #19
	bl	dprint_vfmw
	ldrb	r3, [r4, #10]	@ zero_extendqisi2
	cmp	r3, #0
	bne	.L1658
	cmp	r6, #9
	bhi	.L1654
	mov	r1, #1
	movw	r0, #297
	mov	r2, r1, asl r6
	and	r0, r0, r2
	cmp	r0, #0
	bne	.L1655
	ands	r3, r2, #660
	bne	.L1656
	tst	r2, #66
	beq	.L1654
	strb	r1, [r5, #1160]
	mov	r0, r3
	ldmfd	sp, {r4, r5, r6, r7, fp, sp, pc}
.L1655:
	strb	r3, [r5, #1160]
	mov	r0, r3
	ldmfd	sp, {r4, r5, r6, r7, fp, sp, pc}
.L1654:
	mov	r2, r6
	ldr	r1, .L1660+12
	mov	r0, #1
	bl	dprint_vfmw
.L1658:
	mvn	r0, #0
	ldmfd	sp, {r4, r5, r6, r7, fp, sp, pc}
.L1656:
	mov	r3, #2
	strb	r3, [r5, #1160]
	ldmfd	sp, {r4, r5, r6, r7, fp, sp, pc}
.L1659:
	ldr	r1, .L1660+16
	mov	r0, #1
	bl	dprint_vfmw
	mvn	r0, #0
	ldmfd	sp, {r4, r5, r6, r7, fp, sp, pc}
.L1661:
	.align	2
.L1660:
	.word	.LC39
	.word	.LC41
	.word	.LC42
	.word	.LC43
	.word	.LC40
	UNWIND(.fnend)
	.size	MVC_SliceCheck, .-MVC_SliceCheck
	.align	2
	.global	MVC_PPSSPSCheck
	.type	MVC_PPSSPSCheck, %function
MVC_PPSSPSCheck:
	UNWIND(.fnstart)
	@ args = 0, pretend = 0, frame = 0
	@ frame_needed = 1, uses_anonymous_args = 0
	UNWIND(.movsp ip)
	mov	ip, sp
	stmfd	sp!, {r4, r5, fp, ip, lr, pc}
	UNWIND(.pad #4)
	UNWIND(.save {r4, r5, fp, ip, lr})
	UNWIND(.setfp fp, ip, #-4)
	sub	fp, ip, #4
	add	r5, r0, #11075584
	mov	r4, r0
	add	r5, r5, #40960
	ldr	r1, .L1674
	mov	r0, #19
	ldr	r2, [r5, #1176]
	bl	dprint_vfmw
	ldr	r3, [r4, #252]
	ldr	r2, [r5, #1176]
	mov	r1, #2240
	mla	r1, r1, r2, r3
	ldrb	r3, [r1, #19]	@ zero_extendqisi2
	cmp	r3, #0
	beq	.L1672
	ldrb	r3, [r5, #1172]	@ zero_extendqisi2
	sxtb	r5, r3
	cmn	r5, #1
	beq	.L1673
	cmp	r3, #0
	bne	.L1667
	ldr	r2, [r1, #28]
	movw	r3, #8500
	movt	r3, 5
	mul	r3, r3, r2
	add	r0, r4, r3
	add	ip, r0, #12992
	add	r3, r0, #286720
	add	ip, ip, #8
	add	r3, r3, #932
	ldrb	ip, [ip, #4]	@ zero_extendqisi2
	cmp	ip, #0
	beq	.L1668
	add	r0, r0, #286720
	ldrb	r0, [r0, #957]	@ zero_extendqisi2
	cmp	r0, #0
	beq	.L1668
.L1666:
	mov	r0, #0
	str	r1, [r4, #244]
	str	r3, [r4, #240]
	ldmfd	sp, {r4, r5, fp, sp, pc}
.L1673:
	ldr	r0, [r4, #248]
	movw	r3, #3992
	ldr	r2, [r1, #28]
	mla	r3, r3, r2, r0
	ldrb	r0, [r3, #25]	@ zero_extendqisi2
	cmp	r0, #0
	bne	.L1666
	ldr	r1, .L1674+4
	mov	r0, #1
	bl	dprint_vfmw
	mov	r0, r5
	ldmfd	sp, {r4, r5, fp, sp, pc}
.L1668:
	ldr	r1, .L1674+8
	mov	r0, #1
	bl	dprint_vfmw
	mvn	r0, #0
	ldmfd	sp, {r4, r5, fp, sp, pc}
.L1672:
	ldr	r1, .L1674+12
	mov	r0, #1
	bl	dprint_vfmw
	mvn	r0, #0
	ldmfd	sp, {r4, r5, fp, sp, pc}
.L1667:
	mov	r2, r5
	ldr	r1, .L1674+16
	mov	r0, #1
	bl	dprint_vfmw
	mvn	r0, #0
	ldmfd	sp, {r4, r5, fp, sp, pc}
.L1675:
	.align	2
.L1674:
	.word	.LC44
	.word	.LC46
	.word	.LC47
	.word	.LC45
	.word	.LC32
	UNWIND(.fnend)
	.size	MVC_PPSSPSCheck, .-MVC_PPSSPSCheck
	.align	2
	.global	MVC_PPSSPSCheckTmpId
	.type	MVC_PPSSPSCheckTmpId, %function
MVC_PPSSPSCheckTmpId:
	UNWIND(.fnstart)
	@ args = 0, pretend = 0, frame = 0
	@ frame_needed = 1, uses_anonymous_args = 0
	UNWIND(.movsp ip)
	mov	ip, sp
	stmfd	sp!, {r4, r5, fp, ip, lr, pc}
	UNWIND(.pad #4)
	UNWIND(.save {r4, r5, fp, ip, lr})
	UNWIND(.setfp fp, ip, #-4)
	sub	fp, ip, #4
	mov	r2, r1
	mov	r5, r1
	mov	r4, r0
	ldr	r1, .L1685
	mov	r0, #19
	bl	dprint_vfmw
	ldr	r2, [r4, #252]
	mov	r3, #2240
	mla	r3, r3, r5, r2
	ldrb	r2, [r3, #19]	@ zero_extendqisi2
	cmp	r2, #0
	beq	.L1682
	ldr	r1, [r4, #36]
	ldr	r2, [r3, #28]
	sub	r3, r1, #1
	cmp	r2, r3
	bhi	.L1683
	add	r3, r4, #11075584
	movw	r1, #1172
	add	r3, r3, #40960
	ldrsb	r5, [r3, r1]
	cmn	r5, #1
	beq	.L1684
.L1681:
	mov	r0, #0
	ldmfd	sp, {r4, r5, fp, sp, pc}
.L1684:
	ldr	r1, [r4, #248]
	movw	r3, #3992
	mla	r3, r3, r2, r1
	ldrb	r3, [r3, #25]	@ zero_extendqisi2
	cmp	r3, #0
	bne	.L1681
	ldr	r1, .L1685+4
	mov	r0, #1
	bl	dprint_vfmw
	mov	r0, r5
	ldmfd	sp, {r4, r5, fp, sp, pc}
.L1682:
	mov	r2, r5
	ldr	r1, .L1685+8
	mov	r0, #1
	bl	dprint_vfmw
	mvn	r0, #0
	ldmfd	sp, {r4, r5, fp, sp, pc}
.L1683:
	ldr	r1, .L1685+12
	mov	r0, #1
	bl	dprint_vfmw
	mvn	r0, #0
	ldmfd	sp, {r4, r5, fp, sp, pc}
.L1686:
	.align	2
.L1685:
	.word	.LC48
	.word	.LC51
	.word	.LC49
	.word	.LC50
	UNWIND(.fnend)
	.size	MVC_PPSSPSCheckTmpId, .-MVC_PPSSPSCheckTmpId
	.align	2
	.global	MVC_IsNewPic
	.type	MVC_IsNewPic, %function
MVC_IsNewPic:
	UNWIND(.fnstart)
	@ args = 0, pretend = 0, frame = 0
	@ frame_needed = 1, uses_anonymous_args = 0
	UNWIND(.movsp ip)
	mov	ip, sp
	stmfd	sp!, {r4, r5, r6, r7, fp, ip, lr, pc}
	UNWIND(.pad #4)
	UNWIND(.save {r4, r5, r6, r7, fp, ip, lr})
	UNWIND(.setfp fp, ip, #-4)
	sub	fp, ip, #4
	add	ip, r0, #11075584
	ldr	lr, [r0, #236]
	add	r3, ip, #40960
	ldr	r1, [lr, #744]
	ldr	r0, [r3, #2824]
	ldr	r2, [r3, #2828]
	ldr	r4, [r3, #1176]
	ldr	r6, [r3, #2832]
	cmp	r2, r4
	cmpeq	r0, r1
	ldr	r5, [r3, #1188]
	ldrb	r4, [r3, #2816]	@ zero_extendqisi2
	ldrb	r0, [r3, #1161]	@ zero_extendqisi2
	movne	r1, #1
	moveq	r1, #0
	cmp	r6, r5
	moveq	r2, r1
	orrne	r2, r1, #1
	cmp	r4, r0
	orrne	r2, r2, #1
	cmp	r4, #0
	cmpne	r0, #0
	beq	.L1689
	ldrb	r0, [r3, #2817]	@ zero_extendqisi2
	ldrb	r1, [r3, #1162]	@ zero_extendqisi2
	cmp	r0, r1
	orrne	r2, r2, #1
.L1689:
	ldrb	r1, [r3, #2819]	@ zero_extendqisi2
	ldrb	r0, [r3, #1168]	@ zero_extendqisi2
	cmp	r1, r0
	moveq	r1, #0
	beq	.L1690
	cmp	r0, #0
	cmpne	r1, #0
	moveq	r1, #1
	movne	r1, #0
.L1690:
	ldrb	r0, [r3, #2818]	@ zero_extendqisi2
	ldrb	r4, [r3, #1163]	@ zero_extendqisi2
	cmp	r0, r4
	orrne	r2, r2, #1
	cmp	r4, #5
	cmpeq	r0, #5
	orr	r2, r2, r1
	beq	.L1702
.L1691:
	ldr	r1, [lr, #2900]
	cmp	r1, #0
	bne	.L1692
	ldr	r1, [r3, #2840]
	ldr	r0, [r3, #2844]
	ldr	r4, [r3, #32]
	ldr	lr, [r3, #28]
	cmp	r1, lr
	cmpeq	r0, r4
	movne	r1, #1
	moveq	r1, #0
	orr	r2, r2, r1
.L1693:
	ldrb	r1, [r3, #1171]	@ zero_extendqisi2
	cmp	r1, #0
	beq	.L1694
	ldr	r1, [r3, #2860]
	ldrb	r0, [r3, #2820]	@ zero_extendqisi2
	ldrb	r6, [r3, #1169]	@ zero_extendqisi2
	ldr	r5, [r3, #2800]
	ldrb	r4, [r3, #2821]	@ zero_extendqisi2
	cmp	r1, r5
	cmpeq	r0, r6
	ldrb	lr, [r3, #1170]	@ zero_extendqisi2
	movne	r1, #1
	moveq	r1, #0
	cmp	r4, lr
	moveq	r3, r1
	orrne	r3, r1, #1
	orr	r2, r2, r3
.L1694:
	add	r3, ip, #40960
	ldr	r1, .L1703
	mov	r0, #19
	ldr	r4, [r3, #1216]
	cmp	r4, #0
	movne	r4, r2
	orreq	r4, r2, #1
	mov	r2, r4
	bl	dprint_vfmw
	mov	r0, r4
	ldmfd	sp, {r4, r5, r6, r7, fp, sp, pc}
.L1692:
	cmp	r1, #1
	bne	.L1693
	ldr	r1, [r3, #2848]
	ldr	r0, [r3, #2852]
	ldr	r4, [r3, #68]
	ldr	lr, [r3, #64]
	cmp	r1, lr
	cmpeq	r0, r4
	movne	r1, #1
	moveq	r1, #0
	orr	r2, r2, r1
	b	.L1693
.L1702:
	ldr	r0, [r3, #2836]
	ldr	r1, [r3, #1204]
	cmp	r0, r1
	orrne	r2, r2, #1
	b	.L1691
.L1704:
	.align	2
.L1703:
	.word	.LC52
	UNWIND(.fnend)
	.size	MVC_IsNewPic, .-MVC_IsNewPic
	.align	2
	.global	mvc_ref_pic_list_reordering
	.type	mvc_ref_pic_list_reordering, %function
mvc_ref_pic_list_reordering:
	UNWIND(.fnstart)
	@ args = 0, pretend = 0, frame = 0
	@ frame_needed = 1, uses_anonymous_args = 0
	UNWIND(.movsp ip)
	mov	ip, sp
	stmfd	sp!, {r4, r5, r6, r7, r8, r9, fp, ip, lr, pc}
	UNWIND(.pad #4)
	UNWIND(.save {r4, r5, r6, r7, r8, r9, fp, ip, lr})
	UNWIND(.setfp fp, ip, #-4)
	sub	fp, ip, #4
	add	r4, r0, #11075584
	ldr	r2, [r0, #240]
	add	r4, r4, #40960
	mov	r5, r0
	mov	r3, #0
	mov	r6, #1
	ldrb	r0, [r4, #1171]	@ zero_extendqisi2
	ldrb	r1, [r4, #1161]	@ zero_extendqisi2
	cmp	r0, r3
	strb	r3, [r4, #108]
	strb	r3, [r4, #109]
	movne	r7, #5
	moveq	r7, #3
	cmp	r1, r3
	ldr	r3, [r2, #2896]
	addne	r3, r3, #5
	addeq	r3, r3, #4
	mov	r6, r6, asl r3
	ldrb	r3, [r4, #1160]	@ zero_extendqisi2
	cmp	r3, #1
	bls	.L1760
.L1759:
	ldrb	r3, [r5, #10]	@ zero_extendqisi2
.L1726:
	adds	r3, r3, #0
	movne	r3, #1
	rsb	r0, r3, #0
	ldmfd	sp, {r4, r5, r6, r7, r8, r9, fp, sp, pc}
.L1760:
	ldr	r1, .L1767
	mov	r0, r5
	bl	mvc_u_1
	uxtb	r0, r0
	strb	r0, [r4, #108]
	cmp	r0, #0
	beq	.L1716
	ldr	r3, [r4, #1220]
	cmn	r3, #2
	beq	.L1742
	movw	r9, #41068
	mov	r8, #0
	movt	r9, 169
	add	r9, r5, r9
	b	.L1723
.L1717:
	cmp	r0, #2
	beq	.L1761
	sub	r0, r0, #4
	cmp	r0, #1
	bls	.L1762
.L1720:
	ldr	r3, [r4, #1220]
	add	r8, r8, #1
	add	r3, r3, #2
	cmp	r3, r8
	bls	.L1763
.L1723:
	ldr	r1, .L1767+4
	mov	r0, r5
	bl	mvc_ue_v
	cmp	r7, r0
	str	r0, [r9, #4]!
	ldrb	r3, [r5, #10]	@ zero_extendqisi2
	bcc	.L1713
	cmp	r3, #0
	bne	.L1713
	cmp	r0, #3
	beq	.L1716
	cmp	r0, #1
	bhi	.L1717
	ldr	r1, .L1767+8
	mov	r0, r5
	bl	mvc_ue_v
	cmp	r6, r0
	str	r0, [r9, #264]
	ldrb	r3, [r5, #10]	@ zero_extendqisi2
	bls	.L1719
	cmp	r3, #0
	beq	.L1720
.L1719:
	mov	r2, r0
	ldr	r1, .L1767+12
	mov	r0, #1
	bl	dprint_vfmw
	mvn	r0, #0
	ldmfd	sp, {r4, r5, r6, r7, r8, r9, fp, sp, pc}
.L1716:
	ldrb	r3, [r4, #1160]	@ zero_extendqisi2
	cmp	r3, #1
	bne	.L1759
	ldr	r1, .L1767+16
	mov	r0, r5
	bl	mvc_u_1
	uxtb	r0, r0
	strb	r0, [r4, #109]
	cmp	r0, #0
	beq	.L1759
	ldr	r3, [r4, #1224]
	cmn	r3, #2
	beq	.L1759
	movw	r9, #41200
	mov	r8, #0
	movt	r9, 169
	add	r9, r5, r9
	b	.L1739
.L1738:
	add	r8, r8, #1
	cmp	r8, r3
	bcs	.L1759
.L1739:
	ldr	r1, .L1767+20
	mov	r0, r5
	bl	mvc_ue_v
	cmp	r7, r0
	str	r0, [r9, #4]!
	ldrb	r3, [r5, #10]	@ zero_extendqisi2
	bcc	.L1730
	cmp	r3, #0
	bne	.L1730
	cmp	r0, #3
	beq	.L1726
	cmp	r0, #1
	bls	.L1764
	cmp	r0, #2
	beq	.L1765
	sub	r0, r0, #4
	cmp	r0, #1
	bls	.L1766
	ldr	r3, [r4, #1224]
	add	r3, r3, #2
	cmp	r3, r8
	bne	.L1738
.L1740:
	ldr	r1, .L1767+24
	mov	r0, #1
	bl	dprint_vfmw
	mvn	r0, #0
	ldmfd	sp, {r4, r5, r6, r7, r8, r9, fp, sp, pc}
.L1764:
	ldr	r1, .L1767+28
	mov	r0, r5
	bl	mvc_ue_v
	cmp	r6, r0
	str	r0, [r9, #264]
	ldrb	r3, [r5, #10]	@ zero_extendqisi2
	bls	.L1734
	cmp	r3, #0
	bne	.L1734
.L1735:
	ldr	r2, [r4, #1224]
	add	r3, r2, #2
	cmp	r3, r8
	bne	.L1738
	movw	r1, #26686
	movt	r1, 42
	add	r1, r2, r1
	add	r1, r5, r1, lsl #2
	ldr	r2, [r1, #4]
	cmp	r2, #3
	beq	.L1738
	b	.L1740
.L1761:
	ldr	r1, .L1767+32
	mov	r0, r5
	bl	mvc_ue_v
	str	r0, [r9, #528]
	b	.L1720
.L1765:
	ldr	r1, .L1767+36
	mov	r0, r5
	bl	mvc_ue_v
	str	r0, [r9, #524]
	b	.L1735
.L1762:
	ldr	r1, .L1767+40
	mov	r0, r5
	bl	mvc_ue_v
	str	r0, [r9, #784]
	b	.L1720
.L1766:
	ldr	r1, .L1767+44
	mov	r0, r5
	bl	mvc_ue_v
	str	r0, [r9, #784]
	b	.L1735
.L1713:
	mov	r2, r0
	ldr	r1, .L1767+48
	mov	r0, #1
	bl	dprint_vfmw
	mvn	r0, #0
	ldmfd	sp, {r4, r5, r6, r7, r8, r9, fp, sp, pc}
.L1730:
	mov	r2, r0
	ldr	r1, .L1767+52
	mov	r0, #1
	bl	dprint_vfmw
	mvn	r0, #0
	ldmfd	sp, {r4, r5, r6, r7, r8, r9, fp, sp, pc}
.L1763:
	cmp	r8, r3
	bne	.L1716
.L1711:
	movw	r2, #26650
	movt	r2, 42
	add	r2, r3, r2
	add	r2, r5, r2, lsl #2
	ldr	r3, [r2, #8]
	cmp	r3, #3
	beq	.L1716
	ldr	r1, .L1767+56
	mov	r0, #1
	bl	dprint_vfmw
	mvn	r0, #0
	ldmfd	sp, {r4, r5, r6, r7, r8, r9, fp, sp, pc}
.L1734:
	mov	r2, r0
	ldr	r1, .L1767+60
	mov	r0, #1
	bl	dprint_vfmw
	mvn	r0, #0
	ldmfd	sp, {r4, r5, r6, r7, r8, r9, fp, sp, pc}
.L1742:
	mov	r3, #0
	b	.L1711
.L1768:
	.align	2
.L1767:
	.word	.LC53
	.word	.LC54
	.word	.LC56
	.word	.LC57
	.word	.LC61
	.word	.LC62
	.word	.LC68
	.word	.LC64
	.word	.LC58
	.word	.LC66
	.word	.LC59
	.word	.LC67
	.word	.LC55
	.word	.LC63
	.word	.LC60
	.word	.LC65
	UNWIND(.fnend)
	.size	mvc_ref_pic_list_reordering, .-mvc_ref_pic_list_reordering
	.align	2
	.global	mvc_pred_weight_table
	.type	mvc_pred_weight_table, %function
mvc_pred_weight_table:
	UNWIND(.fnstart)
	@ args = 0, pretend = 0, frame = 8
	@ frame_needed = 1, uses_anonymous_args = 0
	UNWIND(.movsp ip)
	mov	ip, sp
	stmfd	sp!, {r4, r5, r6, r7, r8, r9, r10, fp, ip, lr, pc}
	UNWIND(.pad #4)
	UNWIND(.save {r4, r5, r6, r7, r8, r9, r10, fp, ip, lr})
	UNWIND(.setfp fp, ip, #-4)
	sub	fp, ip, #4
	UNWIND(.pad #12)
	sub	sp, sp, #12
	ldr	r3, [r0, #244]
	ldr	r1, .L1799
	add	r6, r0, #11075584
	ldr	r7, [r0, #240]
	mov	r5, r0
	str	r3, [fp, #-48]
	bl	mvc_ue_v
	add	r6, r6, #40960
	mov	r4, #1
	str	r0, [r6, #1228]
	mov	r8, r4, asl r0
	ldr	r9, [r7, #748]
	cmp	r9, #0
	bne	.L1793
.L1770:
	cmp	r0, #7
	bhi	.L1773
	ldr	r3, [r6, #1232]
	cmp	r3, #7
	bhi	.L1773
	ldrb	r2, [r5, #10]	@ zero_extendqisi2
	cmp	r2, #0
	movweq	r10, #42324
	moveq	r4, r2
	movteq	r10, 169
	addeq	r10, r5, r10
	beq	.L1781
	b	.L1772
.L1777:
	ldr	r2, [r7, #748]
	cmp	r2, #0
	bne	.L1794
.L1778:
	str	r2, [r10]
	str	r2, [r10, #768]
	str	r2, [r10, #128]
	str	r2, [r10, #896]
.L1780:
	ldr	r2, [r6, #1220]
	add	r4, r4, #1
	add	r10, r10, #4
	cmp	r2, r4
	bcc	.L1795
.L1781:
	ldr	r1, .L1799+4
	mov	r0, r5
	bl	mvc_u_1
	cmp	r0, #0
	streq	r8, [r10, #-128]
	streq	r0, [r10, #640]
	beq	.L1777
	ldr	r1, .L1799+8
	mov	r0, r5
	bl	mvc_se_v
	ldr	r1, .L1799+12
	str	r0, [r10, #-128]
	mov	r0, r5
	bl	mvc_se_v
	str	r0, [r10, #640]
	ldr	r2, [r7, #748]
	cmp	r2, #0
	beq	.L1778
.L1794:
	ldr	r1, .L1799+16
	mov	r0, r5
	bl	mvc_u_1
	cmp	r0, #0
	bne	.L1796
	str	r9, [r10]
	str	r0, [r10, #768]
	str	r9, [r10, #128]
	str	r0, [r10, #896]
	b	.L1780
.L1795:
	ldr	r3, [fp, #-48]
	ldr	r3, [r3, #44]
	cmp	r3, #1
	beq	.L1782
.L1783:
	ldrb	r0, [r5, #10]	@ zero_extendqisi2
	adds	r0, r0, #0
	movne	r0, #1
	rsb	r0, r0, #0
.L1775:
	sub	sp, fp, #40
	ldmfd	sp, {r4, r5, r6, r7, r8, r9, r10, fp, sp, pc}
.L1796:
	ldr	r1, .L1799+20
	mov	r0, r5
	bl	mvc_se_v
	ldr	r1, .L1799+24
	str	r0, [r10]
	mov	r0, r5
	bl	mvc_se_v
	ldr	r1, .L1799+20
	str	r0, [r10, #768]
	mov	r0, r5
	bl	mvc_se_v
	ldr	r1, .L1799+24
	str	r0, [r10, #128]
	mov	r0, r5
	bl	mvc_se_v
	str	r0, [r10, #896]
	b	.L1780
.L1793:
	ldr	r1, .L1799+28
	mov	r0, r5
	bl	mvc_ue_v
	mov	r3, r0
	ldr	r0, [r6, #1228]
	mov	r9, r4, asl r3
	str	r3, [r6, #1232]
	b	.L1770
.L1782:
	ldrb	r3, [r6, #1160]	@ zero_extendqisi2
	cmp	r3, #1
	bne	.L1783
	movw	r4, #42708
	mov	r10, #0
	movt	r4, 169
	add	r4, r5, r4
	b	.L1789
.L1785:
	ldr	r3, [r7, #748]
	cmp	r3, #0
	bne	.L1797
.L1786:
	str	r3, [r4]
	str	r3, [r4, #768]
	str	r3, [r4, #128]
	str	r3, [r4, #896]
.L1788:
	ldr	r3, [r6, #1224]
	add	r10, r10, #1
	add	r4, r4, #4
	cmp	r3, r10
	bcc	.L1783
.L1789:
	ldr	r1, .L1799+32
	mov	r0, r5
	bl	mvc_u_1
	cmp	r0, #0
	streq	r8, [r4, #-128]
	streq	r0, [r4, #640]
	beq	.L1785
	ldr	r1, .L1799+36
	mov	r0, r5
	bl	mvc_se_v
	ldr	r1, .L1799+40
	str	r0, [r4, #-128]
	mov	r0, r5
	bl	mvc_se_v
	str	r0, [r4, #640]
	ldr	r3, [r7, #748]
	cmp	r3, #0
	beq	.L1786
.L1797:
	ldr	r1, .L1799+44
	mov	r0, r5
	bl	mvc_u_1
	cmp	r0, #0
	bne	.L1798
	str	r9, [r4]
	str	r0, [r4, #768]
	str	r9, [r4, #128]
	str	r0, [r4, #896]
	b	.L1788
.L1773:
	ldrb	r2, [r5, #10]	@ zero_extendqisi2
.L1772:
	ldr	r1, .L1799+48
	mov	r0, #1
	bl	dprint_vfmw
	mvn	r0, #0
	b	.L1775
.L1798:
	ldr	r1, .L1799+52
	mov	r0, r5
	bl	mvc_se_v
	ldr	r1, .L1799+56
	str	r0, [r4]
	mov	r0, r5
	bl	mvc_se_v
	ldr	r1, .L1799+52
	str	r0, [r4, #768]
	mov	r0, r5
	bl	mvc_se_v
	ldr	r1, .L1799+56
	str	r0, [r4, #128]
	mov	r0, r5
	bl	mvc_se_v
	str	r0, [r4, #896]
	b	.L1788
.L1800:
	.align	2
.L1799:
	.word	.LC69
	.word	.LC72
	.word	.LC73
	.word	.LC74
	.word	.LC75
	.word	.LC76
	.word	.LC77
	.word	.LC70
	.word	.LC78
	.word	.LC79
	.word	.LC80
	.word	.LC81
	.word	.LC71
	.word	.LC82
	.word	.LC83
	UNWIND(.fnend)
	.size	mvc_pred_weight_table, .-mvc_pred_weight_table
	.align	2
	.global	MVC_DecMMCO
	.type	MVC_DecMMCO, %function
MVC_DecMMCO:
	UNWIND(.fnstart)
	@ args = 0, pretend = 0, frame = 0
	@ frame_needed = 1, uses_anonymous_args = 0
	UNWIND(.movsp ip)
	mov	ip, sp
	stmfd	sp!, {r4, r5, r6, r7, r8, r9, fp, ip, lr, pc}
	UNWIND(.pad #4)
	UNWIND(.save {r4, r5, r6, r7, r8, r9, fp, ip, lr})
	UNWIND(.setfp fp, ip, #-4)
	sub	fp, ip, #4
	cmp	r1, #0
	mov	r4, r0
	moveq	r7, #100
	beq	.L1813
	mov	r9, #0
	b	.L1804
.L1835:
	ldr	r1, .L1841
	mov	r0, r4
	bl	mvc_ue_v
	cmp	r5, #2
	beq	.L1833
.L1815:
	cmp	r5, #6
	orreq	r6, r6, #1
	cmp	r6, #0
	bne	.L1818
	cmp	r5, #4
	beq	.L1834
.L1819:
	cmp	r5, #6
	bhi	.L1811
.L1816:
	ldrb	r3, [r4, #10]	@ zero_extendqisi2
	cmp	r3, #0
	bne	.L1811
	cmp	r5, #0
	beq	.L1821
.L1820:
	subs	r7, r7, #1
	beq	.L1822
.L1813:
	ldr	r1, .L1841+4
	mov	r0, r4
	bl	mvc_ue_v
	bic	r3, r0, #2
	sub	r6, r0, #3
	clz	r6, r6
	cmp	r3, #1
	mov	r5, r0
	mov	r6, r6, lsr #5
	beq	.L1835
	cmp	r5, #2
	bne	.L1815
.L1833:
	ldr	r1, .L1841+8
	mov	r0, r4
	bl	mvc_ue_v
	cmp	r6, #0
	beq	.L1816
.L1818:
	ldr	r1, .L1841+12
	mov	r0, r4
	bl	mvc_ue_v
	cmp	r5, #4
	bne	.L1819
.L1834:
	ldr	r1, .L1841+16
	mov	r0, r4
	bl	mvc_ue_v
	ldrb	r3, [r4, #10]	@ zero_extendqisi2
	cmp	r3, #0
	beq	.L1820
.L1811:
	ldr	r1, .L1841+20
	mov	r0, #1
	bl	dprint_vfmw
	mvn	r0, #0
	ldmfd	sp, {r4, r5, r6, r7, r8, r9, fp, sp, pc}
.L1840:
	ldr	r1, .L1841
	mov	r0, r4
	bl	mvc_ue_v
	ldr	r3, [r8, #4]
	cmp	r3, #2
	str	r0, [r8, #8]
	beq	.L1836
.L1807:
	cmp	r3, #3
	cmpne	r3, #6
	beq	.L1837
.L1808:
	cmp	r3, #4
	beq	.L1838
.L1809:
	cmp	r3, #6
	bhi	.L1811
	ldrb	r2, [r4, #10]	@ zero_extendqisi2
	cmp	r2, #0
	bne	.L1811
	cmp	r3, #0
	add	r9, r9, #1
	beq	.L1821
	cmp	r9, #100
	beq	.L1839
.L1804:
	ldr	r1, .L1841+4
	mov	r0, r4
	ldrb	r5, [r4, #3]	@ zero_extendqisi2
	bl	mvc_ue_v
	mov	r6, r9, asl #2
	mov	r7, r9, asl #4
	add	r1, r6, r7
	movw	r2, #2004
	movw	r8, #43824
	mla	r2, r2, r5, r1
	movt	r8, 169
	add	r2, r4, r2
	add	r8, r2, r8
	mov	r3, r0
	bic	r0, r0, #2
	cmp	r0, #1
	str	r3, [r8, #4]
	beq	.L1840
	cmp	r3, #2
	bne	.L1807
.L1836:
	ldr	r1, .L1841+8
	mov	r0, r4
	bl	mvc_ue_v
	add	r3, r6, r7
	movw	r2, #2004
	movw	r1, #43832
	mla	r3, r2, r5, r3
	movw	r2, #43824
	movt	r1, 169
	movt	r2, 169
	add	r3, r4, r3
	add	r1, r3, r1
	add	r2, r3, r2
	str	r0, [r1, #4]
	ldr	r3, [r2, #4]
	cmp	r3, #3
	cmpne	r3, #6
	bne	.L1808
.L1837:
	ldr	r1, .L1841+12
	mov	r0, r4
	bl	mvc_ue_v
	add	r3, r6, r7
	movw	r2, #2004
	movw	r1, #43832
	mla	r3, r2, r5, r3
	movw	r2, #43824
	movt	r1, 169
	movt	r2, 169
	add	r3, r4, r3
	add	r1, r3, r1
	add	r2, r3, r2
	str	r0, [r1, #8]
	ldr	r3, [r2, #4]
	cmp	r3, #4
	bne	.L1809
.L1838:
	ldr	r1, .L1841+16
	mov	r0, r4
	bl	mvc_ue_v
	add	r6, r6, r7
	movw	r7, #2004
	movw	r2, #43840
	mla	r5, r7, r5, r6
	movw	r3, #43824
	movt	r2, 169
	movt	r3, 169
	add	r5, r4, r5
	add	r2, r5, r2
	add	r3, r5, r3
	str	r0, [r2, #4]
	ldr	r3, [r3, #4]
	b	.L1809
.L1821:
	mov	r0, #0
	ldmfd	sp, {r4, r5, r6, r7, r8, r9, fp, sp, pc}
.L1839:
	ldr	r1, .L1841+24
	mov	r0, #1
	bl	dprint_vfmw
	mvn	r0, #0
	ldmfd	sp, {r4, r5, r6, r7, r8, r9, fp, sp, pc}
.L1822:
	mvn	r0, #0
	ldmfd	sp, {r4, r5, r6, r7, r8, r9, fp, sp, pc}
.L1842:
	.align	2
.L1841:
	.word	.LC86
	.word	.LC85
	.word	.LC87
	.word	.LC88
	.word	.LC89
	.word	.LC90
	.word	.LC84
	UNWIND(.fnend)
	.size	MVC_DecMMCO, .-MVC_DecMMCO
	.align	2
	.global	mvc_dec_ref_pic_marking
	.type	mvc_dec_ref_pic_marking, %function
mvc_dec_ref_pic_marking:
	UNWIND(.fnstart)
	@ args = 0, pretend = 0, frame = 0
	@ frame_needed = 1, uses_anonymous_args = 0
	UNWIND(.movsp ip)
	mov	ip, sp
	stmfd	sp!, {r4, r5, r6, r7, r8, fp, ip, lr, pc}
	UNWIND(.pad #4)
	UNWIND(.save {r4, r5, r6, r7, r8, fp, ip, lr})
	UNWIND(.setfp fp, ip, #-4)
	sub	fp, ip, #4
	UNWIND(.pad #12)
	sub	sp, sp, #12
	add	r3, r0, #11075584
	add	r3, r3, #40960
	mov	r4, r0
	ldrb	r7, [r0, #3]	@ zero_extendqisi2
	ldrb	r8, [r3, #1165]	@ zero_extendqisi2
	cmp	r8, #0
	beq	.L1844
	clz	r2, r7
	mov	r2, r2, lsr #5
	strb	r2, [r0, #3]
	mov	r6, r2
.L1853:
	ldrb	r3, [r3, #1163]	@ zero_extendqisi2
	cmp	r3, #5
	beq	.L1864
	ldr	r1, .L1868
	mov	r0, r4
	bl	mvc_u_1
	movw	r2, #2004
	mla	r6, r2, r6, r4
	movw	r5, #43824
	movt	r5, 169
	ldr	r1, .L1868+4
	add	r5, r6, r5
	mov	r3, r0
	uxtb	r2, r0
	strb	r3, [r5, #3]
	mov	r0, #16
	bl	dprint_vfmw
	ldrb	r3, [r5, #3]	@ zero_extendqisi2
	cmp	r3, #0
	bne	.L1847
.L1851:
	mov	r8, #0
.L1861:
	mov	r0, r8
	sub	sp, fp, #32
	ldmfd	sp, {r4, r5, r6, r7, r8, fp, sp, pc}
.L1844:
	movw	r2, #2004
	movw	r1, #43824
	mla	r2, r2, r7, r0
	movt	r1, 169
	movw	r5, #43824
	mov	r6, r7
	movt	r5, 169
	add	r5, r2, r5
	ldrb	r2, [r2, r1]	@ zero_extendqisi2
	cmp	r2, #0
	beq	.L1853
	ldrb	r3, [r3, #1163]	@ zero_extendqisi2
	cmp	r3, #5
	beq	.L1865
	ldr	r1, .L1868
	ldrb	r6, [r5, #3]	@ zero_extendqisi2
	bl	mvc_u_1
	cmp	r6, r0
	bne	.L1866
	ldrb	r3, [r5, #3]	@ zero_extendqisi2
	cmp	r3, #0
	beq	.L1851
	mov	r1, r8
	mov	r0, r4
	sub	sp, fp, #32
	ldmfd	sp, {r4, r5, r6, r7, r8, fp, sp, lr}
	b	MVC_DecMMCO
.L1847:
	mov	r1, #1
	mov	r0, r4
	bl	MVC_DecMMCO
	cmn	r0, #1
	mov	r8, r0
	movne	r3, #1
	movne	r8, #0
	strneb	r3, [r5]
	bne	.L1861
	mov	r3, #0
	ldr	r1, .L1868+8
	strb	r3, [r5]
	mov	r0, #1
	strb	r7, [r4, #3]
	bl	dprint_vfmw
	b	.L1861
.L1865:
	ldr	r1, .L1868+12
	ldrb	r6, [r5, #1]	@ zero_extendqisi2
	bl	mvc_u_1
	cmp	r6, r0
	bne	.L1867
	mov	r0, r4
	ldr	r1, .L1868+16
	ldrb	r4, [r5, #2]	@ zero_extendqisi2
	bl	mvc_u_1
	cmp	r4, r0
	beq	.L1851
	ldr	r1, .L1868+20
	mov	r0, #1
	bl	dprint_vfmw
	mvn	r8, #0
	b	.L1861
.L1864:
	ldr	r1, .L1868+12
	mov	r0, r4
	bl	mvc_u_1
	movw	r2, #2004
	mla	r2, r2, r6, r4
	movw	r5, #43824
	movt	r5, 169
	ldr	r1, .L1868+16
	mov	r8, #0
	add	r5, r2, r5
	strb	r0, [r5, #1]
	mov	r0, r4
	bl	mvc_u_1
	ldrb	r2, [r5, #1]	@ zero_extendqisi2
	ldr	r1, .L1868+24
	strb	r0, [r5, #2]
	mov	r0, #16
	bl	dprint_vfmw
	mov	r0, r8
	sub	sp, fp, #32
	ldmfd	sp, {r4, r5, r6, r7, r8, fp, sp, pc}
.L1866:
	ldr	r1, .L1868+28
	mov	r0, #1
	bl	dprint_vfmw
	ldr	ip, [r4, #68]
	ldr	r3, [r4, #100]
	mov	r0, #1
	ldr	r2, [r4, #88]
	mvn	r8, #0
	ldr	r1, .L1868+32
	str	ip, [sp]
	bl	dprint_vfmw
	b	.L1861
.L1867:
	ldr	r1, .L1868+36
	mov	r0, #1
	bl	dprint_vfmw
	mvn	r8, #0
	b	.L1861
.L1869:
	.align	2
.L1868:
	.word	.LC94
	.word	.LC95
	.word	.LC96
	.word	.LC91
	.word	.LC92
	.word	.LC98
	.word	.LC93
	.word	.LC99
	.word	.LC100
	.word	.LC97
	UNWIND(.fnend)
	.size	mvc_dec_ref_pic_marking, .-mvc_dec_ref_pic_marking
	.align	2
	.global	MVC_ProcessSliceHeaderFirstPart
	.type	MVC_ProcessSliceHeaderFirstPart, %function
MVC_ProcessSliceHeaderFirstPart:
	UNWIND(.fnstart)
	@ args = 0, pretend = 0, frame = 0
	@ frame_needed = 1, uses_anonymous_args = 0
	UNWIND(.movsp ip)
	mov	ip, sp
	stmfd	sp!, {r4, r5, r6, r7, r8, r9, fp, ip, lr, pc}
	UNWIND(.pad #4)
	UNWIND(.save {r4, r5, r6, r7, r8, r9, fp, ip, lr})
	UNWIND(.setfp fp, ip, #-4)
	sub	fp, ip, #4
	ldr	r1, .L1935
	mov	r4, r0
	bl	mvc_ue_v
	ldr	r3, [r4, #40]
	sub	r3, r3, #1
	cmp	r0, r3
	mov	r6, r0
	bhi	.L1871
	ldrb	r3, [r4, #10]	@ zero_extendqisi2
	cmp	r3, #0
	bne	.L1871
	mov	r1, r0
	mov	r0, r4
	bl	MVC_PPSSPSCheckTmpId
	cmp	r0, #0
	bne	.L1926
	add	r7, r4, #11075584
	mov	r0, r4
	add	r5, r7, #40960
	str	r6, [r5, #1176]
	bl	MVC_PPSSPSCheck
	subs	r8, r0, #0
	bne	.L1927
	ldr	r6, [r4, #240]
	mov	r0, r4
	ldr	r2, .L1935+4
	ldr	r9, [r4, #244]
	ldr	r1, [r6, #2896]
	add	r1, r1, #4
	bl	mvc_u_v
	str	r0, [r5, #1188]
	ldrb	r3, [r4, #10]	@ zero_extendqisi2
	cmp	r3, #0
	bne	.L1924
	adds	r0, r0, #0
	ldrb	r3, [r5, #1163]	@ zero_extendqisi2
	movne	r0, #1
	cmp	r3, #5
	movne	r0, #0
	cmp	r0, #0
	bne	.L1928
.L1877:
	mov	r3, #0
	strb	r3, [r5, #1161]
	strb	r3, [r5, #1162]
	ldrb	r3, [r6, #20]	@ zero_extendqisi2
	cmp	r3, #0
	beq	.L1929
	ldr	r2, [r6, #3948]
	ldr	r1, [r6, #3952]
	add	r3, r2, #1
	mla	r3, r1, r3, r3
.L1900:
	ldrb	r2, [r6, #21]	@ zero_extendqisi2
	cmp	r2, #0
	bne	.L1883
	strb	r2, [r5, #1164]
.L1885:
	ldr	r2, [r5, #1216]
	cmp	r2, r3
	bcs	.L1930
.L1886:
	ldrb	r3, [r5, #1163]	@ zero_extendqisi2
	cmp	r3, #5
	beq	.L1931
.L1888:
	mov	r3, #0
	str	r3, [r5, #28]
	str	r3, [r5, #32]
	ldr	r3, [r6, #2900]
	cmp	r3, #0
	beq	.L1932
.L1892:
	mov	r3, #0
	str	r3, [r5, #64]
	str	r3, [r5, #68]
	ldr	r3, [r6, #2900]
	cmp	r3, #1
	beq	.L1933
.L1895:
	ldrb	r3, [r4, #10]	@ zero_extendqisi2
	cmp	r3, #0
	bne	.L1924
	ldrb	r3, [r9, #17]	@ zero_extendqisi2
	cmp	r3, #0
	beq	.L1898
	ldr	r1, .L1935+8
	mov	r0, r4
	bl	mvc_ue_v
	cmp	r0, #0
	bne	.L1899
	ldrb	r3, [r4, #10]	@ zero_extendqisi2
	cmp	r3, #0
	beq	.L1898
.L1899:
	ldr	r1, .L1935+12
	mov	r0, #1
	bl	dprint_vfmw
	ldr	r3, .L1935+16
	ldr	ip, [r3]
	cmp	ip, #0
	beq	.L1924
	mov	r3, #0
	ldr	r0, [r4, #120]
	mov	r2, r3
	mov	r1, #102
	blx	ip
.L1924:
	mvn	r8, #0
.L1910:
	mov	r0, r8
	ldmfd	sp, {r4, r5, r6, r7, r8, r9, fp, sp, pc}
.L1929:
	ldr	r1, .L1935+20
	mov	r0, r4
	bl	mvc_u_1
	uxtb	r0, r0
	strb	r0, [r5, #1161]
	cmp	r0, #0
	bne	.L1934
	ldr	r2, [r6, #3948]
	ldrb	ip, [r6, #20]	@ zero_extendqisi2
	ldr	r1, [r6, #3952]
	add	r3, r2, #1
	cmp	ip, #0
	mla	r3, r1, r3, r3
	bne	.L1902
	mov	r3, r3, asl #1
	b	.L1900
.L1883:
	mov	r2, #1
	strb	r2, [r5, #1164]
.L1903:
	ldr	r2, [r5, #1216]
	cmp	r2, r3, lsr #1
	bcc	.L1886
	ldr	r1, .L1935+24
	mov	r0, #1
	bl	dprint_vfmw
	mvn	r8, #0
	b	.L1910
.L1934:
	ldr	r1, .L1935+28
	mov	r0, r4
	bl	mvc_u_1
	strb	r0, [r5, #1162]
	ldr	r2, [r6, #3948]
	ldrb	r0, [r6, #20]	@ zero_extendqisi2
	ldr	r1, [r6, #3952]
	add	r3, r2, #1
	cmp	r0, #0
	ldrb	r0, [r5, #1161]	@ zero_extendqisi2
	mla	r3, r1, r3, r3
	moveq	r2, #2
	beq	.L1881
.L1902:
	mov	r2, #1
.L1881:
	cmp	r0, #0
	mul	r3, r2, r3
	beq	.L1900
	cmp	r0, #1
	mov	r2, #0
	strb	r2, [r5, #1164]
	bne	.L1885
	b	.L1903
.L1898:
	mov	r0, r4
	add	r7, r7, #40960
	bl	MVC_IsNewPic
	uxtb	r0, r0
	strb	r0, [r7, #1165]
	cmp	r0, #0
	bne	.L1910
	ldr	r2, [r7, #1216]
	ldr	r3, [r7, #2856]
	cmp	r2, r3
	bhi	.L1910
	ldr	r1, .L1935+32
	mov	r0, #1
	bl	dprint_vfmw
	mvn	r8, #0
	b	.L1910
.L1932:
	ldr	r1, [r6, #2904]
	mov	r0, r4
	ldr	r2, .L1935+36
	add	r1, r1, #4
	bl	mvc_u_v
	str	r0, [r5, #28]
	ldrb	r3, [r9, #1]	@ zero_extendqisi2
	cmp	r3, #0
	beq	.L1892
	ldrb	r3, [r5, #1161]	@ zero_extendqisi2
	cmp	r3, #0
	bne	.L1892
	ldr	r1, .L1935+40
	mov	r0, r4
	bl	mvc_se_v
	str	r0, [r5, #32]
	b	.L1892
.L1933:
	ldrb	r3, [r6, #18]	@ zero_extendqisi2
	cmp	r3, #0
	bne	.L1895
	ldr	r1, .L1935+44
	mov	r0, r4
	bl	mvc_se_v
	str	r0, [r5, #64]
	ldrb	r3, [r9, #1]	@ zero_extendqisi2
	cmp	r3, #1
	bne	.L1895
	ldrb	r3, [r5, #1161]	@ zero_extendqisi2
	cmp	r3, #0
	bne	.L1895
	ldr	r1, .L1935+48
	mov	r0, r4
	bl	mvc_se_v
	str	r0, [r5, #68]
	b	.L1895
.L1871:
	mov	r2, r6
	ldr	r1, .L1935+52
	mvn	r8, #0
	mov	r0, #1
	bl	dprint_vfmw
	mov	r0, r8
	ldmfd	sp, {r4, r5, r6, r7, r8, r9, fp, sp, pc}
.L1931:
	ldr	r1, .L1935+56
	mov	r0, r4
	bl	mvc_ue_v
	cmp	r0, #65536
	str	r0, [r5, #1204]
	bcs	.L1889
	ldrb	r3, [r4, #10]	@ zero_extendqisi2
	cmp	r3, #0
	beq	.L1888
.L1889:
	ldr	r1, .L1935+60
	mov	r0, #1
	bl	dprint_vfmw
	b	.L1888
.L1926:
	ldr	r1, .L1935+64
	mov	r0, #1
	bl	dprint_vfmw
	mvn	r8, #0
	b	.L1910
.L1927:
	ldr	r1, .L1935+68
	mov	r0, #1
	bl	dprint_vfmw
	mvn	r8, #0
	b	.L1910
.L1928:
	ldr	r3, [r5, #2800]
	cmp	r3, #0
	bgt	.L1877
	ldr	r1, .L1935+72
	mov	r0, #1
	bl	dprint_vfmw
	b	.L1877
.L1930:
	ldr	r1, .L1935+76
	mov	r0, #1
	bl	dprint_vfmw
	mvn	r8, #0
	b	.L1910
.L1936:
	.align	2
.L1935:
	.word	.LC101
	.word	.LC105
	.word	.LC117
	.word	.LC118
	.word	g_event_report
	.word	.LC107
	.word	.LC109
	.word	.LC108
	.word	.LC119
	.word	.LC113
	.word	.LC114
	.word	.LC115
	.word	.LC116
	.word	.LC102
	.word	.LC111
	.word	.LC112
	.word	.LC103
	.word	.LC104
	.word	.LC106
	.word	.LC110
	UNWIND(.fnend)
	.size	MVC_ProcessSliceHeaderFirstPart, .-MVC_ProcessSliceHeaderFirstPart
	.align	2
	.global	MVC_ProcessSliceHeaderSecondPart
	.type	MVC_ProcessSliceHeaderSecondPart, %function
MVC_ProcessSliceHeaderSecondPart:
	UNWIND(.fnstart)
	@ args = 0, pretend = 0, frame = 0
	@ frame_needed = 1, uses_anonymous_args = 0
	UNWIND(.movsp ip)
	mov	ip, sp
	stmfd	sp!, {r4, r5, r6, r7, r8, r9, fp, ip, lr, pc}
	UNWIND(.pad #4)
	UNWIND(.save {r4, r5, r6, r7, r8, r9, fp, ip, lr})
	UNWIND(.setfp fp, ip, #-4)
	sub	fp, ip, #4
	add	r4, r0, #11075584
	ldr	r3, [r0, #40]
	add	r4, r4, #40960
	mov	r5, r0
	sub	r3, r3, #1
	ldr	r6, [r0, #244]
	ldr	r2, [r4, #1176]
	cmp	r3, r2
	bcc	.L1938
	ldrb	r7, [r0, #10]	@ zero_extendqisi2
	cmp	r7, #0
	bne	.L1938
	bl	MVC_PPSSPSCheck
	cmp	r0, #0
	bne	.L2020
	ldrb	r3, [r4, #1160]	@ zero_extendqisi2
	cmp	r3, #1
	beq	.L2021
.L1942:
	ldr	r2, [r6, #36]
	cmp	r3, #1
	str	r2, [r4, #1220]
	ldr	r2, [r6, #40]
	str	r2, [r4, #1224]
	bls	.L2022
	cmp	r3, #2
	beq	.L1969
.L1953:
	mov	r3, #32
	str	r3, [r4, #1224]
.L1954:
	mov	r0, r5
	bl	mvc_ref_pic_list_reordering
	subs	r8, r0, #0
	bne	.L2023
	ldrb	r3, [r6, #2]	@ zero_extendqisi2
	cmp	r3, #0
	beq	.L1956
	ldrb	r3, [r4, #1160]	@ zero_extendqisi2
	cmp	r3, #0
	moveq	r7, #1
	moveq	r2, r7
	beq	.L1957
.L1956:
	ldr	r3, [r6, #44]
	cmp	r3, #1
	beq	.L2024
.L1973:
	mov	r2, #0
.L1957:
	strb	r7, [r4, #1167]
	mov	r0, #19
	ldr	r1, .L2030
	bl	dprint_vfmw
	ldrb	r2, [r4, #1167]	@ zero_extendqisi2
	mov	r3, #0
	str	r3, [r4, #1228]
	cmp	r2, r3
	str	r3, [r4, #1232]
	bne	.L2025
.L1958:
	ldrb	r3, [r4, #1168]	@ zero_extendqisi2
	cmp	r3, #0
	bne	.L2026
.L1959:
	mov	r3, #0
	str	r3, [r4, #2772]
	ldrb	r3, [r6]	@ zero_extendqisi2
	cmp	r3, #0
	beq	.L1960
	ldrb	r3, [r4, #1160]	@ zero_extendqisi2
	cmp	r3, #1
	bls	.L2027
.L1960:
	ldr	r1, .L2030+4
	mov	r0, r5
	bl	mvc_se_v
	mov	r3, #0
	str	r3, [r4, #2780]
	str	r3, [r4, #2784]
	str	r3, [r4, #2788]
	str	r0, [r4, #2776]
	ldrb	r3, [r6, #3]	@ zero_extendqisi2
	cmp	r3, #0
	bne	.L2028
.L1989:
	mov	r0, r8
	ldmfd	sp, {r4, r5, r6, r7, r8, r9, fp, sp, pc}
.L1969:
	mov	r3, #32
	str	r3, [r4, #1220]
	b	.L1953
.L2028:
	ldr	r1, .L2030+8
	mov	r0, r5
	bl	mvc_ue_v
	cmp	r0, #2
	str	r0, [r4, #2780]
	bhi	.L1963
	ldrb	r3, [r5, #10]	@ zero_extendqisi2
	cmp	r3, #0
	bne	.L1963
	cmp	r0, #1
	beq	.L1989
	ldr	r1, .L2030+12
	mov	r0, r5
	bl	mvc_se_v
	add	r3, r0, #6
	str	r0, [r4, #2784]
	cmp	r3, #12
	bhi	.L1966
	ldrb	r3, [r5, #10]	@ zero_extendqisi2
	cmp	r3, #0
	bne	.L1966
	ldr	r1, .L2030+16
	mov	r0, r5
	bl	mvc_se_v
	add	r3, r0, #6
	str	r0, [r4, #2788]
	cmp	r3, #12
	bhi	.L1968
	ldrb	r3, [r5, #10]	@ zero_extendqisi2
	cmp	r3, #0
	beq	.L1989
.L1968:
	ldr	r1, .L2030+20
	mov	r0, #1
	bl	dprint_vfmw
	mvn	r8, #0
	b	.L1989
.L2025:
	mov	r0, r5
	bl	mvc_pred_weight_table
	cmp	r0, #0
	beq	.L1958
	ldr	r1, .L2030+24
	mov	r0, #1
	bl	dprint_vfmw
	mvn	r8, #0
	b	.L1989
.L2026:
	mov	r0, r5
	bl	mvc_dec_ref_pic_marking
	cmp	r0, #0
	beq	.L1959
	ldr	r1, .L2030+28
	mov	r0, #1
	bl	dprint_vfmw
	mvn	r8, #0
	b	.L1989
.L2024:
	ldrb	r3, [r4, #1160]	@ zero_extendqisi2
	cmp	r3, #1
	moveq	r7, r3
	moveq	r2, r7
	bne	.L1973
	b	.L1957
.L2021:
	ldr	r1, .L2030+32
	mov	r0, r5
	bl	mvc_u_1
	ldrb	r3, [r4, #1160]	@ zero_extendqisi2
	strb	r0, [r4, #1166]
	b	.L1942
.L2022:
	ldr	r1, .L2030+36
	mov	r0, r5
	bl	mvc_u_1
	cmp	r0, #0
	bne	.L1944
	ldr	r3, [r4, #1220]
.L1945:
	ldrb	r2, [r4, #1161]	@ zero_extendqisi2
	cmp	r2, #0
	bne	.L1946
	cmp	r3, #15
	bhi	.L1947
	ldr	r3, [r4, #1224]
	cmp	r3, #15
	bhi	.L2029
.L1948:
	ldrb	r3, [r5, #10]	@ zero_extendqisi2
	cmp	r3, #0
	bne	.L1947
.L1949:
	ldrb	r3, [r4, #1160]	@ zero_extendqisi2
	cmp	r3, #2
	beq	.L1969
	cmp	r3, #1
	bne	.L1953
	b	.L1954
.L1938:
	ldr	r1, .L2030+40
	mvn	r8, #0
	mov	r0, #1
	bl	dprint_vfmw
	mov	r0, r8
	ldmfd	sp, {r4, r5, r6, r7, r8, r9, fp, sp, pc}
.L2027:
	ldr	r1, .L2030+44
	mov	r0, r5
	bl	mvc_ue_v
	cmp	r0, #2
	str	r0, [r4, #2772]
	bhi	.L1961
	ldrb	r3, [r5, #10]	@ zero_extendqisi2
	cmp	r3, #0
	beq	.L1960
.L1961:
	ldr	r1, .L2030+48
	mov	r0, #1
	bl	dprint_vfmw
	mvn	r8, #0
	b	.L1989
.L1946:
	cmp	r3, #31
	bhi	.L1950
	ldr	r3, [r4, #1224]
	cmp	r3, #31
	bls	.L1951
	ldrb	r3, [r4, #1160]	@ zero_extendqisi2
	cmp	r3, #1
	bne	.L1951
.L1950:
	ldr	r1, .L2030+52
	mov	r0, #1
	bl	dprint_vfmw
	mvn	r8, #0
	b	.L1989
.L1951:
	ldrb	r3, [r5, #10]	@ zero_extendqisi2
	cmp	r3, #0
	beq	.L1949
	b	.L1950
.L2029:
	ldrb	r3, [r4, #1160]	@ zero_extendqisi2
	cmp	r3, #1
	bne	.L1948
.L1947:
	ldr	r1, .L2030+56
	mov	r0, #1
	bl	dprint_vfmw
	mvn	r8, #0
	b	.L1989
.L1944:
	ldr	r1, .L2030+60
	mov	r0, r5
	bl	mvc_ue_v
	ldrb	r2, [r4, #1160]	@ zero_extendqisi2
	cmp	r2, #1
	mov	r3, r0
	str	r0, [r4, #1220]
	bne	.L1945
	ldr	r1, .L2030+64
	mov	r0, r5
	bl	mvc_ue_v
	ldr	r3, [r4, #1220]
	str	r0, [r4, #1224]
	b	.L1945
.L1966:
	ldr	r1, .L2030+68
	mov	r0, #1
	bl	dprint_vfmw
	mvn	r8, #0
	b	.L1989
.L1963:
	ldr	r1, .L2030+72
	mov	r0, #1
	bl	dprint_vfmw
	mvn	r8, #0
	b	.L1989
.L2020:
	ldr	r1, .L2030+76
	mov	r0, #1
	bl	dprint_vfmw
	mvn	r8, #0
	b	.L1989
.L2023:
	ldr	r1, .L2030+80
	mov	r0, #1
	bl	dprint_vfmw
	mvn	r8, #0
	b	.L1989
.L2031:
	.align	2
.L2030:
	.word	.LC127
	.word	.LC132
	.word	.LC133
	.word	.LC135
	.word	.LC137
	.word	.LC138
	.word	.LC128
	.word	.LC129
	.word	.LC120
	.word	.LC121
	.word	.LC102
	.word	.LC130
	.word	.LC131
	.word	.LC125
	.word	.LC124
	.word	.LC122
	.word	.LC123
	.word	.LC136
	.word	.LC134
	.word	.LC103
	.word	.LC126
	UNWIND(.fnend)
	.size	MVC_ProcessSliceHeaderSecondPart, .-MVC_ProcessSliceHeaderSecondPart
	.align	2
	.global	MVC_ExitSlice
	.type	MVC_ExitSlice, %function
MVC_ExitSlice:
	UNWIND(.fnstart)
	@ args = 0, pretend = 0, frame = 0
	@ frame_needed = 1, uses_anonymous_args = 0
	UNWIND(.movsp ip)
	mov	ip, sp
	stmfd	sp!, {r4, fp, ip, lr, pc}
	UNWIND(.pad #4)
	UNWIND(.save {r4, fp, ip, lr})
	UNWIND(.setfp fp, ip, #-4)
	sub	fp, ip, #4
	add	r3, r0, #11075584
	ldr	r1, [r0, #236]
	add	r3, r3, #40960
	ldrb	r2, [r3, #1161]	@ zero_extendqisi2
	ldr	ip, [r3, #1176]
	cmp	r2, #0
	ldr	r4, [r3, #1216]
	str	ip, [r3, #2828]
	ldr	lr, [r1, #744]
	strb	r2, [r3, #2816]
	ldrneb	r2, [r3, #1162]	@ zero_extendqisi2
	ldr	ip, [r3, #1188]
	str	r4, [r3, #2856]
	strneb	r2, [r3, #2817]
	ldrb	r2, [r3, #1163]	@ zero_extendqisi2
	str	ip, [r3, #2832]
	cmp	r2, #5
	ldrb	ip, [r3, #1168]	@ zero_extendqisi2
	strb	r2, [r3, #2818]
	ldreq	r2, [r3, #1204]
	strb	ip, [r3, #2819]
	str	lr, [r3, #2824]
	streq	r2, [r3, #2836]
	ldr	r2, [r1, #2900]
	cmp	r2, #0
	ldreq	r2, [r3, #32]
	ldreq	ip, [r3, #28]
	streq	r2, [r3, #2844]
	streq	ip, [r3, #2840]
	ldreq	r2, [r1, #2900]
	cmp	r2, #1
	ldreq	r2, [r3, #68]
	ldreq	r1, [r3, #64]
	streq	r2, [r3, #2852]
	ldrb	r2, [r3, #1171]	@ zero_extendqisi2
	streq	r1, [r3, #2848]
	cmp	r2, #1
	bne	.L2037
	ldr	ip, [r3, #2800]
	ldrb	r1, [r3, #1169]	@ zero_extendqisi2
	ldrb	r2, [r3, #1170]	@ zero_extendqisi2
	str	ip, [r3, #2860]
	strb	r1, [r3, #2820]
	strb	r2, [r3, #2821]
.L2037:
	ldr	r3, [r0, #80]
	add	r3, r3, #1
	str	r3, [r0, #80]
	ldmfd	sp, {r4, fp, sp, pc}
	UNWIND(.fnend)
	.size	MVC_ExitSlice, .-MVC_ExitSlice
	.align	2
	.global	MVC_PicTypeStatistic
	.type	MVC_PicTypeStatistic, %function
MVC_PicTypeStatistic:
	UNWIND(.fnstart)
	@ args = 0, pretend = 0, frame = 0
	@ frame_needed = 1, uses_anonymous_args = 0
	UNWIND(.movsp ip)
	mov	ip, sp
	stmfd	sp!, {fp, ip, lr, pc}
	UNWIND(.pad #4)
	UNWIND(.save {fp, ip, lr})
	UNWIND(.setfp fp, ip, #-4)
	sub	fp, ip, #4
	add	r3, r0, #11075584
	add	r3, r3, #40960
	ldrb	r2, [r3, #1160]	@ zero_extendqisi2
	cmp	r2, #1
	beq	.L2043
	bcc	.L2044
	cmp	r2, #2
	ldmnefd	sp, {fp, sp, pc}
	ldrb	r3, [r3, #1163]	@ zero_extendqisi2
	add	r0, r0, #11141120
	cmp	r3, #5
	beq	.L2053
.L2046:
	add	r0, r0, #16384
	mov	r3, #0
	strb	r3, [r0, #453]
	ldmfd	sp, {fp, sp, pc}
.L2044:
	add	r0, r0, #11141120
	add	r3, r0, #16384
	ldrb	r2, [r3, #452]	@ zero_extendqisi2
	cmp	r2, #2
	movne	r2, #1
	strneb	r2, [r3, #452]
	b	.L2046
.L2043:
	add	r0, r0, #11141120
	mov	r2, #2
	add	r0, r0, #16384
	mov	r3, #0
	strb	r2, [r0, #452]
	strb	r3, [r0, #453]
	ldmfd	sp, {fp, sp, pc}
.L2053:
	add	r0, r0, #16384
	mov	r3, #1
	strb	r3, [r0, #453]
	ldmfd	sp, {fp, sp, pc}
	UNWIND(.fnend)
	.size	MVC_PicTypeStatistic, .-MVC_PicTypeStatistic
	.align	2
	.global	MVC_CalcStreamBits
	.type	MVC_CalcStreamBits, %function
MVC_CalcStreamBits:
	UNWIND(.fnstart)
	@ args = 0, pretend = 0, frame = 0
	@ frame_needed = 1, uses_anonymous_args = 0
	UNWIND(.movsp ip)
	mov	ip, sp
	stmfd	sp!, {r4, r5, r6, r7, r8, fp, ip, lr, pc}
	UNWIND(.pad #4)
	UNWIND(.save {r4, r5, r6, r7, r8, fp, ip, lr})
	UNWIND(.setfp fp, ip, #-4)
	sub	fp, ip, #4
	UNWIND(.pad #12)
	sub	sp, sp, #12
	add	r3, r0, #11075584
	add	r3, r3, #36864
	mov	r4, r0
	ldrb	r3, [r3, #1880]	@ zero_extendqisi2
	cmp	r3, #0
	beq	.L2055
	ldr	r2, [r0, #232]
	ldr	r3, [r2, #64]
	add	r3, r3, #7
	bic	r3, r3, #7
	str	r3, [r2, #64]
	ldr	r2, [r0, #232]
	ldr	r3, [r2, #72]
	sub	r3, r3, #1
	str	r3, [r2, #72]
.L2055:
	ldr	r3, [r4, #232]
	ldrb	r6, [r3]	@ zero_extendqisi2
	cmp	r6, #0
	beq	.L2066
	mov	r1, #0
	mov	r0, r3
	mov	r5, r1
.L2057:
	add	r1, r1, #1
	ldr	ip, [r0, #12]
	cmp	r1, r6
	add	r0, r0, #28
	add	r5, r5, ip
	bne	.L2057
.L2056:
	mov	r7, r6, asl #5
	ldr	r0, [r3, #72]
	sub	r7, r7, r6, asl #2
	ldr	r2, [r3, #64]
	add	r1, r3, r7
	mov	r3, r5
	str	r0, [sp, #4]
	mov	r0, #7
	ldr	ip, [r1, #12]
	ldr	r1, .L2077
	str	ip, [sp]
	bl	dprint_vfmw
	ldr	r3, [r4, #232]
	mov	r2, r6
	mov	r0, #7
	ldr	r1, .L2077+4
	ldrb	r6, [r3]	@ zero_extendqisi2
	ldr	ip, [r3, #64]
	mov	lr, r6, asl #5
	and	ip, ip, r0
	sub	lr, lr, r6, asl #2
	add	r3, r3, lr
	str	ip, [r3, #24]
	ldr	r3, [r4, #232]
	ldrb	r6, [r3]	@ zero_extendqisi2
	ldr	r8, [r3, #64]
	mov	lr, r6, asl #5
	sub	lr, lr, r6, asl #2
	add	r3, r3, lr
	ldr	ip, [r3, #16]
	add	ip, ip, r8, lsr #3
	rsb	ip, r5, ip
	str	ip, [r3, #28]
	ldr	ip, [r4, #232]
	ldrb	r6, [ip]	@ zero_extendqisi2
	ldr	lr, [ip, #64]
	mov	r3, r6, asl #5
	sub	r3, r3, r6, asl #2
	add	ip, ip, r3
	ldr	r3, [ip, #12]
	add	r3, r5, r3
	rsb	r3, lr, r3, lsl #3
	str	r3, [ip, #20]
	ldr	ip, [r4, #232]
	ldrb	lr, [ip]	@ zero_extendqisi2
	mov	r3, lr, asl #5
	sub	r3, r3, lr, asl #2
	add	r3, ip, r3
	ldr	ip, [r3, #28]
	ldr	lr, [r3, #24]
	and	ip, ip, #3
	add	ip, lr, ip, lsl #3
	str	ip, [r3, #24]
	ldr	ip, [r4, #232]
	ldrb	lr, [ip]	@ zero_extendqisi2
	mov	r3, lr, asl #5
	sub	r3, r3, lr, asl #2
	add	r3, ip, r3
	ldr	ip, [r3, #28]
	bic	ip, ip, #3
	str	ip, [r3, #28]
	ldr	ip, [r4, #232]
	add	r7, ip, r7
	ldrb	r5, [ip]	@ zero_extendqisi2
	ldr	r3, [r7, #24]
	mov	lr, r5, asl #5
	sub	lr, lr, r5, asl #2
	add	ip, ip, lr
	ldr	ip, [ip, #28]
	str	ip, [sp, #4]
	ldr	ip, [r7, #20]
	str	ip, [sp]
	bl	dprint_vfmw
	ldr	ip, [r4, #232]
	ldr	r2, [ip, #68]
	sub	r3, r2, #1
	cmp	r3, #1
	bhi	.L2076
	ldrb	r6, [ip]	@ zero_extendqisi2
	add	r1, r6, #1
	cmp	r2, r1
	movhi	r2, #1
	movls	r2, #0
	cmp	r1, #1
	movhi	r2, #0
	cmp	r2, #0
	beq	.L2059
	add	r6, r6, #2
	mov	r5, #0
.L2060:
	sub	r3, r6, #1
	ldr	r1, .L2077+8
	mov	r0, #7
	mov	lr, r3, asl #5
	mov	r2, r3
	sub	r3, lr, r3, asl #2
	add	ip, ip, r3
	str	r5, [ip, #24]
	ldr	ip, [r4, #232]
	add	ip, ip, r3
	ldr	lr, [ip, #16]
	str	lr, [ip, #28]
	ldr	ip, [r4, #232]
	add	ip, ip, r3
	ldr	lr, [ip, #12]
	mov	lr, lr, asl #3
	str	lr, [ip, #20]
	ldr	ip, [r4, #232]
	add	ip, ip, r3
	ldr	lr, [ip, #28]
	ldr	r7, [ip, #24]
	and	lr, lr, #3
	add	lr, r7, lr, lsl #3
	str	lr, [ip, #24]
	ldr	ip, [r4, #232]
	add	ip, ip, r3
	ldr	lr, [ip, #28]
	bic	lr, lr, #3
	str	lr, [ip, #28]
	ldr	ip, [r4, #232]
	add	ip, ip, r3
	ldr	r3, [ip, #24]
	ldr	ip, [ip, #20]
	str	ip, [sp]
	bl	dprint_vfmw
	ldr	ip, [r4, #232]
	ldr	r3, [ip, #68]
	cmp	r6, #1
	cmpls	r6, r3
	add	r6, r6, #1
	movcc	r2, #1
	movcs	r2, #0
	cmp	r2, #0
	bne	.L2060
	sub	r3, r3, #1
.L2059:
	mov	r2, r3, asl #5
	ldr	r1, [ip, #72]
	sub	r3, r2, r3, asl #2
	add	ip, ip, r3
	ldr	r3, [ip, #20]
	rsb	r3, r1, r3
	str	r3, [ip, #20]
	ldr	ip, [r4, #232]
	ldrb	r1, [ip]	@ zero_extendqisi2
	ldr	r3, [ip, #68]
	cmp	r1, r3
	bcs	.L2054
	sxth	r3, r1
	add	r4, r4, #11141120
	add	r4, r4, #16384
	mov	r2, r3, asl #5
	sub	r3, r2, r3, asl #2
	add	r3, ip, r3
.L2064:
	ldr	r2, [r3, #28]
	add	r1, r1, #1
	ldr	r0, [r4, #1192]
	add	r3, r3, #28
	cmp	r2, r0
	strcc	r2, [r4, #1192]
	ldr	r2, [ip, #68]
	cmp	r2, r1
	bhi	.L2064
.L2054:
	sub	sp, fp, #32
	ldmfd	sp, {r4, r5, r6, r7, r8, fp, sp, pc}
.L2076:
	ldr	r1, .L2077+12
	mov	r0, #0
	sub	sp, fp, #32
	ldmfd	sp, {r4, r5, r6, r7, r8, fp, sp, lr}
	b	dprint_vfmw
.L2066:
	mov	r5, r6
	b	.L2056
.L2078:
	.align	2
.L2077:
	.word	.LC139
	.word	.LC140
	.word	.LC142
	.word	.LC141
	UNWIND(.fnend)
	.size	MVC_CalcStreamBits, .-MVC_CalcStreamBits
	.align	2
	.global	MVC_Scaling_List
	.type	MVC_Scaling_List, %function
MVC_Scaling_List:
	UNWIND(.fnstart)
	@ args = 4, pretend = 0, frame = 8
	@ frame_needed = 1, uses_anonymous_args = 0
	UNWIND(.movsp ip)
	mov	ip, sp
	stmfd	sp!, {r4, r5, r6, r7, r8, r9, r10, fp, ip, lr, pc}
	UNWIND(.pad #4)
	UNWIND(.save {r4, r5, r6, r7, r8, r9, r10, fp, ip, lr})
	UNWIND(.setfp fp, ip, #-4)
	sub	fp, ip, #4
	UNWIND(.pad #12)
	sub	sp, sp, #12
	subs	r7, r3, #0
	str	r0, [fp, #-52]
	mov	r6, r2
	ble	.L2079
	mov	r0, #8
	mov	r4, #0
	mov	r2, r7
	mov	r9, r6
	ldr	r8, .L2090
	mov	r10, #255
	mov	r7, r1
	mov	r6, r0
	mov	r5, r4
	b	.L2084
.L2083:
	mov	lr, r4, lsr #2
	and	r3, r4, #3
	str	r6, [r7, r4, asl #2]
	uxtb	r1, r6
	mov	r4, r3, asl #3
	ldr	r3, [r9, lr, asl #2]
	cmp	r5, r2
	bic	r3, r3, r10, asl r4
	orr	r1, r3, r1, asl r4
	str	r1, [r9, lr, asl #2]
	beq	.L2079
.L2084:
	cmp	r2, #16
	ldreq	r3, .L2090+4
	ldrneb	r4, [r5, r8]	@ zero_extendqisi2
	ldreqb	r4, [r5, r3]	@ zero_extendqisi2
	cmp	r0, #0
	add	r5, r5, #1
	beq	.L2083
	ldr	r1, .L2090+8
	ldr	r0, [fp, #-52]
	str	r2, [fp, #-48]
	bl	mvc_se_v
	ldr	r2, [fp, #4]
	add	r0, r6, r0
	ands	r0, r0, #255
	moveq	r3, #1
	movne	r3, #0
	cmp	r3, #0
	moveq	r6, r0
	cmp	r4, #0
	movne	r3, #0
	andeq	r3, r3, #1
	str	r3, [r2]
	ldr	r2, [fp, #-48]
	b	.L2083
.L2079:
	sub	sp, fp, #40
	ldmfd	sp, {r4, r5, r6, r7, r8, r9, r10, fp, sp, pc}
.L2091:
	.align	2
.L2090:
	.word	.LANCHOR0+16
	.word	.LANCHOR0
	.word	.LC143
	UNWIND(.fnend)
	.size	MVC_Scaling_List, .-MVC_Scaling_List
	.align	2
	.global	MVC_ProcessPPS
	.type	MVC_ProcessPPS, %function
MVC_ProcessPPS:
	UNWIND(.fnstart)
	@ args = 0, pretend = 0, frame = 32
	@ frame_needed = 1, uses_anonymous_args = 0
	UNWIND(.movsp ip)
	mov	ip, sp
	stmfd	sp!, {r4, r5, r6, r7, r8, r9, r10, fp, ip, lr, pc}
	UNWIND(.pad #4)
	UNWIND(.save {r4, r5, r6, r7, r8, r9, r10, fp, ip, lr})
	UNWIND(.setfp fp, ip, #-4)
	sub	fp, ip, #4
	UNWIND(.pad #44)
	sub	sp, sp, #44
	mov	r5, r1
	ldr	r1, .L2150
	mov	r4, r0
	bl	mvc_u_1
	strb	r0, [r5]
	ldrb	r3, [r4, #10]	@ zero_extendqisi2
	cmp	r3, #0
	bne	.L2141
	ldr	r1, .L2150+4
	mov	r0, r4
	bl	mvc_u_1
	strb	r0, [r5, #1]
	ldrb	r3, [r4, #10]	@ zero_extendqisi2
	cmp	r3, #0
	bne	.L2141
	ldr	r1, .L2150+8
	mov	r0, r4
	bl	mvc_ue_v
	cmp	r0, #0
	str	r0, [r5, #32]
	bne	.L2096
	ldrb	r3, [r4, #10]	@ zero_extendqisi2
	cmp	r3, #0
	beq	.L2097
.L2096:
	ldr	r1, .L2150+12
	mov	r0, #1
	bl	dprint_vfmw
	ldr	r3, .L2150+16
	ldr	ip, [r3]
	cmp	ip, #0
	beq	.L2141
	mov	r3, #0
	ldr	r0, [r4, #120]
	mov	r2, r3
	mov	r1, #102
	blx	ip
	mvn	r0, #0
.L2094:
	sub	sp, fp, #40
	ldmfd	sp, {r4, r5, r6, r7, r8, r9, r10, fp, sp, pc}
.L2104:
	ldr	r1, .L2150+20
	mov	r0, r4
	bl	mvc_u_1
	ldr	r1, .L2150+24
	str	r0, [r5, #60]
	mov	r0, r4
	bl	mvc_u_1
	uxtb	r0, r0
	strb	r0, [r5, #18]
	cmp	r0, #1
	beq	.L2105
.L2123:
	ldr	r1, .L2150+28
	mov	r0, r4
	bl	mvc_se_v
	add	r3, r0, #12
	str	r0, [r5, #56]
	cmp	r3, #24
	bhi	.L2106
	ldrb	r3, [r4, #10]	@ zero_extendqisi2
	cmp	r3, #0
	beq	.L2124
.L2106:
	ldr	r1, .L2150+32
	mov	r0, #1
	bl	dprint_vfmw
.L2141:
	mvn	r0, #0
	sub	sp, fp, #40
	ldmfd	sp, {r4, r5, r6, r7, r8, r9, r10, fp, sp, pc}
.L2097:
	ldr	r1, .L2150+36
	mov	r0, r4
	bl	mvc_ue_v
	cmp	r0, #31
	str	r0, [r5, #36]
	bhi	.L2098
	ldrb	r3, [r4, #10]	@ zero_extendqisi2
	cmp	r3, #0
	bne	.L2098
	ldr	r1, .L2150+40
	mov	r0, r4
	bl	mvc_ue_v
	cmp	r0, #31
	str	r0, [r5, #40]
	bhi	.L2100
	ldrb	r3, [r4, #10]	@ zero_extendqisi2
	cmp	r3, #0
	bne	.L2100
	ldr	r1, .L2150+44
	mov	r0, r4
	bl	mvc_u_1
	strb	r0, [r5, #2]
	ldrb	r3, [r4, #10]	@ zero_extendqisi2
	cmp	r3, #0
	bne	.L2141
	ldr	r2, .L2150+48
	mov	r1, #2
	mov	r0, r4
	bl	mvc_u_v
	cmp	r0, #2
	str	r0, [r5, #44]
	bhi	.L2142
	ldr	r1, .L2150+52
	mov	r0, r4
	bl	mvc_se_v
	ldr	r1, .L2150+56
	str	r0, [r5, #48]
	mov	r0, r4
	bl	mvc_se_v
	ldr	r1, .L2150+60
	mov	r0, r4
	bl	mvc_se_v
	ldr	r1, .L2150+64
	str	r0, [r5, #52]
	mov	r0, r4
	bl	mvc_u_1
	ldr	r1, .L2150+68
	strb	r0, [r5, #3]
	mov	r0, r4
	bl	mvc_u_1
	ldr	r1, .L2150+72
	strb	r0, [r5, #4]
	mov	r0, r4
	bl	mvc_u_1
	uxtb	r0, r0
	strb	r0, [r5, #17]
	cmp	r0, #0
	bne	.L2143
.L2103:
	ldr	r3, [r5, #52]
	mov	r6, #0
	add	r0, r4, #548
	str	r6, [r5, #60]
	strb	r6, [r5, #18]
	str	r3, [r5, #56]
	bl	BsResidBits
	ldr	r3, [r4, #232]
	ldr	r3, [r3, #72]
	add	r3, r3, #3
	cmp	r0, r3
	bcs	.L2104
.L2124:
	mov	r0, #0
	sub	sp, fp, #40
	ldmfd	sp, {r4, r5, r6, r7, r8, r9, r10, fp, sp, pc}
.L2143:
	ldr	r1, .L2150+76
	mov	r0, #1
	bl	dprint_vfmw
	b	.L2103
.L2098:
	ldr	r1, .L2150+80
	mov	r0, #1
	bl	dprint_vfmw
	mvn	r0, #0
	b	.L2094
.L2100:
	ldr	r1, .L2150+84
	mov	r0, #1
	bl	dprint_vfmw
	mvn	r0, #0
	b	.L2094
.L2105:
	sub	r8, fp, #72
	add	r10, r5, #4
	add	r7, r5, #2016
	add	r9, r5, #64
	b	.L2114
.L2147:
	ldr	lr, [r5, #28]
	ldr	r3, [r4, #248]
	mla	r3, ip, lr, r3
	ldrb	ip, [r3, #27]	@ zero_extendqisi2
	cmp	ip, #1
	beq	.L2144
	ldr	r3, .L2150+88
	cmp	r1, #0
	add	ip, r3, #16
	moveq	r3, ip
	mov	r1, r3
	ldr	r3, .L2150+92
	ldr	r3, [r3, #52]
	blx	r3
.L2109:
	add	r6, r6, #1
	add	r7, r7, #16
	cmp	r6, #6
	add	r9, r9, #64
	beq	.L2145
.L2114:
	ldr	r1, .L2150+96
	mov	r0, r4
	bl	mvc_u_1
	movw	ip, #3992
	clz	r1, r6
	mov	r2, #16
	cmp	r0, #1
	mov	r3, r0
	mov	r0, r7
	str	r3, [r8, #4]!
	strb	r3, [r10, #1]!
	beq	.L2146
	cmp	r6, #0
	cmpne	r6, #3
	mov	r1, r1, lsr #5
	beq	.L2147
	ldr	r3, .L2150+92
	mov	r2, #16
	sub	r1, r7, #16
	mov	r0, r7
	ldr	r3, [r3, #52]
	blx	r3
	b	.L2109
.L2145:
	add	r8, r5, #2112
	add	r10, r5, #448
	sub	r7, fp, #76
	add	r9, r5, #11
	mov	r6, #0
.L2122:
	ldr	r2, [r5, #60]
	mov	r3, #0
	cmp	r2, #1
	strne	r3, [r7]
	strneb	r3, [r9]
	beq	.L2148
.L2117:
	ldr	r1, [r4, #248]
	movw	ip, #3992
	ldr	r3, [r5, #28]
	mov	r0, r8
	mov	r2, #64
	mla	r3, ip, r3, r1
	ldrb	r1, [r3, #27]	@ zero_extendqisi2
	cmp	r1, #1
	beq	.L2149
	ldr	r1, .L2150+100
	cmp	r6, #0
	ldr	r3, .L2150+92
	add	ip, r1, #64
	ldr	r3, [r3, #52]
	movne	r1, ip
	blx	r3
.L2118:
	add	r6, r6, #1
	add	r8, r8, #64
	cmp	r6, #2
	add	r10, r10, #256
	add	r7, r7, #4
	add	r9, r9, #1
	bne	.L2122
	b	.L2123
.L2146:
	mov	r3, r2
	str	r8, [sp]
	mov	r2, r7
	mov	r1, r9
	mov	r0, r4
	bl	MVC_Scaling_List
	ldr	r3, [r8]
	cmp	r3, #1
	bne	.L2109
	ldr	r1, .L2150+88
	mov	r2, #16
	ldr	r3, .L2150+92
	cmp	r6, #2
	add	r0, r1, r2
	ldr	r3, [r3, #52]
	movhi	r1, r0
	mov	r0, r7
	blx	r3
	b	.L2109
.L2144:
	ldr	r2, .L2150+92
	add	r1, r6, #167
	mov	r0, r7
	add	r1, r3, r1, lsl #4
	ldr	ip, [r2, #52]
	mov	r2, #16
	blx	ip
	b	.L2109
.L2142:
	ldr	r1, .L2150+104
	mov	r0, #1
	bl	dprint_vfmw
	mvn	r0, #0
	b	.L2094
.L2148:
	ldr	r1, .L2150+108
	mov	r0, r4
	bl	mvc_u_1
	mov	r2, r8
	mov	r1, r10
	mov	r3, #64
	mov	ip, r0
	cmp	ip, #1
	mov	r0, r4
	str	ip, [r7]
	strb	ip, [r9]
	bne	.L2117
	str	r7, [sp]
	bl	MVC_Scaling_List
	ldr	r3, [r7]
	cmp	r3, #1
	bne	.L2118
	ldr	r1, .L2150+100
	mov	r2, #64
	ldr	r3, .L2150+92
	cmp	r6, #0
	add	r0, r1, r2
	ldr	r3, [r3, #52]
	movne	r1, r0
	mov	r0, r8
	blx	r3
	b	.L2118
.L2149:
	add	r1, r3, r6, lsl #6
	ldr	r3, .L2150+92
	add	r1, r1, #2768
	ldr	ip, [r3, #52]
	blx	ip
	b	.L2118
.L2151:
	.align	2
.L2150:
	.word	.LC144
	.word	.LC145
	.word	.LC146
	.word	.LC147
	.word	g_event_report
	.word	.LC162
	.word	.LC163
	.word	.LC164
	.word	.LC167
	.word	.LC148
	.word	.LC150
	.word	.LC152
	.word	.LC153
	.word	.LC155
	.word	.LC156
	.word	.LC157
	.word	.LC158
	.word	.LC159
	.word	.LC160
	.word	.LC161
	.word	.LC149
	.word	.LC151
	.word	.LANCHOR1
	.word	vfmw_Osal_Func_Ptr_S
	.word	.LC165
	.word	.LANCHOR1+32
	.word	.LC154
	.word	.LC166
	UNWIND(.fnend)
	.size	MVC_ProcessPPS, .-MVC_ProcessPPS
	.align	2
	.global	MVC_PPSEqual
	.type	MVC_PPSEqual, %function
MVC_PPSEqual:
	UNWIND(.fnstart)
	@ args = 0, pretend = 0, frame = 24
	@ frame_needed = 1, uses_anonymous_args = 0
	UNWIND(.movsp ip)
	mov	ip, sp
	stmfd	sp!, {r4, r5, r6, r7, r8, r9, r10, fp, ip, lr, pc}
	UNWIND(.pad #4)
	UNWIND(.save {r4, r5, r6, r7, r8, r9, r10, fp, ip, lr})
	UNWIND(.setfp fp, ip, #-4)
	sub	fp, ip, #4
	UNWIND(.pad #28)
	sub	sp, sp, #28
	subs	r6, r0, #0
	beq	.L2179
	cmp	r1, #0
	beq	.L2180
	ldr	r2, [r1, #28]
	ldr	r0, [r6, #28]
	ldr	r3, [r6, #24]
	ldr	ip, [r1, #24]
	ldrb	lr, [r6]	@ zero_extendqisi2
	cmp	r0, r2
	cmpeq	r3, ip
	ldrb	r4, [r1]	@ zero_extendqisi2
	ldrb	ip, [r6, #1]	@ zero_extendqisi2
	ldrb	r5, [r1, #1]	@ zero_extendqisi2
	moveq	r2, #1
	movne	r2, #0
	ldr	r0, [r6, #36]
	cmp	lr, r4
	movne	r3, #0
	andeq	r3, r2, #1
	ldr	r4, [r1, #36]
	cmp	ip, r5
	movne	lr, #0
	andeq	lr, r3, #1
	ldr	r2, [r6, #40]
	ldr	r5, [r1, #40]
	cmp	r0, r4
	movne	ip, #0
	andeq	ip, lr, #1
	ldrb	r3, [r6, #2]	@ zero_extendqisi2
	ldrb	r4, [r1, #2]	@ zero_extendqisi2
	cmp	r2, r5
	movne	r0, #0
	andeq	r0, ip, #1
	ldr	lr, [r6, #44]
	ldr	r5, [r1, #44]
	cmp	r3, r4
	movne	r2, #0
	andeq	r2, r0, #1
	ldr	ip, [r6, #48]
	ldr	r4, [r1, #48]
	cmp	lr, r5
	movne	r3, #0
	andeq	r3, r2, #1
	ldr	r0, [r6, #52]
	ldr	r5, [r1, #52]
	cmp	ip, r4
	movne	lr, #0
	andeq	lr, r3, #1
	ldrb	r2, [r6, #3]	@ zero_extendqisi2
	ldrb	r4, [r1, #3]	@ zero_extendqisi2
	cmp	r0, r5
	movne	ip, #0
	andeq	ip, lr, #1
	ldrb	r3, [r6, #4]	@ zero_extendqisi2
	ldrb	lr, [r1, #4]	@ zero_extendqisi2
	cmp	r2, r4
	movne	r0, #0
	andeq	r0, ip, #1
	ldr	ip, [r6, #60]
	ldr	r4, [r1, #60]
	cmp	r3, lr
	movne	r2, #0
	andeq	r2, r0, #1
	ldrb	r0, [r6, #18]	@ zero_extendqisi2
	ldrb	lr, [r1, #18]	@ zero_extendqisi2
	cmp	ip, r4
	movne	r3, #0
	andeq	r3, r2, #1
	cmp	lr, r0
	movne	r3, #0
	andeq	r3, r3, #1
	cmp	r0, #0
	beq	.L2156
	mov	ip, ip, asl #1
	adds	r2, ip, #6
	str	r2, [fp, #-56]
	beq	.L2156
	add	r2, r6, #4
	sub	r9, r1, #1088
	str	r2, [fp, #-52]
	add	r2, r1, #4
	str	r2, [fp, #-48]
	add	r2, r1, #64
	sub	r9, r9, #4
	add	r7, r1, #1984
	add	r8, r6, #1984
	mov	r10, r6
	mov	r5, r6
	str	r6, [fp, #-60]
	mov	r0, #0
	mov	r6, r2
	str	r1, [fp, #-64]
.L2161:
	ldr	r1, [fp, #-52]
	ldrb	r2, [r1, #1]!	@ zero_extendqisi2
	str	r1, [fp, #-52]
	ldr	r1, [fp, #-48]
	ldrsb	ip, [r1, #1]!
	str	r1, [fp, #-48]
	sxtb	r1, r2
	cmp	ip, r1
	movne	r3, #0
	andeq	r3, r3, #1
	cmp	r2, #0
	beq	.L2178
	ldr	r2, [r8]
	ldr	r1, [r7]
	cmp	r2, r1
	movne	r3, #0
	andeq	r3, r3, #1
	cmp	r0, #5
	bhi	.L2158
	cmp	r2, #0
	add	r4, r10, #64
	bne	.L2157
	add	r10, r10, #128
	mov	r1, r6
	mov	r2, r4
.L2159:
	ldr	lr, [r2], #4
	ldr	ip, [r1], #4
	cmp	lr, ip
	movne	r3, #0
	andeq	r3, r3, #1
	cmp	r2, r10
	bne	.L2159
.L2157:
	ldr	r2, [fp, #-56]
	add	r0, r0, #1
	add	r8, r8, #4
	add	r7, r7, #4
	cmp	r0, r2
	add	r5, r5, #256
	add	r9, r9, #256
	mov	r10, r4
	add	r6, r6, #64
	bne	.L2161
	ldr	r6, [fp, #-60]
	ldr	r1, [fp, #-64]
.L2156:
	ldr	r0, [r6, #56]
	ldr	r2, [r1, #56]
	cmp	r0, r2
	movne	r0, #0
	andeq	r0, r3, #1
	eor	r0, r0, #1
	rsb	r0, r0, #0
.L2154:
	sub	sp, fp, #40
	ldmfd	sp, {r4, r5, r6, r7, r8, r9, r10, fp, sp, pc}
.L2158:
	cmp	r2, #0
	bne	.L2178
	sub	r2, r5, #1088
	sub	r4, r5, #836
	sub	r2, r2, #4
	mov	r1, r9
.L2160:
	ldr	lr, [r2, #4]!
	ldr	ip, [r1, #4]!
	cmp	lr, ip
	movne	r3, #0
	andeq	r3, r3, #1
	cmp	r2, r4
	bne	.L2160
.L2178:
	add	r4, r10, #64
	b	.L2157
.L2180:
	mov	r0, r1
	movw	r3, #10268
	ldr	r2, .L2181
	ldr	r1, .L2181+4
	bl	dprint_vfmw
	mvn	r0, #0
	b	.L2154
.L2179:
	movw	r3, #10267
	ldr	r2, .L2181
	ldr	r1, .L2181+4
	bl	dprint_vfmw
	mvn	r0, #0
	b	.L2154
.L2182:
	.align	2
.L2181:
	.word	.LC13
	.word	.LC14
	UNWIND(.fnend)
	.size	MVC_PPSEqual, .-MVC_PPSEqual
	.align	2
	.global	MVC_DecPPS
	.type	MVC_DecPPS, %function
MVC_DecPPS:
	UNWIND(.fnstart)
	@ args = 0, pretend = 0, frame = 8
	@ frame_needed = 1, uses_anonymous_args = 0
	UNWIND(.movsp ip)
	mov	ip, sp
	stmfd	sp!, {r4, r5, r6, r7, r8, fp, ip, lr, pc}
	UNWIND(.pad #4)
	UNWIND(.save {r4, r5, r6, r7, r8, fp, ip, lr})
	UNWIND(.setfp fp, ip, #-4)
	sub	fp, ip, #4
	UNWIND(.pad #12)
	sub	sp, sp, #12
	ldr	r1, .L2198
	mov	r4, r0
	bl	mvc_ue_v
	ldr	r3, [r4, #40]
	sub	r3, r3, #1
	cmp	r0, r3
	mov	r5, r0
	bls	.L2184
	mov	r2, r0
	ldr	r1, .L2198+4
	mov	r0, #1
	bl	dprint_vfmw
	ldr	r2, [r4, #40]
	sub	r3, r2, #1
	cmp	r5, r3
	bls	.L2191
	ldr	r3, .L2198+8
	ldr	ip, [r3]
	cmp	ip, #0
	beq	.L2191
	str	r2, [fp, #-40]
	mov	r3, #8
	str	r5, [fp, #-44]
	sub	r2, fp, #44
	ldr	r0, [r4, #120]
	mov	r1, #110
	blx	ip
	mvn	r0, #0
.L2185:
	sub	sp, fp, #32
	ldmfd	sp, {r4, r5, r6, r7, r8, fp, sp, pc}
.L2184:
	ldr	r1, .L2198+12
	mov	r0, r4
	bl	mvc_ue_v
	ldr	r3, [r4, #36]
	sub	r3, r3, #1
	cmp	r0, r3
	mov	ip, r0
	bhi	.L2195
	mov	r8, #2240
	ldr	r3, [r4, #252]
	mul	r6, r8, r5
	add	r3, r3, r6
	ldrb	r7, [r3, #19]	@ zero_extendqisi2
	cmp	r7, #0
	beq	.L2187
	ldr	r7, .L2198+16
	mov	r0, r4
	mov	r1, r7
	str	r5, [r7, #24]
	str	ip, [r7, #28]
	bl	MVC_ProcessPPS
	subs	r5, r0, #0
	bne	.L2196
	ldr	r1, [r4, #252]
	mov	r0, r7
	add	r1, r1, r6
	bl	MVC_PPSEqual
	cmp	r0, #0
	beq	.L2185
	ldr	ip, .L2198+20
	mov	r3, #1
	ldr	r0, [r4, #252]
	mov	r2, r8
	mov	r1, r7
	strb	r3, [r7, #20]
	add	r0, r0, r6
	ldr	ip, [ip, #56]
	strb	r3, [r7, #19]
	blx	ip
	mov	r0, r5
	b	.L2185
.L2187:
	str	r5, [r3, #24]
	mov	r0, r4
	ldr	r3, [r4, #252]
	add	r3, r3, r6
	str	ip, [r3, #28]
	ldr	r1, [r4, #252]
	add	r1, r1, r6
	bl	MVC_ProcessPPS
	cmp	r0, #0
	bne	.L2197
	ldr	r3, [r4, #252]
	mov	r2, #1
	add	r3, r3, r6
	strb	r2, [r3, #20]
	ldr	r3, [r4, #252]
	add	r6, r3, r6
	strb	r2, [r6, #19]
	sub	sp, fp, #32
	ldmfd	sp, {r4, r5, r6, r7, r8, fp, sp, pc}
.L2191:
	mvn	r0, #0
	sub	sp, fp, #32
	ldmfd	sp, {r4, r5, r6, r7, r8, fp, sp, pc}
.L2195:
	ldr	r1, .L2198+24
	mov	r0, #1
	bl	dprint_vfmw
	mvn	r0, #0
	b	.L2185
.L2196:
	movw	r2, #10031
	ldr	r1, .L2198+28
	mov	r0, #1
	bl	dprint_vfmw
	mvn	r0, #0
	b	.L2185
.L2197:
	movw	r2, #10051
	ldr	r1, .L2198+28
	mov	r0, #1
	bl	dprint_vfmw
	ldr	r3, [r4, #252]
	mov	r2, #1
	mvn	r0, #0
	add	r3, r3, r6
	strb	r2, [r3, #20]
	ldr	r3, [r4, #252]
	add	r6, r3, r6
	strb	r7, [r6, #19]
	b	.L2185
.L2199:
	.align	2
.L2198:
	.word	.LC168
	.word	.LC169
	.word	g_event_report
	.word	.LC170
	.word	.LANCHOR2
	.word	vfmw_Osal_Func_Ptr_S
	.word	.LC171
	.word	.LC172
	UNWIND(.fnend)
	.size	MVC_DecPPS, .-MVC_DecPPS
	.align	2
	.global	mvc_vui_parameters
	.type	mvc_vui_parameters, %function
mvc_vui_parameters:
	UNWIND(.fnstart)
	@ args = 0, pretend = 0, frame = 0
	@ frame_needed = 1, uses_anonymous_args = 0
	UNWIND(.movsp ip)
	mov	ip, sp
	stmfd	sp!, {r4, r5, r6, r7, r8, r9, fp, ip, lr, pc}
	UNWIND(.pad #4)
	UNWIND(.save {r4, r5, r6, r7, r8, r9, fp, ip, lr})
	UNWIND(.setfp fp, ip, #-4)
	sub	fp, ip, #4
	mov	r5, r1
	ldr	r1, .L2248
	mov	r4, r0
	bl	mvc_u_1
	uxtb	r0, r0
	strb	r0, [r5]
	cmp	r0, #0
	streqb	r0, [r5, #15]
	bne	.L2242
.L2202:
	ldr	r1, .L2248+4
	mov	r0, r4
	bl	mvc_u_1
	uxtb	r0, r0
	strb	r0, [r5, #1]
	cmp	r0, #0
	bne	.L2243
.L2203:
	ldr	r1, .L2248+8
	mov	r0, r4
	bl	mvc_u_1
	uxtb	r0, r0
	strb	r0, [r5, #3]
	cmp	r0, #0
	moveq	r3, #5
	streq	r3, [r5, #28]
	bne	.L2244
.L2205:
	ldr	r1, .L2248+12
	mov	r0, r4
	bl	mvc_u_1
	uxtb	r0, r0
	strb	r0, [r5, #6]
	cmp	r0, #0
	bne	.L2245
.L2206:
	ldr	r1, .L2248+16
	mov	r0, r4
	bl	mvc_u_1
	uxtb	r0, r0
	strb	r0, [r5, #8]
	cmp	r0, #0
	bne	.L2246
.L2208:
	ldr	r1, .L2248+20
	mov	r0, r4
	bl	mvc_u_1
	uxtb	r0, r0
	strb	r0, [r5, #7]
	cmp	r0, #0
	beq	.L2210
	ldr	r1, .L2248+24
	mov	r0, r4
	bl	mvc_ue_v
	ldr	r2, .L2248+28
	mov	r1, #4
	str	r0, [r5, #96]
	mov	r0, r4
	bl	mvc_u_v
	ldr	r2, .L2248+32
	mov	r1, #4
	strb	r0, [r5, #92]
	mov	r0, r4
	bl	mvc_u_v
	ldr	r3, [r5, #96]
	cmp	r3, #31
	strb	r0, [r5, #93]
	bhi	.L2213
	ldrb	r6, [r4, #10]	@ zero_extendqisi2
	cmp	r6, #0
	bne	.L2213
	add	r7, r5, #96
	add	r8, r5, #59
.L2214:
	ldr	r1, .L2248+36
	mov	r0, r4
	bl	mvc_ue_v
	ldr	r1, .L2248+40
	add	r6, r6, #1
	str	r0, [r7, #4]!
	mov	r0, r4
	bl	mvc_ue_v
	ldr	r1, .L2248+44
	str	r0, [r7, #128]
	mov	r0, r4
	bl	mvc_u_1
	strb	r0, [r8, #1]!
	ldr	r3, [r5, #96]
	cmp	r3, r6
	bcs	.L2214
	ldr	r2, .L2248+48
	mov	r1, #5
	mov	r0, r4
	bl	mvc_u_v
	ldr	r2, .L2248+52
	mov	r1, #5
	str	r0, [r5, #356]
	mov	r0, r4
	bl	mvc_u_v
	ldr	r2, .L2248+56
	mov	r1, #5
	str	r0, [r5, #360]
	mov	r0, r4
	bl	mvc_u_v
	ldr	r2, .L2248+60
	mov	r1, #5
	str	r0, [r5, #364]
	mov	r0, r4
	bl	mvc_u_v
	str	r0, [r5, #368]
.L2210:
	ldr	r1, .L2248+64
	mov	r0, r4
	bl	mvc_u_1
	uxtb	r0, r0
	strb	r0, [r5, #10]
	cmp	r0, #0
	bne	.L2247
	ldrb	r3, [r5, #7]	@ zero_extendqisi2
	cmp	r3, #0
	bne	.L2219
.L2218:
	ldr	r1, .L2248+68
	mov	r0, r4
	bl	mvc_u_1
	ldr	r1, .L2248+72
	strb	r0, [r5, #11]
	mov	r0, r4
	bl	mvc_u_1
	uxtb	r0, r0
	strb	r0, [r5, #12]
	cmp	r0, #0
	bne	.L2220
	ldrb	r0, [r4, #10]	@ zero_extendqisi2
.L2221:
	adds	r0, r0, #0
	movne	r0, #1
	rsb	r0, r0, #0
	ldmfd	sp, {r4, r5, r6, r7, r8, r9, fp, sp, pc}
.L2247:
	ldr	r1, .L2248+24
	mov	r0, r4
	bl	mvc_ue_v
	ldr	r2, .L2248+28
	mov	r1, #4
	str	r0, [r5, #408]
	mov	r0, r4
	bl	mvc_u_v
	ldr	r2, .L2248+32
	mov	r1, #4
	strb	r0, [r5, #404]
	mov	r0, r4
	bl	mvc_u_v
	ldr	r3, [r5, #408]
	cmp	r3, #31
	strb	r0, [r5, #405]
	bhi	.L2213
	ldrb	r6, [r4, #10]	@ zero_extendqisi2
	cmp	r6, #0
	bne	.L2213
	add	r8, r5, #368
	add	r7, r5, #408
	add	r8, r8, #3
.L2216:
	ldr	r1, .L2248+36
	mov	r0, r4
	bl	mvc_ue_v
	ldr	r1, .L2248+40
	add	r6, r6, #1
	str	r0, [r7, #4]!
	mov	r0, r4
	bl	mvc_ue_v
	ldr	r1, .L2248+44
	str	r0, [r7, #128]
	mov	r0, r4
	bl	mvc_u_1
	strb	r0, [r8, #1]!
	ldr	r3, [r5, #408]
	cmp	r3, r6
	bcs	.L2216
	ldr	r2, .L2248+48
	mov	r1, #5
	mov	r0, r4
	bl	mvc_u_v
	ldr	r2, .L2248+52
	mov	r1, #5
	str	r0, [r5, #668]
	mov	r0, r4
	bl	mvc_u_v
	ldr	r2, .L2248+56
	mov	r1, #5
	str	r0, [r5, #672]
	mov	r0, r4
	bl	mvc_u_v
	ldr	r2, .L2248+60
	mov	r1, #5
	str	r0, [r5, #676]
	mov	r0, r4
	bl	mvc_u_v
	ldrb	r3, [r5, #7]	@ zero_extendqisi2
	cmp	r3, #0
	str	r0, [r5, #680]
	bne	.L2219
	ldrb	r3, [r5, #10]	@ zero_extendqisi2
	cmp	r3, #0
	beq	.L2218
.L2219:
	ldr	r1, .L2248+76
	mov	r0, r4
	bl	mvc_u_1
	strb	r0, [r5, #14]
	b	.L2218
.L2246:
	ldr	r2, .L2248+80
	mov	r1, #32
	mov	r0, r4
	bl	mvc_u_v
	ldr	r2, .L2248+84
	mov	r1, #32
	str	r0, [r5, #52]
	mov	r0, r4
	bl	mvc_u_v
	ldr	r1, .L2248+88
	str	r0, [r5, #56]
	mov	r0, r4
	bl	mvc_u_1
	uxtb	r0, r0
	strb	r0, [r5, #9]
	cmp	r0, #1
	bne	.L2208
	ldr	r1, [r5, #52]
	cmp	r1, #0
	beq	.L2208
	ldr	r3, [r5, #56]
	mov	r0, #1000
	mul	r0, r0, r3
	bl	__aeabi_uidiv
	mov	r0, r0, lsr #1
	str	r0, [r4, #56]
	b	.L2208
.L2245:
	ldr	r1, .L2248+92
	mov	r0, r4
	bl	mvc_ue_v
	ldr	r1, .L2248+96
	str	r0, [r5, #44]
	mov	r0, r4
	bl	mvc_ue_v
	str	r0, [r5, #48]
	b	.L2206
.L2244:
	ldr	r2, .L2248+100
	mov	r1, #3
	mov	r0, r4
	bl	mvc_u_v
	ldr	r1, .L2248+104
	str	r0, [r5, #28]
	mov	r0, r4
	bl	mvc_u_1
	ldr	r1, .L2248+108
	strb	r0, [r5, #4]
	mov	r0, r4
	bl	mvc_u_1
	uxtb	r0, r0
	strb	r0, [r5, #5]
	cmp	r0, #0
	beq	.L2205
	ldr	r2, .L2248+112
	mov	r1, #8
	mov	r0, r4
	bl	mvc_u_v
	ldr	r2, .L2248+116
	mov	r1, #8
	str	r0, [r5, #32]
	mov	r0, r4
	bl	mvc_u_v
	ldr	r2, .L2248+120
	mov	r1, #8
	str	r0, [r5, #36]
	mov	r0, r4
	bl	mvc_u_v
	str	r0, [r5, #40]
	b	.L2205
.L2243:
	ldr	r1, .L2248+124
	mov	r0, r4
	bl	mvc_u_1
	strb	r0, [r5, #2]
	b	.L2203
.L2242:
	ldr	r2, .L2248+128
	mov	r1, #8
	mov	r0, r4
	bl	mvc_u_v
	uxtb	r0, r0
	strb	r0, [r5, #15]
	cmp	r0, #255
	bne	.L2202
	ldr	r2, .L2248+132
	mov	r1, #16
	mov	r0, r4
	bl	mvc_u_v
	ldr	r2, .L2248+136
	mov	r1, #16
	str	r0, [r5, #16]
	mov	r0, r4
	bl	mvc_u_v
	str	r0, [r5, #20]
	b	.L2202
.L2220:
	ldr	r1, .L2248+140
	mov	r0, r4
	bl	mvc_u_1
	ldr	r1, .L2248+144
	strb	r0, [r5, #13]
	mov	r0, r4
	bl	mvc_ue_v
	ldr	r1, .L2248+148
	str	r0, [r5, #684]
	mov	r0, r4
	bl	mvc_ue_v
	ldr	r1, .L2248+152
	str	r0, [r5, #688]
	mov	r0, r4
	bl	mvc_ue_v
	ldr	r1, .L2248+156
	str	r0, [r5, #696]
	mov	r0, r4
	bl	mvc_ue_v
	ldr	r1, .L2248+160
	str	r0, [r5, #692]
	mov	r0, r4
	bl	mvc_ue_v
	ldr	r1, .L2248+164
	str	r0, [r5, #700]
	mov	r0, r4
	bl	mvc_ue_v
	str	r0, [r5, #704]
	ldrb	r0, [r4, #10]	@ zero_extendqisi2
	cmp	r0, #0
	beq	.L2221
	mvn	r0, #0
	ldmfd	sp, {r4, r5, r6, r7, r8, r9, fp, sp, pc}
.L2213:
	ldr	r1, .L2248+168
	mov	r0, #1
	bl	dprint_vfmw
	mvn	r0, #0
	ldmfd	sp, {r4, r5, r6, r7, r8, r9, fp, sp, pc}
.L2249:
	.align	2
.L2248:
	.word	.LC173
	.word	.LC177
	.word	.LC179
	.word	.LC186
	.word	.LC189
	.word	.LC193
	.word	.LC194
	.word	.LC195
	.word	.LC196
	.word	.LC198
	.word	.LC199
	.word	.LC200
	.word	.LC201
	.word	.LC202
	.word	.LC203
	.word	.LC204
	.word	.LC205
	.word	.LC207
	.word	.LC208
	.word	.LC206
	.word	.LC190
	.word	.LC191
	.word	.LC192
	.word	.LC187
	.word	.LC188
	.word	.LC180
	.word	.LC181
	.word	.LC182
	.word	.LC183
	.word	.LC184
	.word	.LC185
	.word	.LC178
	.word	.LC174
	.word	.LC175
	.word	.LC176
	.word	.LC209
	.word	.LC210
	.word	.LC211
	.word	.LC212
	.word	.LC213
	.word	.LC214
	.word	.LC215
	.word	.LC197
	UNWIND(.fnend)
	.size	mvc_vui_parameters, .-mvc_vui_parameters
	.align	2
	.global	MVC_SPSEqual
	.type	MVC_SPSEqual, %function
MVC_SPSEqual:
	UNWIND(.fnstart)
	@ args = 0, pretend = 0, frame = 8
	@ frame_needed = 1, uses_anonymous_args = 0
	UNWIND(.movsp ip)
	mov	ip, sp
	stmfd	sp!, {r4, r5, r6, r7, r8, r9, r10, fp, ip, lr, pc}
	UNWIND(.pad #4)
	UNWIND(.save {r4, r5, r6, r7, r8, r9, r10, fp, ip, lr})
	UNWIND(.setfp fp, ip, #-4)
	sub	fp, ip, #4
	UNWIND(.pad #12)
	sub	sp, sp, #12
	subs	r5, r0, #0
	beq	.L2282
	cmp	r1, #0
	beq	.L2283
	ldrb	lr, [r1]	@ zero_extendqisi2
	ldrb	r3, [r5]	@ zero_extendqisi2
	ldr	ip, [r5, #736]
	ldr	r2, [r1, #736]
	ldrb	r0, [r5, #1]	@ zero_extendqisi2
	cmp	r3, lr
	cmpeq	ip, r2
	ldrb	r6, [r1, #1]	@ zero_extendqisi2
	ldrb	r2, [r5, #2]	@ zero_extendqisi2
	ldrb	r4, [r1, #2]	@ zero_extendqisi2
	moveq	lr, #1
	movne	lr, #0
	ldr	r3, [r5, #740]
	cmp	r0, r6
	movne	ip, #0
	andeq	ip, lr, #1
	ldr	r6, [r1, #740]
	cmp	r2, r4
	movne	r0, #0
	andeq	r0, ip, #1
	ldr	lr, [r1, #744]
	ldr	r4, [r5, #744]
	cmp	r3, r6
	movne	r2, #0
	andeq	r2, r0, #1
	ldrb	ip, [r1, #27]	@ zero_extendqisi2
	ldrb	r0, [r5, #27]	@ zero_extendqisi2
	cmp	r4, lr
	movne	r3, #0
	andeq	r3, r2, #1
	cmp	ip, r0
	movne	r3, #0
	andeq	r3, r3, #1
	cmp	r0, #0
	beq	.L2254
	add	r0, r1, #5
	add	r2, r5, #5
	sub	r9, r1, #404
	add	r7, r1, #748
	mov	ip, r0
	mov	r8, r5
	mov	r6, r5
	str	r5, [fp, #-48]
	mov	r0, #0
	mov	r4, r2
	mov	r5, ip
	str	r1, [fp, #-52]
.L2259:
	ldrb	r2, [r4, #1]!	@ zero_extendqisi2
	ldrsb	ip, [r5, #1]!
	sxtb	r1, r2
	cmp	ip, r1
	movne	r3, #0
	andeq	r3, r3, #1
	cmp	r2, #0
	beq	.L2255
	cmp	r0, #5
	bhi	.L2256
	add	r2, r6, #748
	add	r10, r6, #812
	mov	r1, r7
.L2257:
	ldr	lr, [r2, #4]!
	ldr	ip, [r1, #4]!
	cmp	lr, ip
	movne	r3, #0
	andeq	r3, r3, #1
	cmp	r2, r10
	bne	.L2257
.L2255:
	add	r0, r0, #1
	add	r8, r8, #256
	cmp	r0, #8
	add	r9, r9, #256
	add	r6, r6, #64
	add	r7, r7, #64
	bne	.L2259
	ldr	r5, [fp, #-48]
	ldr	r1, [fp, #-52]
.L2254:
	ldr	r2, [r1, #2896]
	ldr	ip, [r5, #2900]
	ldr	r0, [r1, #2900]
	ldr	lr, [r5, #2896]
	cmp	ip, r0
	cmpeq	lr, r2
	moveq	r2, #1
	movne	r2, #0
	cmp	ip, #0
	and	r3, r3, r2
	beq	.L2261
	cmp	ip, #1
	bne	.L2260
	ldr	r0, [r1, #2908]
	ldr	ip, [r5, #2908]
	ldrb	r2, [r5, #18]	@ zero_extendqisi2
	ldrb	r6, [r1, #18]	@ zero_extendqisi2
	ldr	r4, [r5, #2912]
	cmp	ip, r0
	cmpeq	r2, r6
	ldr	lr, [r1, #2912]
	ldr	r6, [r5, #2916]
	ldr	ip, [r1, #2916]
	moveq	r0, #1
	movne	r0, #0
	cmp	r4, lr
	movne	r2, #0
	andeq	r2, r0, #1
	cmp	r6, ip
	movne	r2, #0
	andeq	r2, r2, #1
	cmp	r6, #0
	and	r3, r3, r2
	beq	.L2260
	add	ip, r5, #2912
	add	r0, r1, #2912
	add	ip, ip, #4
	add	r0, r0, #4
	mov	r2, #0
.L2263:
	ldr	r4, [ip, #4]!
	add	r2, r2, #1
	ldr	lr, [r0, #4]!
	cmp	r4, lr
	movne	r3, #0
	andeq	r3, r3, #1
	cmp	r2, r6
	bne	.L2263
.L2260:
	ldrb	ip, [r1, #19]	@ zero_extendqisi2
	ldrb	lr, [r5, #19]	@ zero_extendqisi2
	ldr	r0, [r5, #3944]
	ldr	r4, [r1, #3944]
	ldr	r2, [r5, #3948]
	cmp	lr, ip
	cmpeq	r0, r4
	ldr	r7, [r1, #3948]
	ldr	r6, [r5, #3952]
	ldr	r4, [r1, #3952]
	moveq	ip, #1
	movne	ip, #0
	ldrb	lr, [r1, #20]	@ zero_extendqisi2
	cmp	r2, r7
	movne	r0, #0
	andeq	r0, ip, #1
	ldrb	ip, [r5, #20]	@ zero_extendqisi2
	cmp	r6, r4
	movne	r2, #0
	andeq	r2, r0, #1
	cmp	lr, ip
	movne	r2, #0
	andeq	r2, r2, #1
	cmp	ip, #0
	and	r3, r3, r2
	bne	.L2264
	ldrb	r0, [r5, #21]	@ zero_extendqisi2
	ldrb	r2, [r1, #21]	@ zero_extendqisi2
	cmp	r0, r2
	movne	r3, #0
	andeq	r3, r3, #1
.L2264:
	ldrb	r2, [r1, #22]	@ zero_extendqisi2
	ldrb	ip, [r5, #23]	@ zero_extendqisi2
	ldrb	r0, [r1, #23]	@ zero_extendqisi2
	ldrb	lr, [r5, #22]	@ zero_extendqisi2
	cmp	r0, ip
	cmpeq	lr, r2
	moveq	r2, #1
	movne	r2, #0
	cmp	ip, #0
	and	r3, r3, r2
	bne	.L2284
.L2265:
	ldrb	r0, [r5, #24]	@ zero_extendqisi2
	ldrb	r2, [r1, #24]	@ zero_extendqisi2
	cmp	r0, r2
	movne	r0, #0
	andeq	r0, r3, #1
	eor	r0, r0, #1
	rsb	r0, r0, #0
.L2252:
	sub	sp, fp, #40
	ldmfd	sp, {r4, r5, r6, r7, r8, r9, r10, fp, sp, pc}
.L2284:
	ldr	ip, [r1, #3960]
	ldr	lr, [r5, #3960]
	ldr	r0, [r5, #3956]
	ldr	r4, [r1, #3956]
	ldr	r2, [r1, #3964]
	cmp	lr, ip
	cmpeq	r0, r4
	ldr	r6, [r5, #3964]
	ldr	r4, [r5, #3968]
	ldr	lr, [r1, #3968]
	moveq	ip, #1
	movne	ip, #0
	cmp	r6, r2
	movne	r0, #0
	andeq	r0, ip, #1
	cmp	r4, lr
	movne	r2, #0
	andeq	r2, r0, #1
	and	r3, r3, r2
	b	.L2265
.L2256:
	sub	r2, r8, #404
	sub	r10, r8, #148
	mov	r1, r9
.L2258:
	ldr	lr, [r2, #4]!
	ldr	ip, [r1, #4]!
	cmp	lr, ip
	movne	r3, #0
	andeq	r3, r3, #1
	cmp	r2, r10
	bne	.L2258
	b	.L2255
.L2261:
	ldr	r0, [r5, #2904]
	ldr	r2, [r1, #2904]
	cmp	r0, r2
	movne	r3, #0
	andeq	r3, r3, #1
	b	.L2260
.L2283:
	mov	r0, r1
	movw	r3, #10512
	ldr	r2, .L2285
	ldr	r1, .L2285+4
	bl	dprint_vfmw
	mvn	r0, #0
	b	.L2252
.L2282:
	movw	r3, #10511
	ldr	r2, .L2285
	ldr	r1, .L2285+4
	bl	dprint_vfmw
	mvn	r0, #0
	b	.L2252
.L2286:
	.align	2
.L2285:
	.word	.LC13
	.word	.LC14
	UNWIND(.fnend)
	.size	MVC_SPSEqual, .-MVC_SPSEqual
	.global	__aeabi_idiv
	.align	2
	.global	MVC_GetDar
	.type	MVC_GetDar, %function
MVC_GetDar:
	UNWIND(.fnstart)
	@ args = 4, pretend = 0, frame = 0
	@ frame_needed = 1, uses_anonymous_args = 0
	UNWIND(.movsp ip)
	mov	ip, sp
	stmfd	sp!, {r4, r5, fp, ip, lr, pc}
	UNWIND(.pad #4)
	UNWIND(.save {r4, r5, fp, ip, lr})
	UNWIND(.setfp fp, ip, #-4)
	sub	fp, ip, #4
	subs	r4, r0, #0
	beq	.L2310
	subs	ip, r4, #255
	movne	ip, #1
	cmp	r4, #16
	movle	lr, #0
	andgt	lr, ip, #1
	cmp	lr, #0
	bne	.L2299
	cmp	r2, #0
	cmpne	r1, #0
	moveq	r0, #1
	movne	r0, #0
	cmp	r4, #255
	movne	r0, #0
	andeq	r0, r0, #1
	cmp	r0, #0
	bne	.L2300
	cmp	r4, #1
	moveq	r2, r0
	moveq	r4, #5
	beq	.L2288
	cmp	ip, #0
	ldrne	r0, .L2311
	addne	r4, r0, r4, lsl #3
	ldrne	r1, [r4, #100]
	ldrne	r2, [r4, #104]
	mul	r0, r3, r1
	ldr	r3, [fp, #4]
	mul	r1, r3, r2
	mov	r0, r0, asl #10
	bl	__aeabi_idiv
	movw	r3, #2405
	movw	r1, #2262
	cmp	r0, r3
	mov	r2, r0
	rsble	r3, r0, #2400
	subgt	r3, r0, #2400
	addle	r3, r3, #6
	subgt	r3, r3, #6
	cmp	r0, r1
	bgt	.L2292
	rsb	r1, r0, #2256
	add	r1, r1, #7
	cmp	r3, r1
	bge	.L2293
.L2303:
	mov	r4, #4
	b	.L2288
.L2299:
	mov	r4, #0
.L2310:
	mov	r2, r4
.L2288:
	mov	r3, r4
	ldr	r1, .L2311+4
	mov	r0, #22
	bl	dprint_vfmw
	mov	r0, r4
	ldmfd	sp, {r4, r5, fp, sp, pc}
.L2292:
	sub	r1, r0, #2256
	sub	r1, r1, #7
	cmp	r3, r1
	blt	.L2303
.L2293:
	movw	r3, #1819
	cmp	r2, r3
	bgt	.L2294
	rsb	r3, r2, #1808
	add	r3, r3, #12
	cmp	r1, r3
	blt	.L2305
.L2295:
	movw	r1, #1364
	cmp	r2, r1
	rsble	r4, r2, #1360
	subgt	r4, r2, #1360
	addle	r4, r4, #5
	subgt	r4, r4, #5
	cmp	r3, r4
	movlt	r4, #2
	movge	r4, #1
	b	.L2288
.L2300:
	mov	r4, lr
	mov	r2, lr
	b	.L2288
.L2294:
	sub	r3, r2, #1808
	sub	r3, r3, #12
	cmp	r1, r3
	bge	.L2295
.L2305:
	mov	r4, #3
	b	.L2288
.L2312:
	.align	2
.L2311:
	.word	.LANCHOR0
	.word	.LC216
	UNWIND(.fnend)
	.size	MVC_GetDar, .-MVC_GetDar
	.align	2
	.global	MVC_ProcessSPS
	.type	MVC_ProcessSPS, %function
MVC_ProcessSPS:
	UNWIND(.fnstart)
	@ args = 0, pretend = 0, frame = 40
	@ frame_needed = 1, uses_anonymous_args = 0
	UNWIND(.movsp ip)
	mov	ip, sp
	stmfd	sp!, {r4, r5, r6, r7, r8, r9, r10, fp, ip, lr, pc}
	UNWIND(.pad #4)
	UNWIND(.save {r4, r5, r6, r7, r8, r9, r10, fp, ip, lr})
	UNWIND(.setfp fp, ip, #-4)
	sub	fp, ip, #4
	UNWIND(.pad #52)
	sub	sp, sp, #52
	subs	r5, r1, #0
	mov	r4, r0
	beq	.L2426
	ldr	r3, [r5, #736]
	cmp	r3, #100
	cmpne	r3, #122
	bic	r1, r3, #16
	sub	r3, r3, #110
	moveq	r2, #1
	movne	r2, #0
	cmp	r1, #128
	orreq	r2, r2, #1
	bics	r3, r3, #8
	orreq	r3, r2, #1
	movne	r3, r2
	cmp	r3, #0
	streqb	r3, [r5, #27]
	moveq	r3, #1
	streq	r3, [r5, #748]
	bne	.L2427
.L2326:
	ldr	r1, .L2441
	mov	r0, r4
	bl	mvc_ue_v
	cmp	r0, #12
	str	r0, [r5, #2896]
	bhi	.L2339
	ldrb	r3, [r4, #10]	@ zero_extendqisi2
	cmp	r3, #0
	bne	.L2339
	ldr	r1, .L2441+4
	mov	r0, r4
	bl	mvc_ue_v
	cmp	r0, #2
	str	r0, [r5, #2900]
	bhi	.L2341
	ldrb	r3, [r4, #10]	@ zero_extendqisi2
	cmp	r3, #0
	bne	.L2341
	cmp	r0, #0
	beq	.L2428
	cmp	r0, #1
	beq	.L2429
.L2347:
	ldr	r1, .L2441+8
	mov	r0, r4
	bl	mvc_ue_v
	str	r0, [r5, #3944]
	ldrb	r3, [r4, #10]	@ zero_extendqisi2
	cmp	r3, #0
	bne	.L2424
	ldr	r1, .L2441+12
	mov	r0, r4
	bl	mvc_u_1
	strb	r0, [r5, #19]
	ldrb	r3, [r4, #10]	@ zero_extendqisi2
	cmp	r3, #0
	bne	.L2424
	ldr	r1, .L2441+16
	mov	r0, r4
	bl	mvc_ue_v
	movw	r7, #509
	sub	r3, r0, #1
	str	r0, [r5, #3948]
	cmp	r3, r7
	bhi	.L2352
	ldrb	r3, [r4, #10]	@ zero_extendqisi2
	cmp	r3, #0
	bne	.L2352
	ldr	r1, .L2441+20
	mov	r0, r4
	bl	mvc_ue_v
	str	r0, [r5, #3952]
	ldrb	r3, [r4, #10]	@ zero_extendqisi2
	cmp	r3, #0
	bne	.L2424
	ldr	r1, .L2441+24
	mov	r0, r4
	bl	mvc_u_1
	uxtb	r0, r0
	strb	r0, [r5, #20]
	ldrb	r3, [r4, #10]	@ zero_extendqisi2
	cmp	r3, #0
	bne	.L2424
	cmp	r0, #0
	bne	.L2430
	ldr	r1, .L2441+28
	mov	r0, r4
	bl	mvc_u_1
	ldr	r6, [r5, #3952]
	add	r6, r6, #1
	cmp	r6, #255
	strb	r0, [r5, #21]
	bhi	.L2385
	ldr	r3, [r5, #3948]
	add	r3, r3, #1
	cmp	r6, #1
	cmphi	r3, #3
	movhi	r8, #2
	bhi	.L2356
.L2385:
	ldr	r1, .L2441+32
	mov	r0, #1
	bl	dprint_vfmw
	mvn	r0, #0
	b	.L2417
.L2427:
	ldr	r1, .L2441+36
	bl	mvc_ue_v
	cmp	r0, #1
	str	r0, [r5, #748]
	bhi	.L2317
	ldrb	r3, [r4, #10]	@ zero_extendqisi2
	cmp	r3, #0
	bne	.L2317
	ldr	r1, .L2441+40
	mov	r0, r4
	bl	mvc_ue_v
	cmp	r0, #0
	bne	.L2319
	ldrb	r3, [r4, #10]	@ zero_extendqisi2
	cmp	r3, #0
	beq	.L2320
.L2319:
	ldr	r1, .L2441+44
	mov	r0, #1
	bl	dprint_vfmw
.L2320:
	ldr	r1, .L2441+48
	mov	r0, r4
	bl	mvc_ue_v
	cmp	r0, #0
	bne	.L2321
	ldrb	r3, [r4, #10]	@ zero_extendqisi2
	cmp	r3, #0
	beq	.L2322
.L2321:
	ldr	r1, .L2441+52
	mov	r0, #1
	bl	dprint_vfmw
.L2322:
	ldr	r1, .L2441+56
	mov	r0, r4
	bl	mvc_u_1
	cmp	r0, #0
	bne	.L2323
	ldrb	r10, [r4, #10]	@ zero_extendqisi2
	cmp	r10, #0
	bne	.L2323
	ldr	r1, .L2441+60
	mov	r0, r4
	bl	mvc_u_1
	uxtb	r0, r0
	strb	r0, [r5, #27]
	cmp	r0, #1
	bne	.L2326
	sub	r7, fp, #72
	add	r9, r5, #5
	add	r6, r5, #2672
	add	r8, r5, #752
	b	.L2332
.L2433:
	ldr	r3, .L2441+64
	cmp	r1, #0
	add	ip, r3, #16
	moveq	r3, ip
	mov	r1, r3
	ldr	r3, .L2441+68
	ldr	r3, [r3, #52]
	blx	r3
.L2328:
	add	r10, r10, #1
	add	r6, r6, #16
	cmp	r10, #6
	add	r8, r8, #64
	beq	.L2431
.L2332:
	ldr	r1, .L2441+72
	mov	r0, r4
	bl	mvc_u_1
	clz	r1, r10
	mov	r2, #16
	mov	r1, r1, lsr #5
	cmp	r0, #1
	mov	r3, r0
	mov	r0, r6
	str	r3, [r7, #4]!
	strb	r3, [r9, #1]!
	beq	.L2432
	cmp	r10, #0
	cmpne	r10, #3
	beq	.L2433
	ldr	r3, .L2441+68
	mov	r2, #16
	sub	r1, r6, #16
	mov	r0, r6
	ldr	r3, [r3, #52]
	blx	r3
	b	.L2328
.L2383:
	cmp	r1, r9
	cmpcs	r0, r6
	bcs	.L2382
	ldr	r3, .L2441+76
	ldr	ip, [r3]
	cmp	ip, #0
	beq	.L2424
	strh	r1, [fp, #-72]	@ movhi
	mov	r3, #8
	strh	r0, [fp, #-70]	@ movhi
	sub	r2, fp, #76
	strh	r9, [fp, #-76]	@ movhi
	mov	r1, #107
	strh	r6, [fp, #-74]	@ movhi
	ldr	r0, [r4, #120]
	blx	ip
.L2424:
	mvn	r0, #0
.L2417:
	sub	sp, fp, #40
	ldmfd	sp, {r4, r5, r6, r7, r8, r9, r10, fp, sp, pc}
.L2430:
	ldr	r6, [r5, #3952]
	strb	r3, [r5, #21]
	sub	r3, r6, #1
	cmp	r3, r7
	bhi	.L2385
	ldr	r3, [r5, #3948]
	mov	r8, #1
	add	r6, r6, #1
	add	r3, r3, r8
.L2356:
	mul	r6, r6, r8
	mov	r9, r3, asl #4
	mov	r6, r6, asl #4
	mul	r1, r9, r6
	add	r1, r1, r1, lsr #1
	cmp	r1, #100663296
	bhi	.L2434
	ldr	r2, [r5, #740]
	sub	r3, r2, #10
	cmp	r3, #31
	ldrls	pc, [pc, r3, asl #2]
	b	.L2358
.L2360:
	.word	.L2359
	.word	.L2361
	.word	.L2392
	.word	.L2392
	.word	.L2358
	.word	.L2358
	.word	.L2358
	.word	.L2358
	.word	.L2358
	.word	.L2358
	.word	.L2392
	.word	.L2363
	.word	.L2365
	.word	.L2358
	.word	.L2358
	.word	.L2358
	.word	.L2358
	.word	.L2358
	.word	.L2358
	.word	.L2358
	.word	.L2365
	.word	.L2366
	.word	.L2367
	.word	.L2358
	.word	.L2358
	.word	.L2358
	.word	.L2358
	.word	.L2358
	.word	.L2358
	.word	.L2358
	.word	.L2369
	.word	.L2369
.L2428:
	ldr	r1, .L2441+80
	mov	r0, r4
	bl	mvc_ue_v
	cmp	r0, #12
	str	r0, [r5, #2904]
	bhi	.L2344
	ldrb	r3, [r4, #10]	@ zero_extendqisi2
	cmp	r3, #0
	beq	.L2347
.L2344:
	ldr	r1, .L2441+84
	mov	r0, #1
	bl	dprint_vfmw
	mvn	r0, #0
	b	.L2417
.L2392:
	mov	r0, #60416
	movt	r0, 13
.L2362:
	bl	__aeabi_uidiv
	ldr	r1, .L2441+88
	cmp	r0, #16
	movcc	r7, r0
	movcs	r7, #16
	mov	r2, r7
	mov	r0, #21
	bl	dprint_vfmw
	ldr	r2, [r5, #3944]
	cmp	r2, r7
	bhi	.L2370
	ldrb	r3, [r4, #10]	@ zero_extendqisi2
	cmp	r3, #0
	beq	.L2371
.L2370:
	mov	r3, r7
	ldr	r1, .L2441+92
	mov	r0, #0
	bl	dprint_vfmw
	ldr	r3, [r5, #3944]
	cmp	r3, #16
	bhi	.L2421
	cmp	r7, r3
	movcc	r7, r3
.L2421:
	str	r7, [r5, #3944]
.L2371:
	ldr	r1, .L2441+96
	mov	r0, r4
	bl	mvc_u_1
	strb	r0, [r5, #22]
	ldrb	r3, [r4, #10]	@ zero_extendqisi2
	cmp	r3, #0
	bne	.L2424
	ldr	r1, .L2441+100
	mov	r0, r4
	bl	mvc_u_1
	uxtb	r0, r0
	strb	r0, [r5, #23]
	ldrb	r3, [r4, #10]	@ zero_extendqisi2
	cmp	r3, #0
	bne	.L2424
	cmp	r0, #0
	bne	.L2435
.L2373:
	mov	r2, r9, lsr #1
	mov	r3, r6, lsr #1
	str	r9, [r5, #3976]
	str	r6, [r5, #3980]
	str	r2, [r5, #3984]
	str	r3, [r5, #3988]
.L2375:
	ldr	r1, .L2441+104
	mov	r0, r4
	bl	mvc_u_1
	uxtb	r3, r0
	strb	r3, [r5, #24]
	ldrb	r2, [r4, #10]	@ zero_extendqisi2
	cmp	r2, #0
	bne	.L2424
	cmp	r3, #0
	mov	r2, #2
	str	r2, [r5, #68]
	bne	.L2436
	mov	r0, r3
	strb	r3, [r5, #43]
	mov	r3, #5
	str	r3, [r5, #56]
.L2378:
	ldr	r2, [r5, #48]
	mov	r3, r9
	ldr	r1, [r5, #44]
	str	r6, [sp]
	bl	MVC_GetDar
	ldr	r3, [r5, #3944]
	cmp	r3, #0
	str	r0, [r5, #52]
	beq	.L2381
	cmp	r7, r3
	movcs	r7, r3
.L2381:
	ldr	r3, [r4, #224]
	cmp	r7, #16
	movcs	r7, #16
	ldr	r2, [r3, #28]
	cmp	r2, #25
	beq	.L2437
.L2382:
	cmp	r6, #1920
	bcc	.L2384
	cmp	r7, #4
	movcs	r7, #4
.L2384:
	add	r7, r7, #1
	mov	r0, #0
	str	r7, [r5, #3972]
	sub	sp, fp, #40
	ldmfd	sp, {r4, r5, r6, r7, r8, r9, r10, fp, sp, pc}
.L2369:
	mov	r0, #12582912
	b	.L2362
.L2365:
	mov	r0, #30208
	movt	r0, 47
	b	.L2362
.L2431:
	sub	r7, fp, #88
	add	r9, r5, #11
	add	r6, r5, #2768
	add	r8, r5, #1136
	mov	r10, #0
.L2337:
	ldr	r1, .L2441+72
	mov	r0, r4
	bl	mvc_u_1
	mov	r2, #64
	mov	r3, r0
	cmp	r3, #1
	mov	r0, r6
	str	r3, [r7, #4]!
	strb	r3, [r9, #1]!
	beq	.L2438
	ldr	r1, .L2441+108
	cmp	r10, #0
	ldr	r3, .L2441+68
	add	ip, r1, #64
	ldr	r3, [r3, #52]
	movne	r1, ip
	blx	r3
.L2334:
	add	r10, r10, #1
	add	r6, r6, #64
	cmp	r10, #2
	add	r8, r8, #256
	bne	.L2337
	b	.L2326
.L2432:
	mov	r3, r2
	str	r7, [sp]
	mov	r2, r6
	mov	r1, r8
	mov	r0, r4
	bl	MVC_Scaling_List
	ldr	r3, [r7]
	cmp	r3, #1
	bne	.L2328
	ldr	r1, .L2441+64
	mov	r2, #16
	ldr	r3, .L2441+68
	cmp	r10, #2
	add	r0, r1, r2
	ldr	r3, [r3, #52]
	movhi	r1, r0
	mov	r0, r6
	blx	r3
	b	.L2328
.L2317:
	ldr	r1, .L2441+112
	mov	r0, #1
	bl	dprint_vfmw
	mvn	r0, #0
	sub	sp, fp, #40
	ldmfd	sp, {r4, r5, r6, r7, r8, r9, r10, fp, sp, pc}
.L2339:
	ldr	r1, .L2441+116
	mov	r0, #1
	bl	dprint_vfmw
	mvn	r0, #0
	b	.L2417
.L2435:
	ldr	r1, .L2441+120
	mov	r0, r4
	bl	mvc_ue_v
	ldr	r1, .L2441+124
	str	r0, [r5, #3956]
	mov	r0, r4
	bl	mvc_ue_v
	ldr	r1, .L2441+128
	str	r0, [r5, #3960]
	mov	r0, r4
	bl	mvc_ue_v
	ldr	r1, .L2441+132
	str	r0, [r5, #3964]
	mov	r0, r4
	bl	mvc_ue_v
	ldr	r3, [r5, #3964]
	ldr	r2, [r5, #3956]
	mov	r1, r8, asl #1
	ldr	ip, [r5, #3960]
	mov	r3, r3, asl #1
	mov	r2, r2, asl #1
	mul	r8, r8, r3
	rsb	r3, r2, r9
	sub	r3, r3, ip, asl #1
	rsb	ip, r8, r6
	str	r0, [r5, #3968]
	mls	r0, r0, r1, ip
	cmp	r3, #0
	cmpgt	r0, #0
	ble	.L2373
	add	r2, r2, r3, lsr #1
	add	r8, r8, r0, lsr #1
	str	r2, [r5, #3984]
	str	r8, [r5, #3988]
	str	r3, [r5, #3976]
	str	r0, [r5, #3980]
	b	.L2375
.L2436:
	add	r1, r5, #28
	mov	r0, r4
	bl	mvc_vui_parameters
	cmp	r0, #0
	bne	.L2423
	ldrb	r3, [r5, #40]	@ zero_extendqisi2
	cmp	r3, #0
	beq	.L2423
	ldr	r2, [r5, #732]
	clz	r3, r2
	mov	r3, r3, lsr #5
	cmp	r7, r2
	orrcc	r3, r3, #1
	cmp	r3, #0
	bne	.L2439
	ldr	r3, [r5, #3944]
	ldrb	r0, [r5, #43]	@ zero_extendqisi2
	cmp	r2, r3
	movcs	r7, r2
	movcc	r7, r3
	b	.L2378
.L2439:
	mov	r3, r7
	ldr	r1, .L2441+136
	mov	r0, #1
	bl	dprint_vfmw
.L2423:
	ldrb	r0, [r5, #43]	@ zero_extendqisi2
	b	.L2378
.L2437:
	ldr	r2, [r3, #708]
	cmp	r2, #0
	bne	.L2382
	ldr	r2, [r3, #692]
	ldr	r1, [r3, #668]
	cmp	r7, r2
	ldr	r0, [r3, #672]
	bls	.L2383
	ldr	r3, .L2441+76
	ldr	ip, [r3]
	cmp	ip, #0
	beq	.L2424
	str	r2, [fp, #-72]
	mov	r3, #8
	str	r7, [fp, #-76]
	sub	r2, fp, #76
	ldr	r0, [r4, #120]
	mov	r1, #106
	blx	ip
	mvn	r0, #0
	b	.L2417
.L2323:
	ldr	r1, .L2441+140
	mov	r0, #1
	bl	dprint_vfmw
	mvn	r0, #0
	b	.L2417
.L2429:
	ldr	r1, .L2441+144
	mov	r0, r4
	bl	mvc_u_1
	strb	r0, [r5, #18]
	ldrb	r3, [r4, #10]	@ zero_extendqisi2
	cmp	r3, #0
	bne	.L2424
	ldr	r1, .L2441+148
	mov	r0, r4
	bl	mvc_se_v
	str	r0, [r5, #2908]
	ldrb	r3, [r4, #10]	@ zero_extendqisi2
	cmp	r3, #0
	bne	.L2424
	ldr	r1, .L2441+152
	mov	r0, r4
	bl	mvc_se_v
	str	r0, [r5, #2912]
	ldrb	r3, [r4, #10]	@ zero_extendqisi2
	cmp	r3, #0
	bne	.L2424
	ldr	r1, .L2441+156
	mov	r0, r4
	bl	mvc_ue_v
	cmp	r0, #255
	str	r0, [r5, #2916]
	bhi	.L2349
	ldrb	r6, [r4, #10]	@ zero_extendqisi2
	cmp	r6, #0
	bne	.L2349
	cmp	r0, #0
	addne	r7, r5, #2912
	addne	r7, r7, #4
	bne	.L2351
	b	.L2347
.L2440:
	ldr	r3, [r5, #2916]
	cmp	r3, r6
	bls	.L2347
.L2351:
	ldr	r1, .L2441+160
	mov	r0, r4
	bl	mvc_se_v
	add	r6, r6, #1
	str	r0, [r7, #4]!
	ldrb	r3, [r4, #10]	@ zero_extendqisi2
	cmp	r3, #0
	beq	.L2440
	b	.L2424
.L2352:
	mov	r2, r0
	ldr	r1, .L2441+164
	mov	r0, #1
	bl	dprint_vfmw
	mvn	r0, #0
	b	.L2417
.L2366:
	mov	r0, #30720
	movt	r0, 105
	b	.L2362
.L2363:
	mov	r0, #55296
	movt	r0, 27
	b	.L2362
.L2367:
	mov	r0, #7864320
	b	.L2362
.L2361:
	mov	r0, #17920
	movt	r0, 5
	b	.L2362
.L2359:
	mov	r0, #20992
	movt	r0, 2
	b	.L2362
.L2358:
	ldr	r1, .L2441+168
	mov	r0, #1
	bl	dprint_vfmw
	mvn	r0, #0
	b	.L2417
.L2349:
	ldr	r1, .L2441+172
	mov	r0, #1
	bl	dprint_vfmw
	mvn	r0, #0
	b	.L2417
.L2438:
	mov	r3, r2
	str	r7, [sp]
	mov	r2, r6
	mov	r1, r8
	mov	r0, r4
	bl	MVC_Scaling_List
	ldr	r3, [r7]
	cmp	r3, #1
	bne	.L2334
	ldr	r1, .L2441+108
	mov	r2, #64
	ldr	r3, .L2441+68
	cmp	r10, #0
	add	r0, r1, r2
	ldr	r3, [r3, #52]
	movne	r1, r0
	mov	r0, r6
	blx	r3
	b	.L2334
.L2341:
	ldr	r1, .L2441+176
	mov	r0, #1
	bl	dprint_vfmw
	mvn	r0, #0
	b	.L2417
.L2434:
	ldr	r1, .L2441+180
	mov	r0, #0
	bl	dprint_vfmw
	mvn	r0, #0
	b	.L2417
.L2426:
	mov	r0, r5
	movw	r3, #10701
	ldr	r2, .L2441+184
	ldr	r1, .L2441+188
	bl	dprint_vfmw
	mvn	r0, #0
	b	.L2417
.L2442:
	.align	2
.L2441:
	.word	.LC226
	.word	.LC228
	.word	.LC231
	.word	.LC239
	.word	.LC240
	.word	.LC242
	.word	.LC243
	.word	.LC257
	.word	.LC244
	.word	.LC217
	.word	.LC219
	.word	.LC220
	.word	.LC221
	.word	.LC222
	.word	.LC223
	.word	.LC225
	.word	.LANCHOR1
	.word	vfmw_Osal_Func_Ptr_S
	.word	.LC165
	.word	g_event_report
	.word	.LC230
	.word	.LC232
	.word	.LC247
	.word	.LC248
	.word	.LC249
	.word	.LC250
	.word	.LC255
	.word	.LANCHOR1+32
	.word	.LC218
	.word	.LC227
	.word	.LC251
	.word	.LC252
	.word	.LC253
	.word	.LC254
	.word	.LC256
	.word	.LC224
	.word	.LC233
	.word	.LC234
	.word	.LC235
	.word	.LC236
	.word	.LC238
	.word	.LC241
	.word	.LC246
	.word	.LC237
	.word	.LC229
	.word	.LC245
	.word	.LC13
	.word	.LC14
	UNWIND(.fnend)
	.size	MVC_ProcessSPS, .-MVC_ProcessSPS
	.align	2
	.global	MVC_DecSPS
	.type	MVC_DecSPS, %function
MVC_DecSPS:
	UNWIND(.fnstart)
	@ args = 0, pretend = 0, frame = 32
	@ frame_needed = 1, uses_anonymous_args = 0
	UNWIND(.movsp ip)
	mov	ip, sp
	stmfd	sp!, {r4, r5, r6, r7, r8, r9, r10, fp, ip, lr, pc}
	UNWIND(.pad #4)
	UNWIND(.save {r4, r5, r6, r7, r8, r9, r10, fp, ip, lr})
	UNWIND(.setfp fp, ip, #-4)
	sub	fp, ip, #4
	UNWIND(.pad #36)
	sub	sp, sp, #36
	ldr	r2, .L2488
	mov	r1, #8
	mov	r4, r0
	bl	mvc_u_v
	ldr	r1, .L2488+4
	mov	r7, r0
	mov	r0, r4
	bl	mvc_u_1
	ldr	r1, .L2488+8
	mov	r9, r0
	mov	r0, r4
	bl	mvc_u_1
	ldr	r1, .L2488+12
	mov	r8, r0
	mov	r0, r4
	bl	mvc_u_1
	ldr	r1, .L2488+16
	str	r0, [fp, #-56]
	mov	r0, r4
	bl	mvc_u_1
	ldr	r1, .L2488+20
	str	r0, [fp, #-60]
	mov	r0, r4
	bl	mvc_u_1
	ldr	r1, .L2488+24
	str	r0, [fp, #-64]
	mov	r0, r4
	bl	mvc_u_1
	ldr	r2, .L2488+28
	mov	r1, #2
	str	r0, [fp, #-68]
	mov	r0, r4
	bl	mvc_u_v
	ldr	r2, .L2488+32
	mov	r1, #8
	mov	r0, r4
	bl	mvc_u_v
	ldr	r1, .L2488+36
	mov	r5, r0
	mov	r0, r4
	bl	mvc_ue_v
	ldrb	r2, [r4, #10]	@ zero_extendqisi2
	cmp	r2, #0
	mov	r6, r0
	bne	.L2481
	ldr	r2, [r4, #36]
	sub	r2, r2, #1
	cmp	r0, r2
	bhi	.L2483
	cmp	r7, #100
	mov	r10, r7
	beq	.L2449
	bhi	.L2450
	cmp	r7, #77
	beq	.L2449
	cmp	r7, #88
	beq	.L2451
	cmp	r7, #66
	bne	.L2448
	ldr	r1, .L2488+40
	mov	r0, #1
	bl	dprint_vfmw
.L2449:
	cmp	r5, #9
	mov	r2, r5
	bls	.L2480
.L2486:
	cmp	r5, #41
	bhi	.L2480
.L2455:
	movw	r1, #3992
	ldr	r3, [r4, #248]
	mul	r5, r1, r6
	add	r3, r3, r5
	ldrb	ip, [r3, #25]	@ zero_extendqisi2
	cmp	ip, #0
	beq	.L2456
	ldr	r3, .L2488+44
	mov	r0, r4
	ldrb	ip, [fp, #-56]	@ zero_extendqisi2
	add	r1, r3, #2240
	str	r10, [r3, #2976]
	strb	ip, [r3, #2242]
	ldrb	ip, [fp, #-60]	@ zero_extendqisi2
	strb	r9, [r3, #2240]
	strb	r8, [r3, #2241]
	strb	ip, [r3, #2243]
	ldrb	ip, [fp, #-64]	@ zero_extendqisi2
	str	r2, [r3, #2980]
	str	r6, [r3, #2984]
	strb	ip, [r3, #2244]
	ldrb	ip, [fp, #-68]	@ zero_extendqisi2
	str	r3, [fp, #-56]
	strb	ip, [r3, #2245]
	bl	MVC_ProcessSPS
	ldr	r3, [fp, #-56]
	subs	r7, r0, #0
	bne	.L2484
	ldr	r1, [r4, #248]
	add	r0, r3, #2240
	str	r3, [fp, #-56]
	add	r1, r1, r5
	bl	MVC_SPSEqual
	ldr	r3, [fp, #-56]
	cmp	r0, #0
	bne	.L2485
.L2445:
	sub	sp, fp, #40
	ldmfd	sp, {r4, r5, r6, r7, r8, r9, r10, fp, sp, pc}
.L2450:
	cmp	r7, #122
	beq	.L2453
	cmp	r7, #144
	beq	.L2453
	cmp	r7, #110
	beq	.L2453
.L2448:
	mov	r2, r7
	ldr	r1, .L2488+48
	mov	r0, #1
	mov	r10, #100
	bl	dprint_vfmw
	cmp	r5, #9
	mov	r2, r5
	bhi	.L2486
.L2480:
	mov	r3, #41
	ldr	r1, .L2488+52
	mov	r0, #1
	bl	dprint_vfmw
	mov	r2, #41
	b	.L2455
.L2456:
	str	r10, [r3, #736]
	mov	r0, r4
	ldr	r3, [r4, #248]
	ldrb	r1, [fp, #-56]	@ zero_extendqisi2
	str	ip, [fp, #-72]
	strb	r9, [r3, r5]
	ldr	r3, [r4, #248]
	add	r3, r3, r5
	strb	r8, [r3, #1]
	ldr	r3, [r4, #248]
	add	r3, r3, r5
	strb	r1, [r3, #2]
	ldr	r3, [r4, #248]
	ldrb	r1, [fp, #-60]	@ zero_extendqisi2
	add	r3, r3, r5
	strb	r1, [r3, #3]
	ldr	r3, [r4, #248]
	ldrb	r1, [fp, #-64]	@ zero_extendqisi2
	add	r3, r3, r5
	strb	r1, [r3, #4]
	ldr	r3, [r4, #248]
	ldrb	r1, [fp, #-68]	@ zero_extendqisi2
	add	r3, r3, r5
	strb	r1, [r3, #5]
	ldr	r3, [r4, #248]
	add	r3, r3, r5
	str	r2, [r3, #740]
	ldr	r3, [r4, #248]
	add	r3, r3, r5
	str	r6, [r3, #744]
	ldr	r1, [r4, #248]
	add	r1, r1, r5
	bl	MVC_ProcessSPS
	ldr	ip, [fp, #-72]
	cmp	r0, #0
	bne	.L2487
	ldr	r3, [r4, #248]
	mov	r2, #1
	add	r3, r3, r5
	strb	r2, [r3, #26]
	ldr	r3, [r4, #248]
	add	r5, r3, r5
	strb	r2, [r5, #25]
	sub	sp, fp, #40
	ldmfd	sp, {r4, r5, r6, r7, r8, r9, r10, fp, sp, pc}
.L2483:
	ldr	r1, .L2488+56
	mov	r0, #1
	bl	dprint_vfmw
	ldr	r2, [r4, #36]
	sub	r3, r2, #1
	cmp	r6, r3
	bls	.L2481
	ldr	r3, .L2488+60
	ldr	ip, [r3]
	cmp	ip, #0
	beq	.L2481
	str	r2, [fp, #-48]
	mov	r3, #8
	str	r6, [fp, #-52]
	sub	r2, fp, #52
	ldr	r0, [r4, #120]
	mov	r1, #109
	blx	ip
.L2481:
	mvn	r0, #0
	sub	sp, fp, #40
	ldmfd	sp, {r4, r5, r6, r7, r8, r9, r10, fp, sp, pc}
.L2453:
	ldr	r1, .L2488+64
	mov	r0, #1
	bl	dprint_vfmw
	cmp	r5, #9
	mov	r2, r5
	bhi	.L2486
	b	.L2480
.L2451:
	ldr	r1, .L2488+68
	mov	r0, #1
	bl	dprint_vfmw
	cmp	r5, #9
	mov	r2, r5
	bhi	.L2486
	b	.L2480
.L2485:
	ldr	lr, .L2488+72
	mov	ip, #1
	ldr	r0, [r4, #248]
	movw	r2, #3992
	add	r1, r3, #2240
	strb	ip, [r3, #2266]
	add	r0, r0, r5
	ldr	r4, [lr, #56]
	strb	ip, [r3, #2265]
	blx	r4
	mov	r0, r7
	b	.L2445
.L2484:
	mov	r3, r6
	movw	r2, #11245
	ldr	r1, .L2488+76
	mov	r0, #1
	bl	dprint_vfmw
	mvn	r0, #0
	b	.L2445
.L2487:
	mov	r3, r6
	movw	r2, #11272
	ldr	r1, .L2488+76
	mov	r0, #1
	str	ip, [fp, #-56]
	bl	dprint_vfmw
	ldr	r3, [r4, #248]
	mov	r2, #1
	ldr	ip, [fp, #-56]
	mvn	r0, #0
	add	r3, r3, r5
	strb	r2, [r3, #26]
	ldr	r3, [r4, #248]
	add	r5, r3, r5
	strb	ip, [r5, #25]
	b	.L2445
.L2489:
	.align	2
.L2488:
	.word	.LC258
	.word	.LC259
	.word	.LC260
	.word	.LC261
	.word	.LC262
	.word	.LC263
	.word	.LC264
	.word	.LC265
	.word	.LC266
	.word	.LC267
	.word	.LC268
	.word	.LANCHOR2
	.word	.LC271
	.word	.LC272
	.word	.LC171
	.word	g_event_report
	.word	.LC270
	.word	.LC269
	.word	vfmw_Osal_Func_Ptr_S
	.word	.LC273
	UNWIND(.fnend)
	.size	MVC_DecSPS, .-MVC_DecSPS
	.align	2
	.global	MVC_FreeMvcExtMem
	.type	MVC_FreeMvcExtMem, %function
MVC_FreeMvcExtMem:
	UNWIND(.fnstart)
	@ args = 0, pretend = 0, frame = 0
	@ frame_needed = 1, uses_anonymous_args = 0
	UNWIND(.movsp ip)
	mov	ip, sp
	stmfd	sp!, {fp, ip, lr, pc}
	UNWIND(.pad #4)
	UNWIND(.save {fp, ip, lr})
	UNWIND(.setfp fp, ip, #-4)
	sub	fp, ip, #4
	mov	r0, #0
	ldmfd	sp, {fp, sp, pc}
	UNWIND(.fnend)
	.size	MVC_FreeMvcExtMem, .-MVC_FreeMvcExtMem
	.align	2
	.global	MVC_FreeMvcVuiExtMem
	.type	MVC_FreeMvcVuiExtMem, %function
MVC_FreeMvcVuiExtMem:
	UNWIND(.fnstart)
	@ args = 0, pretend = 0, frame = 0
	@ frame_needed = 1, uses_anonymous_args = 0
	UNWIND(.movsp ip)
	mov	ip, sp
	stmfd	sp!, {fp, ip, lr, pc}
	UNWIND(.pad #4)
	UNWIND(.save {fp, ip, lr})
	UNWIND(.setfp fp, ip, #-4)
	sub	fp, ip, #4
	mov	r0, #0
	ldmfd	sp, {fp, sp, pc}
	UNWIND(.fnend)
	.size	MVC_FreeMvcVuiExtMem, .-MVC_FreeMvcVuiExtMem
	.align	2
	.global	MVC_ProcessSUBSPSMvcExt
	.type	MVC_ProcessSUBSPSMvcExt, %function
MVC_ProcessSUBSPSMvcExt:
	UNWIND(.fnstart)
	@ args = 0, pretend = 0, frame = 32
	@ frame_needed = 1, uses_anonymous_args = 0
	UNWIND(.movsp ip)
	mov	ip, sp
	stmfd	sp!, {r4, r5, r6, r7, r8, r9, r10, fp, ip, lr, pc}
	UNWIND(.pad #4)
	UNWIND(.save {r4, r5, r6, r7, r8, r9, r10, fp, ip, lr})
	UNWIND(.setfp fp, ip, #-4)
	sub	fp, ip, #4
	UNWIND(.pad #36)
	sub	sp, sp, #36
	subs	r5, r1, #0
	mov	r4, r0
	beq	.L2554
	ldr	r1, .L2555
	bl	mvc_ue_v
	cmp	r0, #1
	str	r0, [r5, #4]
	bhi	.L2495
	ldrb	r6, [r4, #10]	@ zero_extendqisi2
	cmp	r6, #0
	addeq	r7, r5, #4
	bne	.L2495
.L2497:
	ldr	r1, .L2555+4
	mov	r0, r4
	bl	mvc_ue_v
	add	r6, r6, #1
	str	r0, [r7, #4]!
	ldr	r3, [r5, #4]
	cmp	r3, r6
	bcs	.L2497
	cmp	r3, #0
	mov	r2, #0
	str	r2, [r5, #16]
	str	r2, [r5, #24]
	beq	.L2498
	add	r8, r5, #16
	mov	r7, #1
.L2508:
	ldr	r1, .L2555+8
	mov	r0, r4
	bl	mvc_ue_v
	add	r9, r8, #4
	str	r0, [r8, #4]
	ldr	r3, [r5, #4]
	cmp	r3, #15
	movcs	r3, #15
	cmp	r0, r3
	bhi	.L2499
	ldrb	r6, [r4, #10]	@ zero_extendqisi2
	cmp	r6, #0
	bne	.L2499
	cmp	r0, #0
	addne	r10, r8, #16
	beq	.L2504
.L2503:
	ldr	r1, .L2555+12
	mov	r0, r4
	bl	mvc_ue_v
	add	r6, r6, #1
	str	r0, [r10, #4]!
	ldr	r3, [r9]
	cmp	r6, r3
	bcc	.L2503
.L2504:
	ldr	r1, .L2555+16
	mov	r0, r4
	bl	mvc_ue_v
	str	r0, [r9, #8]
	ldr	r3, [r5, #4]
	cmp	r3, #15
	movcc	r2, r3
	movcs	r2, #15
	cmp	r0, r2
	bhi	.L2501
	ldrb	r6, [r4, #10]	@ zero_extendqisi2
	cmp	r6, #0
	bne	.L2501
	cmp	r0, #0
	addne	r8, r8, #24
	beq	.L2506
.L2507:
	ldr	r1, .L2555+20
	mov	r0, r4
	bl	mvc_ue_v
	add	r6, r6, #1
	str	r0, [r8, #4]!
	ldr	r3, [r9, #8]
	cmp	r6, r3
	bcc	.L2507
	ldr	r3, [r5, #4]
.L2506:
	add	r7, r7, #1
	mov	r8, r9
	cmp	r7, r3
	bls	.L2508
	cmp	r3, #0
	mov	r3, #0
	addne	r8, r5, #48
	str	r3, [r5, #48]
	str	r3, [r5, #56]
	movne	r7, #1
	beq	.L2522
.L2521:
	ldr	r1, .L2555+24
	mov	r0, r4
	bl	mvc_ue_v
	add	r9, r8, #4
	str	r0, [r8, #4]
	ldr	r3, [r5, #4]
	cmp	r3, #15
	movcs	r3, #15
	cmp	r0, r3
	bhi	.L2512
	ldrb	r6, [r4, #10]	@ zero_extendqisi2
	cmp	r6, #0
	bne	.L2512
	cmp	r0, #0
	addne	r10, r8, #16
	beq	.L2517
.L2516:
	ldr	r1, .L2555+28
	mov	r0, r4
	bl	mvc_ue_v
	add	r6, r6, #1
	str	r0, [r10, #4]!
	ldr	r3, [r9]
	cmp	r6, r3
	bcc	.L2516
.L2517:
	ldr	r1, .L2555+32
	mov	r0, r4
	bl	mvc_ue_v
	str	r0, [r9, #8]
	ldr	r3, [r5, #4]
	cmp	r3, #15
	movcc	r2, r3
	movcs	r2, #15
	cmp	r0, r2
	bhi	.L2514
	ldrb	r6, [r4, #10]	@ zero_extendqisi2
	cmp	r6, #0
	bne	.L2514
	cmp	r0, #0
	addne	r8, r8, #24
	beq	.L2519
.L2520:
	ldr	r1, .L2555+36
	mov	r0, r4
	bl	mvc_ue_v
	add	r6, r6, #1
	str	r0, [r8, #4]!
	ldr	r3, [r9, #8]
	cmp	r6, r3
	bcc	.L2520
	ldr	r3, [r5, #4]
.L2519:
	add	r7, r7, #1
	mov	r8, r9
	cmp	r7, r3
	bls	.L2521
.L2522:
	ldr	r1, .L2555+40
	mov	r0, r4
	bl	mvc_ue_v
	add	r3, r0, #1
	str	r0, [r5, #80]
	cmp	r3, #16
	str	r3, [fp, #-60]
	bhi	.L2510
	ldrb	r3, [r4, #10]	@ zero_extendqisi2
	cmp	r3, #0
	bne	.L2510
	ldr	r2, [fp, #-60]
	cmp	r2, #0
	beq	.L2527
	add	r2, r5, #8384
	add	r1, r5, #80
	add	r2, r2, #16
	str	r1, [fp, #-72]
	str	r2, [fp, #-68]
	add	r2, r5, #212
	str	r3, [fp, #-56]
	str	r2, [fp, #-64]
	str	r5, [fp, #-76]
.L2526:
	ldr	r2, .L2555+44
	mov	r1, #8
	mov	r0, r4
	bl	mvc_u_v
	ldr	r3, [fp, #-72]
	ldr	r1, .L2555+48
	str	r0, [r3, #4]!
	mov	r0, r4
	mov	r5, r3
	str	r3, [fp, #-72]
	bl	mvc_ue_v
	add	r3, r0, #1
	str	r0, [r5, #64]
	str	r3, [fp, #-52]
	mov	r2, r3
	cmp	r2, #64
	bhi	.L2524
	ldrb	r7, [r4, #10]	@ zero_extendqisi2
	cmp	r7, #0
	bne	.L2524
	cmp	r2, #0
	beq	.L2534
	ldr	r3, [fp, #-64]
	movw	r10, #8188
	ldr	r2, [fp, #-68]
	movt	r10, 4
	add	r10, r3, r10
	mov	r8, r3
	str	r2, [fp, #-48]
.L2533:
	ldr	r2, .L2555+52
	mov	r1, #3
	mov	r0, r4
	bl	mvc_u_v
	ldr	r1, .L2555+56
	str	r0, [r8], #4
	mov	r0, r4
	bl	mvc_ue_v
	add	r6, r0, #1
	str	r0, [r8, #4092]
	cmp	r6, #64
	bhi	.L2528
	ldrb	r3, [r4, #10]	@ zero_extendqisi2
	cmp	r3, #0
	bne	.L2528
	cmp	r6, #0
	movne	r5, r3
	ldrne	r9, [fp, #-48]
	beq	.L2532
.L2529:
	ldr	r1, .L2555+60
	mov	r0, r4
	bl	mvc_ue_v
	add	r5, r5, #1
	cmp	r6, r5
	str	r0, [r9, #4]!
	bne	.L2529
.L2532:
	ldr	r1, .L2555+64
	mov	r0, r4
	bl	mvc_ue_v
	cmp	r0, #1024
	str	r0, [r10, #4]!
	bcs	.L2530
	ldrb	r3, [r4, #10]	@ zero_extendqisi2
	cmp	r3, #0
	bne	.L2530
	ldr	r3, [fp, #-48]
	add	r7, r7, #1
	add	r3, r3, #256
	str	r3, [fp, #-48]
	ldr	r3, [fp, #-52]
	cmp	r3, r7
	bne	.L2533
.L2534:
	ldr	r2, [fp, #-64]
	ldr	r3, [fp, #-56]
	add	r2, r2, #256
	str	r2, [fp, #-64]
	ldr	r2, [fp, #-60]
	add	r3, r3, #1
