#include "hi_asm_define.h"
	.arch armv7-a
	.fpu softvfp
	.eabi_attribute 20, 1
	.eabi_attribute 21, 1
	.eabi_attribute 23, 3
	.eabi_attribute 24, 1
	.eabi_attribute 25, 1
	.eabi_attribute 26, 2
	.eabi_attribute 30, 2
	.eabi_attribute 34, 0
	.eabi_attribute 18, 4
	.file	"vp9.c"
	.global	__aeabi_uidiv
	.text
	.align	2
	.type	Vp9_ModeMvMergeProbs, %function
Vp9_ModeMvMergeProbs:
	UNWIND(.fnstart)
	@ args = 0, pretend = 0, frame = 0
	@ frame_needed = 1, uses_anonymous_args = 0
	UNWIND(.movsp ip)
	mov	ip, sp
	stmfd	sp!, {r4, r5, fp, ip, lr, pc}
	UNWIND(.pad #4)
	UNWIND(.save {r4, r5, fp, ip, lr})
	UNWIND(.setfp fp, ip, #-4)
	sub	fp, ip, #4
	mov	r4, r0
	ldmia	r1, {r0, r1}
	adds	r3, r0, r1
	beq	.L3
	cmp	r3, #20
	ldr	r2, .L5
	mov	r0, r0, asl #8
	mov	r1, r3
	add	r0, r0, r3, lsr #1
	movcs	r3, #20
	ldrb	r5, [r2, r3]	@ zero_extendqisi2
	bl	__aeabi_uidiv
	rsb	r3, r5, #256
	mul	r4, r4, r3
	add	r3, r4, #128
	cmp	r0, #1
	movlt	r0, #1
	cmp	r0, #255
	movge	r0, #255
	uxtb	r0, r0
	mla	r0, r5, r0, r3
	ubfx	r0, r0, #8, #8
	ldmfd	sp, {r4, r5, fp, sp, pc}
.L3:
	mov	r0, r4
	ldmfd	sp, {r4, r5, fp, sp, pc}
.L6:
	.align	2
.L5:
	.word	.LANCHOR0
	UNWIND(.fnend)
	.size	Vp9_ModeMvMergeProbs, .-Vp9_ModeMvMergeProbs
	.align	2
	.global	VP9_u_v_x
	.type	VP9_u_v_x, %function
VP9_u_v_x:
	UNWIND(.fnstart)
	@ args = 0, pretend = 0, frame = 0
	@ frame_needed = 1, uses_anonymous_args = 0
	UNWIND(.movsp ip)
	mov	ip, sp
	stmfd	sp!, {fp, ip, lr, pc}
	UNWIND(.pad #4)
	UNWIND(.save {fp, ip, lr})
	UNWIND(.setfp fp, ip, #-4)
	sub	fp, ip, #4
	sub	sp, fp, #12
	ldmia	sp, {fp, sp, lr}
	b	BsGet
	UNWIND(.fnend)
	.size	VP9_u_v_x, .-VP9_u_v_x
	.align	2
	.global	VP9_s_v
	.type	VP9_s_v, %function
VP9_s_v:
	UNWIND(.fnstart)
	@ args = 0, pretend = 0, frame = 0
	@ frame_needed = 1, uses_anonymous_args = 0
	UNWIND(.movsp ip)
	mov	ip, sp
	stmfd	sp!, {fp, ip, lr, pc}
	UNWIND(.pad #4)
	UNWIND(.save {fp, ip, lr})
	UNWIND(.setfp fp, ip, #-4)
	sub	fp, ip, #4
	add	r1, r1, #1
	bl	BsGet
	tst	r0, #1
	mov	r0, r0, asr #1
	rsbne	r0, r0, #0
	ldmfd	sp, {fp, sp, pc}
	UNWIND(.fnend)
	.size	VP9_s_v, .-VP9_s_v
	.align	2
	.global	Vp9_Cabac_ReadIsValid
	.type	Vp9_Cabac_ReadIsValid, %function
Vp9_Cabac_ReadIsValid:
	UNWIND(.fnstart)
	@ args = 0, pretend = 0, frame = 0
	@ frame_needed = 1, uses_anonymous_args = 0
	UNWIND(.movsp ip)
	mov	ip, sp
	stmfd	sp!, {fp, ip, lr, pc}
	UNWIND(.pad #4)
	UNWIND(.save {fp, ip, lr})
	UNWIND(.setfp fp, ip, #-4)
	sub	fp, ip, #4
	cmp	r2, #0
	cmpne	r0, #0
	moveq	r3, #1
	movne	r3, #0
	beq	.L13
	cmp	r1, #0
	ble	.L14
	add	r0, r0, r1
	cmp	r2, r0
	movcc	r0, #0
	movcs	r0, #1
	ldmfd	sp, {fp, sp, pc}
.L13:
	mov	r0, #0
	ldmfd	sp, {fp, sp, pc}
.L14:
	mov	r0, r3
	ldmfd	sp, {fp, sp, pc}
	UNWIND(.fnend)
	.size	Vp9_Cabac_ReadIsValid, .-Vp9_Cabac_ReadIsValid
	.align	2
	.global	Vp9_Cabac_ReaderFill
	.type	Vp9_Cabac_ReaderFill, %function
Vp9_Cabac_ReaderFill:
	UNWIND(.fnstart)
	@ args = 0, pretend = 0, frame = 0
	@ frame_needed = 1, uses_anonymous_args = 0
	UNWIND(.movsp ip)
	mov	ip, sp
	stmfd	sp!, {r4, r5, r6, r7, r8, r9, fp, ip, lr, pc}
	UNWIND(.pad #4)
	UNWIND(.save {r4, r5, r6, r7, r8, r9, fp, ip, lr})
	UNWIND(.setfp fp, ip, #-4)
	sub	fp, ip, #4
	ldr	r5, [r0, #32]
	mov	r7, r0
	ldr	r8, [r0, #28]
	rsb	r6, r5, #24
	rsb	r4, r5, #16
	bic	r6, r6, #7
	rsb	r4, r6, r4
	add	r5, r5, r6
	mov	r1, r6
	and	r4, r4, #7
	bl	BsGet
	str	r5, [r7, #32]
	orr	r0, r8, r0, asl r4
	str	r0, [r7, #28]
	ldmfd	sp, {r4, r5, r6, r7, r8, r9, fp, sp, pc}
	UNWIND(.fnend)
	.size	Vp9_Cabac_ReaderFill, .-Vp9_Cabac_ReaderFill
	.align	2
	.global	Vp9_Cabac_Read
	.type	Vp9_Cabac_Read, %function
Vp9_Cabac_Read:
	UNWIND(.fnstart)
	@ args = 0, pretend = 0, frame = 0
	@ frame_needed = 1, uses_anonymous_args = 0
	UNWIND(.movsp ip)
	mov	ip, sp
	stmfd	sp!, {r4, r5, r6, r7, r8, r9, fp, ip, lr, pc}
	UNWIND(.pad #4)
	UNWIND(.save {r4, r5, r6, r7, r8, r9, fp, ip, lr})
	UNWIND(.setfp fp, ip, #-4)
	sub	fp, ip, #4
	ldr	r4, [r0, #36]
	mov	r5, r0
	ldr	r7, [r0, #32]
	sub	r4, r4, #1
	cmp	r7, #0
	mul	r1, r4, r1
	mov	r4, r1, lsr #8
	add	r4, r4, #1
	blt	.L17
	ldr	r3, [r0, #28]
.L18:
	mov	r2, r4, asl #24
	cmp	r2, r3
	rsbls	r3, r2, r3
	ldr	r2, .L21
	ldrls	r1, [r5, #36]
	movls	r0, #1
	movhi	r0, #0
	rsbls	r4, r4, r1
	add	r2, r2, r4
	ldrb	r1, [r2, #24]	@ zero_extendqisi2
	mov	r3, r3, asl r1
	rsb	r7, r1, r7
	mov	r4, r4, asl r1
	str	r3, [r5, #28]
	str	r7, [r5, #32]
	str	r4, [r5, #36]
	ldmfd	sp, {r4, r5, r6, r7, r8, r9, fp, sp, pc}
.L17:
	rsb	r1, r7, #24
	rsb	r8, r7, #16
	bic	r1, r1, #7
	ldr	r6, [r0, #28]
	rsb	r8, r1, r8
	add	r7, r7, r1
	bl	BsGet
	and	r3, r8, #7
	orr	r3, r6, r0, asl r3
	b	.L18
.L22:
	.align	2
.L21:
	.word	.LANCHOR0
	UNWIND(.fnend)
	.size	Vp9_Cabac_Read, .-Vp9_Cabac_Read
	.align	2
	.global	Vp9_Cabac_ReadLiteral
	.type	Vp9_Cabac_ReadLiteral, %function
Vp9_Cabac_ReadLiteral:
	UNWIND(.fnstart)
	@ args = 0, pretend = 0, frame = 8
	@ frame_needed = 1, uses_anonymous_args = 0
	UNWIND(.movsp ip)
	mov	ip, sp
	stmfd	sp!, {r4, r5, r6, r7, r8, r9, r10, fp, ip, lr, pc}
	UNWIND(.pad #4)
	UNWIND(.save {r4, r5, r6, r7, r8, r9, r10, fp, ip, lr})
	UNWIND(.setfp fp, ip, #-4)
	sub	fp, ip, #4
	UNWIND(.pad #12)
	sub	sp, sp, #12
	subs	r7, r1, #1
	mov	r6, r0
	bmi	.L28
	ldr	r8, [r0, #28]
	mov	r9, #0
	ldr	r4, [r0, #36]
	mov	r3, #1
	ldr	r5, [r0, #32]
	ldr	r10, .L32
	b	.L27
.L25:
	mov	r2, r4, asl #24
	mov	r1, r3, asl r7
	cmp	r2, r0
	sub	r7, r7, #1
	rsbls	r0, r2, r0
	ldrls	ip, [r6, #36]
	movhi	r1, #0
	orr	r9, r9, r1
	rsbls	r4, r4, ip
	cmn	r7, #1
	add	r2, r10, r4
	ldrb	r2, [r2, #24]	@ zero_extendqisi2
	mov	r8, r0, asl r2
	rsb	r5, r2, r5
	mov	r4, r4, asl r2
	str	r8, [r6, #28]
	str	r5, [r6, #32]
	str	r4, [r6, #36]
	beq	.L24
.L27:
	sub	r4, r4, #1
	cmp	r5, #0
	ubfx	r4, r4, #1, #24
	mov	r0, r8
	add	r4, r4, #1
	bge	.L25
	rsb	r1, r5, #24
	rsb	r2, r5, #16
	bic	r1, r1, #7
	mov	r0, r6
	rsb	r2, r1, r2
	str	r3, [fp, #-52]
	str	r2, [fp, #-48]
	add	r5, r1, r5
	bl	BsGet
	ldr	r2, [fp, #-48]
	ldr	r3, [fp, #-52]
	and	r2, r2, #7
	orr	r0, r8, r0, asl r2
	b	.L25
.L28:
	mov	r9, #0
.L24:
	mov	r0, r9
	sub	sp, fp, #40
	ldmfd	sp, {r4, r5, r6, r7, r8, r9, r10, fp, sp, pc}
.L33:
	.align	2
.L32:
	.word	.LANCHOR0
	UNWIND(.fnend)
	.size	Vp9_Cabac_ReadLiteral, .-Vp9_Cabac_ReadLiteral
	.align	2
	.global	Vp9_Cabac_ReaderInit
	.type	Vp9_Cabac_ReaderInit, %function
Vp9_Cabac_ReaderInit:
	UNWIND(.fnstart)
	@ args = 0, pretend = 0, frame = 0
	@ frame_needed = 1, uses_anonymous_args = 0
	UNWIND(.movsp ip)
	mov	ip, sp
	stmfd	sp!, {r4, r5, fp, ip, lr, pc}
	UNWIND(.pad #4)
	UNWIND(.save {r4, r5, fp, ip, lr})
	UNWIND(.setfp fp, ip, #-4)
	sub	fp, ip, #4
	mvn	r2, #7
	mov	r3, #255
	mov	r5, #0
	str	r2, [r0, #32]
	str	r3, [r0, #36]
	mov	r1, #32
	str	r5, [r0, #28]
	mov	r4, r0
	bl	BsGet
	mov	r2, r0
	ldr	r0, [r4, #36]
	sub	r3, r0, #1
	ubfx	r3, r3, #1, #24
	add	r3, r3, #1
	mov	r1, r3, asl #24
	cmp	r2, r1
	rsbcs	r2, r1, r2
	ldr	r1, .L37
	rsbcs	r3, r3, r0
	movcc	r0, r5
	add	r1, r1, r3
	movcs	r0, #1
	ldrb	r1, [r1, #24]	@ zero_extendqisi2
	mov	r2, r2, asl r1
	mov	r3, r3, asl r1
	str	r2, [r4, #28]
	rsb	r1, r1, #24
	str	r3, [r4, #36]
	str	r1, [r4, #32]
	ldmfd	sp, {r4, r5, fp, sp, pc}
.L38:
	.align	2
.L37:
	.word	.LANCHOR0
	UNWIND(.fnend)
	.size	Vp9_Cabac_ReaderInit, .-Vp9_Cabac_ReaderInit
	.align	2
	.global	Vp9_ReadTxMode
	.type	Vp9_ReadTxMode, %function
Vp9_ReadTxMode:
	UNWIND(.fnstart)
	@ args = 0, pretend = 0, frame = 8
	@ frame_needed = 1, uses_anonymous_args = 0
	UNWIND(.movsp ip)
	mov	ip, sp
	stmfd	sp!, {r4, r5, r6, r7, r8, r9, r10, fp, ip, lr, pc}
	UNWIND(.pad #4)
	UNWIND(.save {r4, r5, r6, r7, r8, r9, r10, fp, ip, lr})
	UNWIND(.setfp fp, ip, #-4)
	sub	fp, ip, #4
	UNWIND(.pad #12)
	sub	sp, sp, #12
	mov	r7, #1
	mov	r6, r0
	ldr	r10, .L53
	ldr	r4, [r0, #36]
	mov	r3, r7
	ldr	r5, [r0, #32]
	mov	r9, #0
	ldr	r8, [r0, #28]
	b	.L42
.L40:
	mov	r2, r4, asl #24
	mov	r1, r3, asl r7
	cmp	r2, r0
	sub	r7, r7, #1
	rsbls	r0, r2, r0
	ldrls	ip, [r6, #36]
	movhi	r1, #0
	orr	r9, r9, r1
	rsbls	r4, r4, ip
	cmn	r7, #1
	add	r2, r10, r4
	ldrb	r2, [r2, #24]	@ zero_extendqisi2
	mov	r8, r0, asl r2
	rsb	r5, r2, r5
	mov	r4, r4, asl r2
	str	r8, [r6, #28]
	str	r5, [r6, #32]
	str	r4, [r6, #36]
	beq	.L50
.L42:
	sub	r4, r4, #1
	cmp	r5, #0
	ubfx	r4, r4, #1, #24
	mov	r0, r8
	add	r4, r4, #1
	bge	.L40
	rsb	r1, r5, #24
	rsb	r2, r5, #16
	bic	r1, r1, #7
	mov	r0, r6
	rsb	r2, r1, r2
	str	r3, [fp, #-52]
	str	r2, [fp, #-48]
	add	r5, r1, r5
	bl	BsGet
	ldr	r2, [fp, #-48]
	ldr	r3, [fp, #-52]
	and	r2, r2, #7
	orr	r0, r8, r0, asl r2
	b	.L40
.L50:
	cmp	r9, #3
	beq	.L51
	mov	r0, r9
	sub	sp, fp, #40
	ldmfd	sp, {r4, r5, r6, r7, r8, r9, r10, fp, sp, pc}
.L51:
	sub	r4, r4, #1
	cmp	r5, #0
	ubfx	r4, r4, #1, #24
	add	r4, r4, #1
	movge	r0, r8
	blt	.L52
.L44:
	mov	r3, r4, asl #24
	cmp	r3, r0
	rsbls	r0, r3, r0
	ldrls	r2, [r6, #36]
	movls	r9, #4
	rsbls	r4, r4, r2
	add	r10, r10, r4
	ldrb	r3, [r10, #24]	@ zero_extendqisi2
	mov	r8, r0, asl r3
	rsb	r5, r3, r5
	mov	r4, r4, asl r3
	mov	r0, r9
	str	r8, [r6, #28]
	str	r5, [r6, #32]
	str	r4, [r6, #36]
	sub	sp, fp, #40
	ldmfd	sp, {r4, r5, r6, r7, r8, r9, r10, fp, sp, pc}
.L52:
	rsb	r1, r5, #24
	rsb	r7, r5, #16
	bic	r1, r1, #7
	mov	r0, r6
	rsb	r7, r1, r7
	add	r5, r1, r5
	bl	BsGet
	and	r7, r7, #7
	orr	r0, r8, r0, asl r7
	b	.L44
.L54:
	.align	2
.L53:
	.word	.LANCHOR0
	UNWIND(.fnend)
	.size	Vp9_ReadTxMode, .-Vp9_ReadTxMode
	.align	2
	.global	Vp9_ReaderHasError
	.type	Vp9_ReaderHasError, %function
Vp9_ReaderHasError:
	UNWIND(.fnstart)
	@ args = 0, pretend = 0, frame = 0
	@ frame_needed = 1, uses_anonymous_args = 0
	UNWIND(.movsp ip)
	mov	ip, sp
	stmfd	sp!, {fp, ip, lr, pc}
	UNWIND(.pad #4)
	UNWIND(.save {fp, ip, lr})
	UNWIND(.setfp fp, ip, #-4)
	sub	fp, ip, #4
	ldr	r0, [r0, #32]
	sub	r0, r0, #33
	cmn	r0, #-1073741790
	movhi	r0, #0
	movls	r0, #1
	ldmfd	sp, {fp, sp, pc}
	UNWIND(.fnend)
	.size	Vp9_ReaderHasError, .-Vp9_ReaderHasError
	.align	2
	.global	Vp9_DiffUpdateProb
	.type	Vp9_DiffUpdateProb, %function
Vp9_DiffUpdateProb:
	UNWIND(.fnstart)
	@ args = 0, pretend = 0, frame = 16
	@ frame_needed = 1, uses_anonymous_args = 0
	UNWIND(.movsp ip)
	mov	ip, sp
	stmfd	sp!, {r4, r5, r6, r7, r8, r9, r10, fp, ip, lr, pc}
	UNWIND(.pad #4)
	UNWIND(.save {r4, r5, r6, r7, r8, r9, r10, fp, ip, lr})
	UNWIND(.setfp fp, ip, #-4)
	sub	fp, ip, #4
	UNWIND(.pad #20)
	sub	sp, sp, #20
	ldr	r4, [r0, #36]
	ldr	r5, [r0, #32]
	mov	r6, r0
	sub	r4, r4, #1
	mov	r9, r1
	cmp	r5, #0
	ubfx	r4, r4, #1, #24
	add	r4, r4, #1
	blt	.L57
	ldr	r8, [r0, #28]
.L58:
	mov	r3, r4, asl #24
	cmp	r3, r8
	bhi	.L59
	ldr	r2, [r6, #36]
	rsb	r8, r3, r8
	ldr	r3, .L112
	rsb	r4, r4, r2
	add	r2, r3, r4
	ldrb	r1, [r2, #24]	@ zero_extendqisi2
	mov	r2, r4, asl r1
	rsb	r4, r1, r5
	cmp	r4, #0
	sub	r5, r2, #1
	ubfx	r5, r5, #1, #24
	mov	r8, r8, asl r1
	str	r2, [r6, #36]
	add	r5, r5, #1
	str	r4, [r6, #32]
	str	r8, [r6, #28]
	blt	.L106
.L61:
	mov	r1, r5, asl #24
	cmp	r1, r8
	bhi	.L66
	ldr	r2, [r6, #36]
	rsb	r8, r1, r8
	rsb	r5, r5, r2
	add	r2, r3, r5
	ldrb	ip, [r2, #24]	@ zero_extendqisi2
	mov	r2, r5, asl ip
	rsb	r5, ip, r4
	sub	r1, r2, #1
	cmp	r5, #0
	ubfx	r1, r1, #1, #24
	mov	r8, r8, asl ip
	str	r2, [r6, #36]
	add	r4, r1, #1
	str	r5, [r6, #32]
	str	r8, [r6, #28]
	blt	.L107
.L68:
	mov	r1, r4, asl #24
	cmp	r1, r8
	bhi	.L72
	ldr	r2, [r6, #36]
	rsb	r8, r1, r8
	mov	r7, #0
	mov	r10, #6
	rsb	r1, r4, r2
	mov	r2, #1
	add	r0, r3, r1
	ldrb	r4, [r0, #24]	@ zero_extendqisi2
	mov	r8, r8, asl r4
	rsb	r5, r4, r5
	str	r8, [r6, #28]
	mov	r4, r1, asl r4
	str	r5, [r6, #32]
	str	r4, [r6, #36]
	b	.L73
.L77:
	mov	r1, r4, asl #24
	mov	ip, r2, asl r10
	cmp	r1, r0
	sub	r10, r10, #1
	rsbls	r0, r1, r0
	ldrls	lr, [r6, #36]
	movhi	ip, #0
	orr	r7, r7, ip
	rsbls	r4, r4, lr
	cmn	r10, #1
	add	r1, r3, r4
	ldrb	r1, [r1, #24]	@ zero_extendqisi2
	mov	r8, r0, asl r1
	rsb	r5, r1, r5
	mov	r4, r4, asl r1
	str	r8, [r6, #28]
	str	r5, [r6, #32]
	str	r4, [r6, #36]
	beq	.L108
.L73:
	sub	r4, r4, #1
	cmp	r5, #0
	ubfx	r4, r4, #1, #24
	mov	r0, r8
	add	r4, r4, #1
	bge	.L77
	rsb	r1, r5, #24
	rsb	ip, r5, #16
	bic	r1, r1, #7
	mov	r0, r6
	rsb	ip, r1, ip
	str	r2, [fp, #-56]
	str	r3, [fp, #-52]
	add	r5, r1, r5
	str	ip, [fp, #-48]
	bl	BsGet
	ldr	ip, [fp, #-48]
	ldr	r3, [fp, #-52]
	and	ip, ip, #7
	ldr	r2, [fp, #-56]
	orr	r0, r8, r0, asl ip
	b	.L77
.L66:
	add	r1, r3, r5
	mov	r7, #0
	mov	r10, #3
	mov	r2, #1
	ldrb	r1, [r1, #24]	@ zero_extendqisi2
	mov	r8, r8, asl r1
	rsb	r4, r1, r4
	mov	r5, r5, asl r1
	str	r8, [r6, #28]
	str	r4, [r6, #32]
	str	r5, [r6, #36]
	b	.L71
.L69:
	mov	r1, r5, asl #24
	mov	ip, r2, asl r10
	cmp	r1, r0
	sub	r10, r10, #1
	rsbls	r0, r1, r0
	ldrls	lr, [r6, #36]
	movhi	ip, #0
	orr	r7, r7, ip
	rsbls	r5, r5, lr
	cmn	r10, #1
	add	r1, r3, r5
	ldrb	r1, [r1, #24]	@ zero_extendqisi2
	mov	r8, r0, asl r1
	rsb	r4, r1, r4
	mov	r5, r5, asl r1
	str	r8, [r6, #28]
	str	r4, [r6, #32]
	str	r5, [r6, #36]
	beq	.L109
.L71:
	sub	r5, r5, #1
	cmp	r4, #0
	ubfx	r5, r5, #1, #24
	mov	r0, r8
	add	r5, r5, #1
	bge	.L69
	rsb	r1, r4, #24
	rsb	ip, r4, #16
	bic	r1, r1, #7
	mov	r0, r6
	rsb	ip, r1, ip
	str	r2, [fp, #-56]
	str	r3, [fp, #-52]
	add	r4, r1, r4
	str	ip, [fp, #-48]
	bl	BsGet
	ldr	ip, [fp, #-48]
	ldr	r3, [fp, #-52]
	and	ip, ip, #7
	ldr	r2, [fp, #-56]
	orr	r0, r8, r0, asl ip
	b	.L69
.L59:
	ldr	r3, .L112
	mov	r7, #0
	mov	r10, #3
	mov	r2, #1
	add	r1, r3, r4
	ldrb	r1, [r1, #24]	@ zero_extendqisi2
	mov	r8, r8, asl r1
	rsb	r5, r1, r5
	mov	r4, r4, asl r1
	str	r8, [r6, #28]
	str	r5, [r6, #32]
	str	r4, [r6, #36]
	b	.L64
.L62:
	mov	r1, r4, asl #24
	mov	ip, r2, asl r10
	cmp	r1, r0
	sub	r10, r10, #1
	rsbls	r0, r1, r0
	ldrls	lr, [r6, #36]
	movhi	ip, #0
	orr	r7, r7, ip
	rsbls	r4, r4, lr
	cmn	r10, #1
	add	r1, r3, r4
	ldrb	r1, [r1, #24]	@ zero_extendqisi2
	mov	r8, r0, asl r1
	rsb	r5, r1, r5
	mov	r4, r4, asl r1
	str	r8, [r6, #28]
	str	r5, [r6, #32]
	str	r4, [r6, #36]
	beq	.L65
.L64:
	sub	r4, r4, #1
	cmp	r5, #0
	ubfx	r4, r4, #1, #24
	mov	r0, r8
	add	r4, r4, #1
	bge	.L62
	rsb	r1, r5, #24
	rsb	ip, r5, #16
	bic	r1, r1, #7
	mov	r0, r6
	rsb	ip, r1, ip
	str	r2, [fp, #-56]
	str	r3, [fp, #-52]
	add	r5, r1, r5
	str	ip, [fp, #-48]
	bl	BsGet
	ldr	ip, [fp, #-48]
	ldr	r3, [fp, #-52]
	and	ip, ip, #7
	ldr	r2, [fp, #-56]
	orr	r0, r8, r0, asl ip
	b	.L62
.L108:
	cmp	r7, #64
	ble	.L79
	sub	r4, r4, #1
	cmp	r5, #0
	ubfx	r4, r4, #1, #24
	mov	r7, r7, asl #1
	add	r4, r4, #1
	sub	r7, r7, #65
	movge	r0, r8
	blt	.L110
.L80:
	mov	r2, r4, asl #24
	cmp	r2, r0
	rsbls	r0, r2, r0
	ldrls	ip, [r6, #36]
	movls	r1, #1
	movhi	r1, #0
	add	r7, r7, r1
	rsbls	r4, r4, ip
	add	r2, r3, r4
	ldrb	r2, [r2, #24]	@ zero_extendqisi2
	mov	r8, r0, asl r2
	rsb	r5, r2, r5
	mov	r4, r4, asl r2
	str	r8, [r6, #28]
	str	r5, [r6, #32]
	str	r4, [r6, #36]
.L79:
	add	r7, r7, #64
.L65:
	ldrb	r2, [r9]	@ zero_extendqisi2
	add	r3, r3, r7
	sub	ip, r2, #1
	ldrb	r1, [r3, #280]	@ zero_extendqisi2
	mov	r0, ip, asl #1
	cmp	r0, #255
	bgt	.L82
	add	r3, r1, #1
	cmp	r3, r0
	bgt	.L83
	tst	r3, #1
	addne	r3, r1, #2
	addeq	r3, r3, r3, lsr #31
	subne	r3, ip, r3, asr #1
	addeq	r3, ip, r3, asr #1
.L83:
	add	r3, r3, #1
	strb	r3, [r9]
	sub	sp, fp, #40
	ldmfd	sp, {r4, r5, r6, r7, r8, r9, r10, fp, sp, pc}
.L82:
	rsb	r2, r2, #255
	add	r3, r1, #1
	cmp	r3, r2, asl #1
	bgt	.L86
	tst	r3, #1
	addne	r3, r1, #2
	addeq	r3, r3, r3, lsr #31
	subne	r3, r2, r3, asr #1
	addeq	r3, r2, r3, asr #1
.L86:
	rsb	r3, r3, #255
	strb	r3, [r9]
	sub	sp, fp, #40
	ldmfd	sp, {r4, r5, r6, r7, r8, r9, r10, fp, sp, pc}
.L109:
	add	r7, r7, #16
	b	.L65
.L72:
	add	r1, r3, r4
	mov	r7, #0
	mov	r10, #4
	mov	r2, #1
	ldrb	r1, [r1, #24]	@ zero_extendqisi2
	mov	r8, r8, asl r1
	rsb	r5, r1, r5
	str	r8, [r6, #28]
	mov	r1, r4, asl r1
	str	r5, [r6, #32]
	str	r1, [r6, #36]
	b	.L76
.L74:
	mov	r1, r4, asl #24
	mov	ip, r2, asl r10
	cmp	r1, r0
	sub	r10, r10, #1
	rsbls	r0, r1, r0
	ldrls	lr, [r6, #36]
	movhi	ip, #0
	orr	r7, r7, ip
	rsbls	r4, r4, lr
	cmn	r10, #1
	add	r1, r3, r4
	ldrb	r1, [r1, #24]	@ zero_extendqisi2
	mov	r8, r0, asl r1
	rsb	r5, r1, r5
	str	r8, [r6, #28]
	mov	r1, r4, asl r1
	str	r5, [r6, #32]
	str	r1, [r6, #36]
	beq	.L111
.L76:
	sub	r1, r1, #1
	cmp	r5, #0
	ubfx	r1, r1, #1, #24
	mov	r0, r8
	add	r4, r1, #1
	bge	.L74
	rsb	r1, r5, #24
	rsb	ip, r5, #16
	bic	r1, r1, #7
	mov	r0, r6
	rsb	ip, r1, ip
	str	r2, [fp, #-56]
	str	r3, [fp, #-52]
	add	r5, r1, r5
	str	ip, [fp, #-48]
	bl	BsGet
	ldr	ip, [fp, #-48]
	ldr	r3, [fp, #-52]
	and	ip, ip, #7
	ldr	r2, [fp, #-56]
	orr	r0, r8, r0, asl ip
	b	.L74
.L111:
	add	r7, r7, #32
	b	.L65
.L57:
	rsb	r10, r5, #24
	ldr	r7, [r0, #28]
	bic	r10, r10, #7
	rsb	r8, r5, #16
	rsb	r8, r10, r8
	add	r5, r5, r10
	mov	r1, r10
	and	r8, r8, #7
	bl	BsGet
	str	r5, [r6, #32]
	orr	r0, r7, r0, asl r8
	str	r0, [r6, #28]
	mov	r8, r0
	b	.L58
.L106:
	rsb	r10, r4, #24
	mov	r0, r6
	bic	r10, r10, #7
	str	r3, [fp, #-48]
	rsb	r7, r4, #16
	add	r4, r4, r10
	mov	r1, r10
	rsb	r7, r10, r7
	bl	BsGet
	and	r7, r7, #7
	str	r4, [r6, #32]
	ldr	r3, [fp, #-48]
	orr	r0, r8, r0, asl r7
	str	r0, [r6, #28]
	mov	r8, r0
	b	.L61
.L107:
	rsb	r10, r5, #24
	mov	r0, r6
	bic	r10, r10, #7
	str	r3, [fp, #-48]
	rsb	r7, r5, #16
	add	r5, r5, r10
	mov	r1, r10
	rsb	r7, r10, r7
	bl	BsGet
	and	r7, r7, #7
	str	r5, [r6, #32]
	ldr	r3, [fp, #-48]
	orr	r0, r8, r0, asl r7
	str	r0, [r6, #28]
	mov	r8, r0
	b	.L68
.L110:
	rsb	r1, r5, #24
	rsb	r10, r5, #16
	bic	r1, r1, #7
	mov	r0, r6
	str	r3, [fp, #-48]
	rsb	r10, r1, r10
	add	r5, r1, r5
	bl	BsGet
	and	r10, r10, #7
	ldr	r3, [fp, #-48]
	orr	r0, r8, r0, asl r10
	b	.L80
.L113:
	.align	2
.L112:
	.word	.LANCHOR0
	UNWIND(.fnend)
	.size	Vp9_DiffUpdateProb, .-Vp9_DiffUpdateProb
	.align	2
	.global	Vp9_ReadTxProbs
	.type	Vp9_ReadTxProbs, %function
Vp9_ReadTxProbs:
	UNWIND(.fnstart)
	@ args = 0, pretend = 0, frame = 24
	@ frame_needed = 1, uses_anonymous_args = 0
	UNWIND(.movsp ip)
	mov	ip, sp
	stmfd	sp!, {r4, r5, r6, r7, r8, r9, r10, fp, ip, lr, pc}
	UNWIND(.pad #4)
	UNWIND(.save {r4, r5, r6, r7, r8, r9, r10, fp, ip, lr})
	UNWIND(.setfp fp, ip, #-4)
	sub	fp, ip, #4
	UNWIND(.pad #28)
	sub	sp, sp, #28
	ldr	r7, .L400
	ldr	r4, [r1, #28]
	add	r8, r0, #10
	ldr	r3, [r1, #36]
	mov	r6, r1
	ldr	r5, [r1, #32]
	add	r2, r0, #12
	str	r0, [fp, #-52]
	str	r2, [fp, #-48]
.L145:
	sub	r10, r3, #1
	cmp	r5, #0
	mov	r3, r10, asl #8
	sub	r10, r3, r10, asl #2
	mov	r10, r10, lsr #8
	add	r10, r10, #1
	blt	.L354
.L115:
	mov	r9, r10, asl #24
	cmp	r9, r4
	bhi	.L116
	ldr	r3, [r6, #36]
	rsb	r9, r9, r4
	rsb	r10, r10, r3
	add	r3, r7, r10
	ldrb	r3, [r3, #24]	@ zero_extendqisi2
	mov	r10, r10, asl r3
	rsb	r5, r3, r5
	sub	r4, r10, #1
	cmp	r5, #0
	ubfx	r4, r4, #1, #24
	mov	r9, r9, asl r3
	str	r10, [r6, #36]
	add	r4, r4, #1
	str	r5, [r6, #32]
	str	r9, [r6, #28]
	blt	.L355
.L117:
	mov	r3, r4, asl #24
	cmp	r3, r9
	bhi	.L118
	ldr	r2, [r6, #36]
	rsb	r9, r3, r9
	rsb	r4, r4, r2
	add	r3, r7, r4
	ldrb	r0, [r3, #24]	@ zero_extendqisi2
	mov	r2, r4, asl r0
	rsb	r4, r0, r5
	cmp	r4, #0
	sub	r5, r2, #1
	ubfx	r5, r5, #1, #24
	mov	r9, r9, asl r0
	str	r2, [r6, #36]
	add	r5, r5, #1
	str	r4, [r6, #32]
	str	r9, [r6, #28]
	blt	.L356
.L120:
	mov	r3, r5, asl #24
	cmp	r3, r9
	bhi	.L125
	ldr	r1, [r6, #36]
	rsb	r3, r3, r9
	rsb	r5, r5, r1
	add	r2, r7, r5
	ldrb	r2, [r2, #24]	@ zero_extendqisi2
	mov	r1, r5, asl r2
	rsb	r5, r2, r4
	sub	r9, r1, #1
	cmp	r5, #0
	ubfx	r9, r9, #1, #24
	mov	r4, r3, asl r2
	str	r1, [r6, #36]
	add	r9, r9, #1
	str	r5, [r6, #32]
	str	r4, [r6, #28]
	blt	.L357
.L127:
	mov	r3, r9, asl #24
	cmp	r3, r4
	bhi	.L131
	ldr	r1, [r6, #36]
	rsb	r0, r3, r4
	mov	r2, #6
	mov	r3, #0
	rsb	r4, r9, r1
	str	r8, [fp, #-64]
	add	r1, r7, r4
	mov	ip, #1
	mov	r8, r3
	ldrb	r1, [r1, #24]	@ zero_extendqisi2
	rsb	r10, r1, r5
	mov	r9, r0, asl r1
	mov	r4, r4, asl r1
	str	r9, [r6, #28]
	str	r10, [r6, #32]
	mov	r5, r2
	str	r4, [r6, #36]
	b	.L132
.L136:
	mov	r2, r4, asl #24
	mov	r1, ip, asl r5
	cmp	r2, r0
	sub	r5, r5, #1
	rsbls	r0, r2, r0
	ldrls	lr, [r6, #36]
	movhi	r1, #0
	orr	r8, r8, r1
	rsbls	r4, r4, lr
	cmn	r5, #1
	add	r2, r7, r4
	ldrb	r2, [r2, #24]	@ zero_extendqisi2
	mov	r9, r0, asl r2
	rsb	r10, r2, r10
	mov	r4, r4, asl r2
	str	r9, [r6, #28]
	str	r10, [r6, #32]
	str	r4, [r6, #36]
	beq	.L358
.L132:
	sub	r4, r4, #1
	cmp	r10, #0
	ubfx	r4, r4, #1, #24
	mov	r0, r9
	add	r4, r4, #1
	bge	.L136
	rsb	r1, r10, #24
	rsb	r2, r10, #16
	bic	r1, r1, #7
	mov	r0, r6
	rsb	r2, r1, r2
	str	ip, [fp, #-60]
	str	r2, [fp, #-56]
	add	r10, r1, r10
	bl	BsGet
	ldr	r2, [fp, #-56]
	ldr	ip, [fp, #-60]
	and	r2, r2, #7
	orr	r0, r9, r0, asl r2
	b	.L136
.L116:
	add	r3, r7, r10
	ldrb	r3, [r3, #24]	@ zero_extendqisi2
	mov	r4, r4, asl r3
	rsb	r5, r3, r5
	str	r4, [r6, #28]
	mov	r3, r10, asl r3
	str	r5, [r6, #32]
	str	r3, [r6, #36]
.L271:
	ldr	r2, [fp, #-48]
	add	r8, r8, #1
	cmp	r8, r2
	bne	.L145
	ldr	r2, [fp, #-52]
	add	r1, r2, #4
	str	r1, [fp, #-48]
	mov	r8, r2
	str	r2, [fp, #-56]
.L206:
	sub	r10, r3, #1
	cmp	r5, #0
	mov	r3, r10, asl #8
	sub	r10, r3, r10, asl #2
	mov	r10, r10, lsr #8
	add	r10, r10, #1
	blt	.L359
.L146:
	mov	r9, r10, asl #24
	cmp	r9, r4
	bhi	.L147
	ldr	r3, [r6, #36]
	rsb	r9, r9, r4
	rsb	r10, r10, r3
	add	r3, r7, r10
	ldrb	r3, [r3, #24]	@ zero_extendqisi2
	rsb	r4, r3, r5
	mov	r10, r10, asl r3
	sub	r5, r10, #1
	cmp	r4, #0
	ubfx	r5, r5, #1, #24
	mov	r9, r9, asl r3
	str	r10, [r6, #36]
	add	r5, r5, #1
	str	r4, [r6, #32]
	str	r9, [r6, #28]
	blt	.L360
.L148:
	mov	r3, r5, asl #24
	cmp	r3, r9
	bhi	.L149
	ldr	r2, [r6, #36]
	rsb	r9, r3, r9
	rsb	r5, r5, r2
	add	r3, r7, r5
	ldrb	r0, [r3, #24]	@ zero_extendqisi2
	mov	r2, r5, asl r0
	rsb	r4, r0, r4
	sub	r5, r2, #1
	cmp	r4, #0
	ubfx	r5, r5, #1, #24
	mov	r9, r9, asl r0
	str	r2, [r6, #36]
	add	r5, r5, #1
	str	r4, [r6, #32]
	str	r9, [r6, #28]
	blt	.L361
.L151:
	mov	r3, r5, asl #24
	cmp	r3, r9
	bhi	.L156
	ldr	r1, [r6, #36]
	rsb	r3, r3, r9
	rsb	r5, r5, r1
	add	r2, r7, r5
	ldrb	r2, [r2, #24]	@ zero_extendqisi2
	rsb	r9, r2, r4
	mov	r1, r5, asl r2
	sub	r5, r1, #1
	cmp	r9, #0
	ubfx	r5, r5, #1, #24
	mov	r4, r3, asl r2
	str	r1, [r6, #36]
	add	r5, r5, #1
	str	r9, [r6, #32]
	str	r4, [r6, #28]
	blt	.L362
.L158:
	mov	r2, r5, asl #24
	cmp	r2, r4
	bhi	.L162
	ldr	r1, [r6, #36]
	rsb	r2, r2, r4
	mov	r10, #0
	mov	r3, #6
	rsb	r5, r5, r1
	str	r8, [fp, #-68]
	add	r1, r7, r5
	mov	r8, r10
	mov	ip, #1
	ldrb	r4, [r1, #24]	@ zero_extendqisi2
	mov	r2, r2, asl r4
	rsb	r9, r4, r9
	str	r2, [r6, #28]
	mov	r4, r5, asl r4
	str	r9, [r6, #32]
	mov	r5, r3
	str	r4, [r6, #36]
	mov	r10, r2
	b	.L163
.L167:
	mov	r2, r4, asl #24
	mov	r1, ip, asl r5
	cmp	r2, r0
	sub	r5, r5, #1
	rsbls	r0, r2, r0
	ldrls	lr, [r6, #36]
	movhi	r1, #0
	orr	r8, r8, r1
	rsbls	r4, r4, lr
	cmn	r5, #1
	add	r2, r7, r4
	ldrb	r2, [r2, #24]	@ zero_extendqisi2
	mov	r10, r0, asl r2
	rsb	r9, r2, r9
	mov	r4, r4, asl r2
	str	r10, [r6, #28]
	str	r9, [r6, #32]
	str	r4, [r6, #36]
	beq	.L363
.L163:
	sub	r4, r4, #1
	cmp	r9, #0
	ubfx	r4, r4, #1, #24
	mov	r0, r10
	add	r4, r4, #1
	bge	.L167
	rsb	r1, r9, #24
	rsb	r2, r9, #16
	bic	r1, r1, #7
	mov	r0, r6
	rsb	r2, r1, r2
	str	ip, [fp, #-64]
	str	r2, [fp, #-60]
	add	r9, r1, r9
	bl	BsGet
	ldr	r2, [fp, #-60]
	ldr	ip, [fp, #-64]
	and	r2, r2, #7
	orr	r0, r10, r0, asl r2
	b	.L167
.L147:
	add	r3, r7, r10
	ldrb	r3, [r3, #24]	@ zero_extendqisi2
	mov	r4, r4, asl r3
	rsb	r5, r3, r5
	mov	r10, r10, asl r3
	str	r4, [r6, #28]
	str	r5, [r6, #32]
	str	r10, [r6, #36]
.L272:
	sub	r10, r10, #1
	cmp	r5, #0
	mov	r3, r10, asl #8
	sub	r10, r3, r10, asl #2
	mov	r10, r10, lsr #8
	add	r10, r10, #1
	blt	.L364
.L176:
	mov	r9, r10, asl #24
	cmp	r9, r4
	bhi	.L177
	ldr	r3, [r6, #36]
	rsb	r9, r9, r4
	rsb	r10, r10, r3
	add	r3, r7, r10
	ldrb	r3, [r3, #24]	@ zero_extendqisi2
	rsb	r4, r3, r5
	mov	r10, r10, asl r3
	sub	r5, r10, #1
	cmp	r4, #0
	ubfx	r5, r5, #1, #24
	mov	r9, r9, asl r3
	str	r10, [r6, #36]
	add	r5, r5, #1
	str	r4, [r6, #32]
	str	r9, [r6, #28]
	blt	.L365
.L178:
	mov	r3, r5, asl #24
	cmp	r3, r9
	bhi	.L179
	ldr	r2, [r6, #36]
	rsb	r9, r3, r9
	rsb	r5, r5, r2
	add	r3, r7, r5
	ldrb	r0, [r3, #24]	@ zero_extendqisi2
	mov	r2, r5, asl r0
	rsb	r4, r0, r4
	sub	r5, r2, #1
	cmp	r4, #0
	ubfx	r5, r5, #1, #24
	mov	r9, r9, asl r0
	str	r2, [r6, #36]
	add	r5, r5, #1
	str	r4, [r6, #32]
	str	r9, [r6, #28]
	blt	.L366
.L181:
	mov	r3, r5, asl #24
	cmp	r3, r9
	bhi	.L186
	ldr	r1, [r6, #36]
	rsb	r3, r3, r9
	rsb	r5, r5, r1
	add	r2, r7, r5
	ldrb	r2, [r2, #24]	@ zero_extendqisi2
	rsb	r9, r2, r4
	mov	r1, r5, asl r2
	sub	r5, r1, #1
	cmp	r9, #0
	ubfx	r5, r5, #1, #24
	mov	r4, r3, asl r2
	str	r1, [r6, #36]
	add	r5, r5, #1
	str	r9, [r6, #32]
	str	r4, [r6, #28]
	blt	.L367
.L188:
	mov	r2, r5, asl #24
	cmp	r2, r4
	bhi	.L192
	ldr	r1, [r6, #36]
	rsb	r2, r2, r4
	mov	r10, #0
	mov	r3, #6
	rsb	r5, r5, r1
	str	r8, [fp, #-68]
	add	r1, r7, r5
	mov	r8, r10
	mov	ip, #1
	ldrb	r4, [r1, #24]	@ zero_extendqisi2
	mov	r2, r2, asl r4
	rsb	r9, r4, r9
	str	r2, [r6, #28]
	mov	r4, r5, asl r4
	str	r9, [r6, #32]
	mov	r5, r3
	str	r4, [r6, #36]
	mov	r10, r2
	b	.L193
.L197:
	mov	r2, r4, asl #24
	mov	r1, ip, asl r5
	cmp	r2, r0
	sub	r5, r5, #1
	rsbls	r0, r2, r0
	ldrls	lr, [r6, #36]
	movhi	r1, #0
	orr	r8, r8, r1
	rsbls	r4, r4, lr
	cmn	r5, #1
	add	r2, r7, r4
	ldrb	r2, [r2, #24]	@ zero_extendqisi2
	mov	r10, r0, asl r2
	rsb	r9, r2, r9
	mov	r4, r4, asl r2
	str	r10, [r6, #28]
	str	r9, [r6, #32]
	str	r4, [r6, #36]
	beq	.L368
.L193:
	sub	r4, r4, #1
	cmp	r9, #0
	ubfx	r4, r4, #1, #24
	mov	r0, r10
	add	r4, r4, #1
	bge	.L197
	rsb	r1, r9, #24
	rsb	r2, r9, #16
	bic	r1, r1, #7
	mov	r0, r6
	rsb	r2, r1, r2
	str	ip, [fp, #-64]
	str	r2, [fp, #-60]
	add	r9, r1, r9
	bl	BsGet
	ldr	r2, [fp, #-60]
	ldr	ip, [fp, #-64]
	and	r2, r2, #7
	orr	r0, r10, r0, asl r2
	b	.L197
.L177:
	add	r3, r7, r10
	ldrb	r3, [r3, #24]	@ zero_extendqisi2
	mov	r4, r4, asl r3
	rsb	r5, r3, r5
	str	r4, [r6, #28]
	mov	r3, r10, asl r3
	str	r5, [r6, #32]
	str	r3, [r6, #36]
.L273:
	ldr	r2, [fp, #-48]
	add	r8, r8, #2
	cmp	r8, r2
	bne	.L206
	ldr	r2, [fp, #-52]
	mov	r10, r3
	add	r8, r2, #6
	str	r8, [fp, #-48]
	ldr	r8, [fp, #-56]
.L270:
	sub	r10, r10, #1
	cmp	r5, #0
	mov	r2, r10, asl #8
	sub	r10, r2, r10, asl #2
	mov	r10, r10, lsr #8
	add	r10, r10, #1
	blt	.L369
.L207:
	mov	r9, r10, asl #24
	cmp	r9, r4
	bhi	.L208
	ldr	r3, [r6, #36]
	rsb	r9, r9, r4
	mov	r1, r8
	mov	r0, r6
	rsb	r10, r10, r3
	add	r3, r7, r10
	ldrb	r3, [r3, #24]	@ zero_extendqisi2
	mov	r9, r9, asl r3
	rsb	r4, r3, r5
	mov	r10, r10, asl r3
	str	r9, [r6, #28]
	str	r4, [r6, #32]
	str	r10, [r6, #36]
	bl	Vp9_DiffUpdateProb
	ldr	r9, [r6, #28]
	ldr	r10, [r6, #36]
	ldr	r4, [r6, #32]
.L274:
	sub	r10, r10, #1
	cmp	r4, #0
	mov	r3, r10, asl #8
	sub	r10, r3, r10, asl #2
	mov	r10, r10, lsr #8
	add	r10, r10, #1
	blt	.L370
.L209:
	mov	r5, r10, asl #24
	cmp	r5, r9
	bhi	.L210
	ldr	r3, [r6, #36]
	rsb	r9, r5, r9
	rsb	r10, r10, r3
	add	r3, r7, r10
	ldrb	r3, [r3, #24]	@ zero_extendqisi2
	mov	r10, r10, asl r3
	rsb	r4, r3, r4
	sub	r5, r10, #1
	cmp	r4, #0
	ubfx	r5, r5, #1, #24
	mov	r9, r9, asl r3
	str	r10, [r6, #36]
	add	r5, r5, #1
	str	r4, [r6, #32]
	str	r9, [r6, #28]
	blt	.L371
.L211:
	mov	r3, r5, asl #24
	cmp	r3, r9
	bhi	.L212
	ldr	r2, [r6, #36]
	rsb	r9, r3, r9
	rsb	r5, r5, r2
	add	r3, r7, r5
	ldrb	r0, [r3, #24]	@ zero_extendqisi2
	mov	r2, r5, asl r0
	rsb	r4, r0, r4
	sub	r5, r2, #1
	cmp	r4, #0
	ubfx	r5, r5, #1, #24
	mov	r9, r9, asl r0
	str	r2, [r6, #36]
	add	r5, r5, #1
	str	r4, [r6, #32]
	str	r9, [r6, #28]
	blt	.L372
.L214:
	mov	r3, r5, asl #24
	cmp	r3, r9
	bhi	.L219
	ldr	r1, [r6, #36]
	rsb	r3, r3, r9
	rsb	r5, r5, r1
	add	r2, r7, r5
	ldrb	r2, [r2, #24]	@ zero_extendqisi2
	rsb	r9, r2, r4
	mov	r1, r5, asl r2
	sub	r5, r1, #1
	cmp	r9, #0
	ubfx	r5, r5, #1, #24
	mov	r4, r3, asl r2
	str	r1, [r6, #36]
	add	r5, r5, #1
	str	r9, [r6, #32]
	str	r4, [r6, #28]
	blt	.L373
.L221:
	mov	r2, r5, asl #24
	cmp	r2, r4
	bhi	.L225
	ldr	r1, [r6, #36]
	rsb	r2, r2, r4
	mov	r10, #0
	mov	r3, #6
	rsb	r5, r5, r1
	str	r8, [fp, #-60]
	add	r1, r7, r5
	mov	r8, r10
	mov	ip, #1
	ldrb	r4, [r1, #24]	@ zero_extendqisi2
	mov	r2, r2, asl r4
	rsb	r9, r4, r9
	str	r2, [r6, #28]
	mov	r4, r5, asl r4
	str	r9, [r6, #32]
	mov	r5, r3
	str	r4, [r6, #36]
	mov	r10, r2
	b	.L226
.L230:
	mov	r2, r4, asl #24
	mov	r1, ip, asl r5
	cmp	r2, r0
	sub	r5, r5, #1
	rsbls	r0, r2, r0
	ldrls	lr, [r6, #36]
	movhi	r1, #0
	orr	r8, r8, r1
	rsbls	r4, r4, lr
	cmn	r5, #1
	add	r2, r7, r4
	ldrb	r2, [r2, #24]	@ zero_extendqisi2
	mov	r10, r0, asl r2
	rsb	r9, r2, r9
	mov	r4, r4, asl r2
	str	r10, [r6, #28]
	str	r9, [r6, #32]
	str	r4, [r6, #36]
	beq	.L374
.L226:
	sub	r4, r4, #1
	cmp	r9, #0
	ubfx	r4, r4, #1, #24
	mov	r0, r10
	add	r4, r4, #1
	bge	.L230
	rsb	r1, r9, #24
	rsb	r2, r9, #16
	bic	r1, r1, #7
	mov	r0, r6
	rsb	r2, r1, r2
	str	ip, [fp, #-56]
	str	r2, [fp, #-52]
	add	r9, r1, r9
	bl	BsGet
	ldr	r2, [fp, #-52]
	ldr	ip, [fp, #-56]
	and	r2, r2, #7
	orr	r0, r10, r0, asl r2
	b	.L230
.L208:
	add	r3, r7, r10
	ldrb	r3, [r3, #24]	@ zero_extendqisi2
	mov	r9, r4, asl r3
	mov	r10, r10, asl r3
	rsb	r4, r3, r5
	str	r9, [r6, #28]
	str	r4, [r6, #32]
	str	r10, [r6, #36]
	b	.L274
.L210:
	add	r3, r7, r10
	ldrb	r3, [r3, #24]	@ zero_extendqisi2
	mov	r5, r9, asl r3
	rsb	r4, r3, r4
	mov	r10, r10, asl r3
	str	r5, [r6, #28]
	str	r4, [r6, #32]
	str	r10, [r6, #36]
.L275:
	sub	r10, r10, #1
	cmp	r4, #0
	mov	r3, r10, asl #8
	sub	r10, r3, r10, asl #2
	mov	r10, r10, lsr #8
	add	r10, r10, #1
	blt	.L375
.L239:
	mov	r9, r10, asl #24
	cmp	r9, r5
	bhi	.L240
	ldr	r3, [r6, #36]
	rsb	r9, r9, r5
	rsb	r10, r10, r3
	add	r3, r7, r10
	ldrb	r3, [r3, #24]	@ zero_extendqisi2
	mov	r10, r10, asl r3
	rsb	r4, r3, r4
	sub	r5, r10, #1
	cmp	r4, #0
	ubfx	r5, r5, #1, #24
	mov	r9, r9, asl r3
	str	r10, [r6, #36]
	add	r5, r5, #1
	str	r4, [r6, #32]
	str	r9, [r6, #28]
	blt	.L376
.L241:
	mov	r3, r5, asl #24
	cmp	r3, r9
	bhi	.L242
	ldr	r2, [r6, #36]
	rsb	r9, r3, r9
	rsb	r5, r5, r2
	add	r3, r7, r5
	ldrb	r0, [r3, #24]	@ zero_extendqisi2
	mov	r2, r5, asl r0
	rsb	r4, r0, r4
	sub	r5, r2, #1
	cmp	r4, #0
	ubfx	r5, r5, #1, #24
	mov	r9, r9, asl r0
	str	r2, [r6, #36]
	add	r5, r5, #1
	str	r4, [r6, #32]
	str	r9, [r6, #28]
	blt	.L377
.L244:
	mov	r3, r5, asl #24
	cmp	r3, r9
	bhi	.L249
	ldr	r1, [r6, #36]
	rsb	r3, r3, r9
	rsb	r5, r5, r1
	add	r2, r7, r5
	ldrb	r2, [r2, #24]	@ zero_extendqisi2
	rsb	r9, r2, r4
	mov	r1, r5, asl r2
	sub	r5, r1, #1
	cmp	r9, #0
	ubfx	r5, r5, #1, #24
	mov	r4, r3, asl r2
	str	r1, [r6, #36]
	add	r5, r5, #1
	str	r9, [r6, #32]
	str	r4, [r6, #28]
	blt	.L378
.L251:
	mov	r2, r5, asl #24
	cmp	r2, r4
	bhi	.L255
	ldr	r1, [r6, #36]
	rsb	r2, r2, r4
	mov	r10, #0
	mov	r3, #6
	rsb	r5, r5, r1
	str	r8, [fp, #-60]
	add	r1, r7, r5
	mov	r8, r10
	mov	ip, #1
	ldrb	r4, [r1, #24]	@ zero_extendqisi2
	mov	r2, r2, asl r4
	rsb	r9, r4, r9
	str	r2, [r6, #28]
	mov	r4, r5, asl r4
	str	r9, [r6, #32]
	mov	r5, r3
	str	r4, [r6, #36]
	mov	r10, r2
	b	.L256
.L260:
	mov	r2, r4, asl #24
	mov	r1, ip, asl r5
	cmp	r2, r0
	sub	r5, r5, #1
	rsbls	r0, r2, r0
	ldrls	lr, [r6, #36]
	movhi	r1, #0
	orr	r8, r8, r1
	rsbls	r4, r4, lr
	cmn	r5, #1
	add	r2, r7, r4
	ldrb	r2, [r2, #24]	@ zero_extendqisi2
	mov	r10, r0, asl r2
	rsb	r9, r2, r9
	mov	r4, r4, asl r2
	str	r10, [r6, #28]
	str	r9, [r6, #32]
	str	r4, [r6, #36]
	beq	.L379
.L256:
	sub	r4, r4, #1
	cmp	r9, #0
	ubfx	r4, r4, #1, #24
	mov	r0, r10
	add	r4, r4, #1
	bge	.L260
	rsb	r1, r9, #24
	rsb	r2, r9, #16
	bic	r1, r1, #7
	mov	r0, r6
	rsb	r2, r1, r2
	str	ip, [fp, #-56]
	str	r2, [fp, #-52]
	add	r9, r1, r9
	bl	BsGet
	ldr	r2, [fp, #-52]
	ldr	ip, [fp, #-56]
	and	r2, r2, #7
	orr	r0, r10, r0, asl r2
	b	.L260
.L240:
	add	r3, r7, r10
	ldrb	r3, [r3, #24]	@ zero_extendqisi2
	mov	r5, r5, asl r3
	rsb	r4, r3, r4
	mov	r10, r10, asl r3
	str	r5, [r6, #28]
	str	r4, [r6, #32]
	str	r10, [r6, #36]
.L276:
	ldr	r3, [fp, #-48]
	add	r8, r8, #3
	cmp	r8, r3
	addne	r4, r6, #28
	ldmneia	r4, {r4, r5, r10}
	bne	.L270
.L114:
	sub	sp, fp, #40
	ldmfd	sp, {r4, r5, r6, r7, r8, r9, r10, fp, sp, pc}
.L212:
	add	r3, r7, r5
	mov	r10, #0
	mov	r2, #3
	str	r8, [fp, #-60]
	ldrb	r1, [r3, #24]	@ zero_extendqisi2
	mov	r8, r10
	mov	ip, #1
	mov	r9, r9, asl r1
	rsb	r4, r1, r4
	str	r9, [r6, #28]
	mov	r5, r5, asl r1
	mov	r10, r9
	str	r4, [r6, #32]
	str	r5, [r6, #36]
	mov	r9, r2
	b	.L217
.L215:
	mov	r2, r5, asl #24
	mov	r1, ip, asl r9
	cmp	r2, r0
	sub	r9, r9, #1
	rsbls	r0, r2, r0
	ldrls	lr, [r6, #36]
	movhi	r1, #0
	orr	r8, r8, r1
	rsbls	r5, r5, lr
	cmn	r9, #1
	add	r2, r7, r5
	ldrb	r2, [r2, #24]	@ zero_extendqisi2
	mov	r10, r0, asl r2
	rsb	r4, r2, r4
	mov	r5, r5, asl r2
	str	r10, [r6, #28]
	str	r4, [r6, #32]
	str	r5, [r6, #36]
	beq	.L380
.L217:
	sub	r5, r5, #1
	cmp	r4, #0
	ubfx	r5, r5, #1, #24
	mov	r0, r10
	add	r5, r5, #1
	bge	.L215
	rsb	r1, r4, #24
	rsb	r2, r4, #16
	bic	r1, r1, #7
	mov	r0, r6
	rsb	r2, r1, r2
	str	ip, [fp, #-56]
	str	r2, [fp, #-52]
	add	r4, r1, r4
	bl	BsGet
	ldr	r2, [fp, #-52]
	ldr	ip, [fp, #-56]
	and	r2, r2, #7
	orr	r0, r10, r0, asl r2
	b	.L215
.L179:
	add	r3, r7, r5
	mov	r10, #0
	mov	r2, #3
	str	r8, [fp, #-68]
	ldrb	r1, [r3, #24]	@ zero_extendqisi2
	mov	r8, r10
	mov	ip, #1
	mov	r9, r9, asl r1
	rsb	r4, r1, r4
	str	r9, [r6, #28]
	mov	r5, r5, asl r1
	mov	r10, r9
	str	r4, [r6, #32]
	str	r5, [r6, #36]
	mov	r9, r2
	b	.L184
.L182:
	mov	r2, r5, asl #24
	mov	r1, ip, asl r9
	cmp	r2, r0
	sub	r9, r9, #1
	rsbls	r0, r2, r0
	ldrls	lr, [r6, #36]
	movhi	r1, #0
	orr	r8, r8, r1
	rsbls	r5, r5, lr
	cmn	r9, #1
	add	r2, r7, r5
	ldrb	r2, [r2, #24]	@ zero_extendqisi2
	mov	r10, r0, asl r2
	rsb	r4, r2, r4
	mov	r5, r5, asl r2
	str	r10, [r6, #28]
	str	r4, [r6, #32]
	str	r5, [r6, #36]
	beq	.L381
.L184:
	sub	r5, r5, #1
	cmp	r4, #0
	ubfx	r5, r5, #1, #24
	mov	r0, r10
	add	r5, r5, #1
	bge	.L182
	rsb	r1, r4, #24
	rsb	r2, r4, #16
	bic	r1, r1, #7
	mov	r0, r6
	rsb	r2, r1, r2
	str	ip, [fp, #-64]
	str	r2, [fp, #-60]
	add	r4, r1, r4
	bl	BsGet
	ldr	r2, [fp, #-60]
	ldr	ip, [fp, #-64]
	and	r2, r2, #7
	orr	r0, r10, r0, asl r2
	b	.L182
.L149:
	add	r3, r7, r5
	mov	r10, #0
	mov	r2, #3
	str	r8, [fp, #-68]
	ldrb	r1, [r3, #24]	@ zero_extendqisi2
	mov	r8, r10
	mov	ip, #1
	mov	r9, r9, asl r1
	rsb	r4, r1, r4
	str	r9, [r6, #28]
	mov	r5, r5, asl r1
	mov	r10, r9
	str	r4, [r6, #32]
	str	r5, [r6, #36]
	mov	r9, r2
	b	.L154
.L152:
	mov	r2, r5, asl #24
	mov	r1, ip, asl r9
	cmp	r2, r0
	sub	r9, r9, #1
	rsbls	r0, r2, r0
	ldrls	lr, [r6, #36]
	movhi	r1, #0
	orr	r8, r8, r1
	rsbls	r5, r5, lr
	cmn	r9, #1
	add	r2, r7, r5
	ldrb	r2, [r2, #24]	@ zero_extendqisi2
	mov	r10, r0, asl r2
	rsb	r4, r2, r4
	mov	r5, r5, asl r2
	str	r10, [r6, #28]
	str	r4, [r6, #32]
	str	r5, [r6, #36]
	beq	.L382
.L154:
	sub	r5, r5, #1
	cmp	r4, #0
	ubfx	r5, r5, #1, #24
	mov	r0, r10
	add	r5, r5, #1
	bge	.L152
	rsb	r1, r4, #24
	rsb	r2, r4, #16
	bic	r1, r1, #7
	mov	r0, r6
	rsb	r2, r1, r2
	str	ip, [fp, #-64]
	str	r2, [fp, #-60]
	add	r4, r1, r4
	bl	BsGet
	ldr	r2, [fp, #-60]
	ldr	ip, [fp, #-64]
	and	r2, r2, #7
	orr	r0, r10, r0, asl r2
	b	.L152
.L118:
	add	r3, r7, r4
	mov	r10, #0
	mov	r2, #3
	str	r8, [fp, #-64]
	ldrb	r1, [r3, #24]	@ zero_extendqisi2
	mov	r8, r10
	mov	ip, #1
	mov	r9, r9, asl r1
	rsb	r5, r1, r5
	str	r9, [r6, #28]
	mov	r4, r4, asl r1
	mov	r10, r9
	str	r5, [r6, #32]
	str	r4, [r6, #36]
	mov	r9, r2
	b	.L123
.L121:
	mov	r2, r4, asl #24
	mov	r1, ip, asl r9
	cmp	r2, r0
	sub	r9, r9, #1
	rsbls	r0, r2, r0
	ldrls	lr, [r6, #36]
	movhi	r1, #0
	orr	r8, r8, r1
	rsbls	r4, r4, lr
	cmn	r9, #1
	add	r2, r7, r4
	ldrb	r2, [r2, #24]	@ zero_extendqisi2
	mov	r10, r0, asl r2
	rsb	r5, r2, r5
	mov	r4, r4, asl r2
	str	r10, [r6, #28]
	str	r5, [r6, #32]
	str	r4, [r6, #36]
	beq	.L383
.L123:
	sub	r4, r4, #1
	cmp	r5, #0
	ubfx	r4, r4, #1, #24
	mov	r0, r10
	add	r4, r4, #1
	bge	.L121
	rsb	r1, r5, #24
	rsb	r2, r5, #16
	bic	r1, r1, #7
	mov	r0, r6
	rsb	r2, r1, r2
	str	ip, [fp, #-60]
	str	r2, [fp, #-56]
	add	r5, r1, r5
	bl	BsGet
	ldr	r2, [fp, #-56]
	ldr	ip, [fp, #-60]
	and	r2, r2, #7
	orr	r0, r10, r0, asl r2
	b	.L121
.L242:
	add	r3, r7, r5
	mov	r10, #0
	mov	r2, #3
	str	r8, [fp, #-60]
	ldrb	r1, [r3, #24]	@ zero_extendqisi2
	mov	r8, r10
	mov	ip, #1
	mov	r9, r9, asl r1
	rsb	r4, r1, r4
	str	r9, [r6, #28]
	mov	r5, r5, asl r1
	mov	r10, r9
	str	r4, [r6, #32]
	str	r5, [r6, #36]
	mov	r9, r2
	b	.L247
.L245:
	mov	r2, r5, asl #24
	mov	r1, ip, asl r9
	cmp	r2, r0
	sub	r9, r9, #1
	rsbls	r0, r2, r0
	ldrls	lr, [r6, #36]
	movhi	r1, #0
	orr	r8, r8, r1
	rsbls	r5, r5, lr
	cmn	r9, #1
	add	r2, r7, r5
	ldrb	r2, [r2, #24]	@ zero_extendqisi2
	mov	r10, r0, asl r2
	rsb	r4, r2, r4
	mov	r5, r5, asl r2
	str	r10, [r6, #28]
	str	r4, [r6, #32]
	str	r5, [r6, #36]
	beq	.L384
.L247:
	sub	r5, r5, #1
	cmp	r4, #0
	ubfx	r5, r5, #1, #24
	mov	r0, r10
	add	r5, r5, #1
	bge	.L245
	rsb	r1, r4, #24
	rsb	r2, r4, #16
	bic	r1, r1, #7
	mov	r0, r6
	rsb	r2, r1, r2
	str	ip, [fp, #-56]
	str	r2, [fp, #-52]
	add	r4, r1, r4
	bl	BsGet
	ldr	r2, [fp, #-52]
	ldr	ip, [fp, #-56]
	and	r2, r2, #7
	orr	r0, r10, r0, asl r2
	b	.L245
.L401:
	.align	2
.L400:
	.word	.LANCHOR0
.L364:
	rsb	r2, r5, #24
	rsb	r9, r5, #16
	bic	r2, r2, #7
	mov	r0, r6
	rsb	r9, r2, r9
	str	r2, [fp, #-60]
	mov	r1, r2
	bl	BsGet
	and	r3, r9, #7
	ldr	r2, [fp, #-60]
	add	r5, r2, r5
	str	r5, [r6, #32]
	orr	r0, r4, r0, asl r3
	str	r0, [r6, #28]
	mov	r4, r0
	b	.L176
.L369:
	rsb	r3, r5, #24
	rsb	r9, r5, #16
	bic	r3, r3, #7
	mov	r0, r6
	rsb	r9, r3, r9
	str	r3, [fp, #-52]
	mov	r1, r3
	and	r9, r9, #7
	bl	BsGet
	ldr	r3, [fp, #-52]
	add	r5, r3, r5
	str	r5, [r6, #32]
	orr	r0, r4, r0, asl r9
	str	r0, [r6, #28]
	mov	r4, r0
	b	.L207
.L370:
	rsb	r3, r4, #24
	rsb	r5, r4, #16
	bic	r3, r3, #7
	mov	r0, r6
	rsb	r5, r3, r5
	str	r3, [fp, #-52]
	mov	r1, r3
	and	r5, r5, #7
	bl	BsGet
	ldr	r3, [fp, #-52]
	add	r4, r3, r4
	str	r4, [r6, #32]
	orr	r0, r9, r0, asl r5
	str	r0, [r6, #28]
	mov	r9, r0
	b	.L209
.L375:
	rsb	r2, r4, #24
	rsb	r9, r4, #16
	bic	r2, r2, #7
	mov	r0, r6
	rsb	r9, r2, r9
	str	r2, [fp, #-52]
	mov	r1, r2
	bl	BsGet
	and	r3, r9, #7
	ldr	r2, [fp, #-52]
	add	r4, r2, r4
	str	r4, [r6, #32]
	orr	r0, r5, r0, asl r3
	str	r0, [r6, #28]
	mov	r5, r0
	b	.L239
.L359:
	rsb	r3, r5, #24
	rsb	r9, r5, #16
	bic	r3, r3, #7
	mov	r0, r6
	rsb	r9, r3, r9
	str	r3, [fp, #-60]
	mov	r1, r3
	and	r9, r9, #7
	bl	BsGet
	ldr	r3, [fp, #-60]
	add	r5, r3, r5
	str	r5, [r6, #32]
	orr	r0, r4, r0, asl r9
	str	r0, [r6, #28]
	mov	r4, r0
	b	.L146
.L354:
	rsb	r3, r5, #24
	rsb	r9, r5, #16
	bic	r3, r3, #7
	mov	r0, r6
	rsb	r9, r3, r9
	str	r3, [fp, #-56]
	mov	r1, r3
	and	r9, r9, #7
	bl	BsGet
	ldr	r3, [fp, #-56]
	add	r5, r3, r5
	str	r5, [r6, #32]
	orr	r0, r4, r0, asl r9
	str	r0, [r6, #28]
	mov	r4, r0
	b	.L115
.L382:
	mov	r10, r8
	ldr	r8, [fp, #-68]
.L155:
	ldrb	r2, [r8, #6]	@ zero_extendqisi2
	add	r10, r7, r10
	sub	ip, r2, #1
	ldrb	r1, [r10, #280]	@ zero_extendqisi2
	mov	r0, ip, asl #1
	cmp	r0, #255
	bgt	.L170
	add	r3, r1, #1
	cmp	r3, r0
	bgt	.L171
	tst	r3, #1
	addne	r3, r1, #2
	addeq	r3, r3, r3, lsr #31
	subne	r3, ip, r3, asr #1
	addeq	r3, ip, r3, asr #1
.L171:
	add	r3, r3, #1
.L173:
	add	r4, r6, #28
	strb	r3, [r8, #6]
	ldmia	r4, {r4, r5, r10}
	b	.L272
.L170:
	rsb	r2, r2, #255
	add	r3, r1, #1
	cmp	r3, r2, asl #1
	ble	.L385
	rsb	r3, r3, #255
	b	.L173
.L383:
	mov	r10, r8
	ldr	r8, [fp, #-64]
.L124:
	ldrb	r2, [r8]	@ zero_extendqisi2
	add	r10, r7, r10
	sub	ip, r2, #1
	ldrb	r1, [r10, #280]	@ zero_extendqisi2
	mov	r0, ip, asl #1
	cmp	r0, #255
	bgt	.L139
	add	r3, r1, #1
	cmp	r3, r0
	bgt	.L140
	tst	r3, #1
	addne	r3, r1, #2
	addeq	r3, r3, r3, lsr #31
	subne	r3, ip, r3, asr #1
	addeq	r3, ip, r3, asr #1
.L140:
	add	r3, r3, #1
.L142:
	strb	r3, [r8]
	ldr	r4, [r6, #28]
	ldr	r3, [r6, #36]
	ldr	r5, [r6, #32]
	b	.L271
.L139:
	rsb	r2, r2, #255
	add	r3, r1, #1
	cmp	r3, r2, asl #1
	ble	.L386
	rsb	r3, r3, #255
	b	.L142
.L384:
	mov	r10, r8
	ldr	r8, [fp, #-60]
.L248:
	ldrb	r2, [r8, #2]	@ zero_extendqisi2
	add	r10, r7, r10
	sub	ip, r2, #1
	ldrb	r1, [r10, #280]	@ zero_extendqisi2
	mov	r0, ip, asl #1
	cmp	r0, #255
	bgt	.L263
	add	r3, r1, #1
	cmp	r3, r0
	bgt	.L264
	tst	r3, #1
	addne	r3, r1, #2
	addeq	r3, r3, r3, lsr #31
	subne	r3, ip, r3, asr #1
	addeq	r3, ip, r3, asr #1
.L264:
	add	r3, r3, #1
.L266:
	strb	r3, [r8, #2]
	b	.L276
.L263:
	rsb	r2, r2, #255
	add	r3, r1, #1
	cmp	r3, r2, asl #1
	ble	.L387
	rsb	r3, r3, #255
	b	.L266
.L381:
	mov	r10, r8
	ldr	r8, [fp, #-68]
.L185:
	ldrb	r2, [r8, #7]	@ zero_extendqisi2
	add	r10, r7, r10
	sub	ip, r2, #1
	ldrb	r1, [r10, #280]	@ zero_extendqisi2
	mov	r0, ip, asl #1
	cmp	r0, #255
	bgt	.L200
	add	r3, r1, #1
	cmp	r3, r0
	bgt	.L201
	tst	r3, #1
	addne	r3, r1, #2
	addeq	r3, r3, r3, lsr #31
	subne	r3, ip, r3, asr #1
	addeq	r3, ip, r3, asr #1
.L201:
	add	r3, r3, #1
.L203:
	strb	r3, [r8, #7]
	ldr	r4, [r6, #28]
	ldr	r3, [r6, #36]
	ldr	r5, [r6, #32]
	b	.L273
.L200:
	rsb	r2, r2, #255
	add	r3, r1, #1
	cmp	r3, r2, asl #1
	ble	.L388
	rsb	r3, r3, #255
	b	.L203
.L380:
	mov	r10, r8
	ldr	r8, [fp, #-60]
.L218:
	ldrb	r2, [r8, #1]	@ zero_extendqisi2
	add	r10, r7, r10
	sub	ip, r2, #1
	ldrb	r1, [r10, #280]	@ zero_extendqisi2
	mov	r0, ip, asl #1
	cmp	r0, #255
	bgt	.L233
	add	r3, r1, #1
	cmp	r3, r0
	bgt	.L234
	tst	r3, #1
	addne	r3, r1, #2
	addeq	r3, r3, r3, lsr #31
	subne	r3, ip, r3, asr #1
	addeq	r3, ip, r3, asr #1
.L234:
	add	r3, r3, #1
.L236:
	strb	r3, [r8, #1]
	ldr	r5, [r6, #28]
	ldr	r10, [r6, #36]
	ldr	r4, [r6, #32]
	b	.L275
.L233:
	rsb	r2, r2, #255
	add	r3, r1, #1
	cmp	r3, r2, asl #1
	ble	.L389
	rsb	r3, r3, #255
	b	.L236
.L386:
	tst	r3, #1
	addne	r3, r1, #2
	addeq	r3, r3, r3, lsr #31
	subne	r3, r2, r3, asr #1
	addeq	r3, r2, r3, asr #1
	rsb	r3, r3, #255
	b	.L142
.L385:
	tst	r3, #1
	addne	r3, r1, #2
	addeq	r3, r3, r3, lsr #31
	subne	r3, r2, r3, asr #1
	addeq	r3, r2, r3, asr #1
	rsb	r3, r3, #255
	b	.L173
.L388:
	tst	r3, #1
	addne	r3, r1, #2
	addeq	r3, r3, r3, lsr #31
	subne	r3, r2, r3, asr #1
	addeq	r3, r2, r3, asr #1
	rsb	r3, r3, #255
	b	.L203
.L387:
	tst	r3, #1
	addne	r3, r1, #2
	addeq	r3, r3, r3, lsr #31
	subne	r3, r2, r3, asr #1
	addeq	r3, r2, r3, asr #1
	rsb	r3, r3, #255
	b	.L266
.L389:
	tst	r3, #1
	addne	r3, r1, #2
	addeq	r3, r3, r3, lsr #31
	subne	r3, r2, r3, asr #1
	addeq	r3, r2, r3, asr #1
	rsb	r3, r3, #255
	b	.L236
.L162:
	add	r3, r7, r5
	mov	r10, #0
	mov	ip, #4
	str	r8, [fp, #-68]
	ldrb	r1, [r3, #24]	@ zero_extendqisi2
	mov	r8, r10
	mov	r2, #1
	mov	r3, r4, asl r1
	mov	r5, r5, asl r1
	rsb	r9, r1, r9
	str	r5, [r6, #36]
	mov	r4, r5
	str	r3, [r6, #28]
	str	r9, [r6, #32]
	mov	r10, r3
	mov	r5, ip
	b	.L166
.L164:
	mov	r1, r4, asl #24
	mov	ip, r2, asl r5
	cmp	r1, r0
	sub	r5, r5, #1
	rsbls	r0, r1, r0
	ldrls	lr, [r6, #36]
	movhi	ip, #0
	orr	r8, r8, ip
	rsbls	r4, r4, lr
	cmn	r5, #1
	add	r1, r7, r4
	ldrb	r1, [r1, #24]	@ zero_extendqisi2
	mov	r10, r0, asl r1
	rsb	r9, r1, r9
	mov	r4, r4, asl r1
	str	r10, [r6, #28]
	str	r9, [r6, #32]
	str	r4, [r6, #36]
	beq	.L390
.L166:
	sub	r4, r4, #1
	cmp	r9, #0
	ubfx	r4, r4, #1, #24
	mov	r0, r10
	add	r4, r4, #1
	bge	.L164
	rsb	r1, r9, #24
	rsb	ip, r9, #16
	bic	r1, r1, #7
	mov	r0, r6
	rsb	ip, r1, ip
	str	r2, [fp, #-64]
	str	ip, [fp, #-60]
	add	r9, r1, r9
	bl	BsGet
	ldr	ip, [fp, #-60]
	ldr	r2, [fp, #-64]
	and	ip, ip, #7
	orr	r0, r10, r0, asl ip
	b	.L164
.L192:
	add	r3, r7, r5
	mov	r10, #0
	mov	ip, #4
	str	r8, [fp, #-68]
	ldrb	r1, [r3, #24]	@ zero_extendqisi2
	mov	r8, r10
	mov	r2, #1
	mov	r3, r4, asl r1
	mov	r5, r5, asl r1
	rsb	r9, r1, r9
	str	r5, [r6, #36]
	mov	r4, r5
	str	r3, [r6, #28]
	str	r9, [r6, #32]
	mov	r10, r3
	mov	r5, ip
	b	.L196
.L194:
	mov	r1, r4, asl #24
	mov	ip, r2, asl r5
	cmp	r1, r0
	sub	r5, r5, #1
	rsbls	r0, r1, r0
	ldrls	lr, [r6, #36]
	movhi	ip, #0
	orr	r8, r8, ip
	rsbls	r4, r4, lr
	cmn	r5, #1
	add	r1, r7, r4
	ldrb	r1, [r1, #24]	@ zero_extendqisi2
	mov	r10, r0, asl r1
	rsb	r9, r1, r9
	mov	r4, r4, asl r1
	str	r10, [r6, #28]
	str	r9, [r6, #32]
	str	r4, [r6, #36]
	beq	.L391
.L196:
	sub	r4, r4, #1
	cmp	r9, #0
	ubfx	r4, r4, #1, #24
	mov	r0, r10
	add	r4, r4, #1
	bge	.L194
	rsb	r1, r9, #24
	rsb	ip, r9, #16
	bic	r1, r1, #7
	mov	r0, r6
	rsb	ip, r1, ip
	str	r2, [fp, #-64]
	str	ip, [fp, #-60]
	add	r9, r1, r9
	bl	BsGet
	ldr	ip, [fp, #-60]
	ldr	r2, [fp, #-64]
	and	ip, ip, #7
	orr	r0, r10, r0, asl ip
	b	.L194
.L255:
	add	r3, r7, r5
	mov	r10, #0
	mov	ip, #4
	str	r8, [fp, #-60]
	ldrb	r1, [r3, #24]	@ zero_extendqisi2
	mov	r8, r10
	mov	r2, #1
	mov	r3, r4, asl r1
	mov	r5, r5, asl r1
	rsb	r9, r1, r9
	str	r5, [r6, #36]
	mov	r4, r5
	str	r3, [r6, #28]
	str	r9, [r6, #32]
	mov	r10, r3
	mov	r5, ip
	b	.L259
.L257:
	mov	r1, r4, asl #24
	mov	ip, r2, asl r5
	cmp	r1, r0
	sub	r5, r5, #1
	rsbls	r0, r1, r0
	ldrls	lr, [r6, #36]
	movhi	ip, #0
	orr	r8, r8, ip
	rsbls	r4, r4, lr
	cmn	r5, #1
	add	r1, r7, r4
	ldrb	r1, [r1, #24]	@ zero_extendqisi2
	mov	r10, r0, asl r1
	rsb	r9, r1, r9
	mov	r4, r4, asl r1
	str	r10, [r6, #28]
	str	r9, [r6, #32]
	str	r4, [r6, #36]
	beq	.L392
.L259:
	sub	r4, r4, #1
	cmp	r9, #0
	ubfx	r4, r4, #1, #24
	mov	r0, r10
	add	r4, r4, #1
	bge	.L257
	rsb	r1, r9, #24
	rsb	ip, r9, #16
	bic	r1, r1, #7
	mov	r0, r6
	rsb	ip, r1, ip
	str	r2, [fp, #-56]
	str	ip, [fp, #-52]
	add	r9, r1, r9
	bl	BsGet
	ldr	ip, [fp, #-52]
	ldr	r2, [fp, #-56]
	and	ip, ip, #7
	orr	r0, r10, r0, asl ip
	b	.L257
.L131:
	add	r3, r7, r9
	mov	r10, #0
	mov	r2, #4
	str	r8, [fp, #-64]
	ldrb	r1, [r3, #24]	@ zero_extendqisi2
	mov	r8, r10
	mov	ip, #1
	mov	r3, r4, asl r1
	mov	r9, r9, asl r1
	rsb	r5, r1, r5
	str	r9, [r6, #36]
	mov	r4, r9
	str	r3, [r6, #28]
	str	r5, [r6, #32]
	mov	r10, r3
	mov	r9, r2
	b	.L135
.L133:
	mov	r2, r4, asl #24
	mov	r1, ip, asl r9
	cmp	r2, r0
	sub	r9, r9, #1
	rsbls	r0, r2, r0
	ldrls	lr, [r6, #36]
	movhi	r1, #0
	orr	r8, r8, r1
	rsbls	r4, r4, lr
	cmn	r9, #1
	add	r2, r7, r4
	ldrb	r2, [r2, #24]	@ zero_extendqisi2
	mov	r10, r0, asl r2
	rsb	r5, r2, r5
	mov	r4, r4, asl r2
	str	r10, [r6, #28]
	str	r5, [r6, #32]
	str	r4, [r6, #36]
	beq	.L393
.L135:
	sub	r4, r4, #1
	cmp	r5, #0
	ubfx	r4, r4, #1, #24
	mov	r0, r10
	add	r4, r4, #1
	bge	.L133
	rsb	r1, r5, #24
	rsb	r2, r5, #16
	bic	r1, r1, #7
	mov	r0, r6
	rsb	r2, r1, r2
	str	ip, [fp, #-60]
	str	r2, [fp, #-56]
	add	r5, r1, r5
	bl	BsGet
	ldr	r2, [fp, #-56]
	ldr	ip, [fp, #-60]
	and	r2, r2, #7
	orr	r0, r10, r0, asl r2
	b	.L133
.L225:
	add	r3, r7, r5
	mov	r10, #0
	mov	ip, #4
	str	r8, [fp, #-60]
	ldrb	r1, [r3, #24]	@ zero_extendqisi2
	mov	r8, r10
	mov	r2, #1
	mov	r3, r4, asl r1
	mov	r5, r5, asl r1
	rsb	r9, r1, r9
	str	r5, [r6, #36]
	mov	r4, r5
	str	r3, [r6, #28]
	str	r9, [r6, #32]
	mov	r10, r3
	mov	r5, ip
	b	.L229
.L227:
	mov	r1, r4, asl #24
	mov	ip, r2, asl r5
	cmp	r1, r0
	sub	r5, r5, #1
	rsbls	r0, r1, r0
	ldrls	lr, [r6, #36]
	movhi	ip, #0
	orr	r8, r8, ip
	rsbls	r4, r4, lr
	cmn	r5, #1
	add	r1, r7, r4
	ldrb	r1, [r1, #24]	@ zero_extendqisi2
	mov	r10, r0, asl r1
	rsb	r9, r1, r9
	mov	r4, r4, asl r1
	str	r10, [r6, #28]
	str	r9, [r6, #32]
	str	r4, [r6, #36]
	beq	.L394
.L229:
	sub	r4, r4, #1
	cmp	r9, #0
	ubfx	r4, r4, #1, #24
	mov	r0, r10
	add	r4, r4, #1
	bge	.L227
	rsb	r1, r9, #24
	rsb	ip, r9, #16
	bic	r1, r1, #7
	mov	r0, r6
	rsb	ip, r1, ip
	str	r2, [fp, #-56]
	str	ip, [fp, #-52]
	add	r9, r1, r9
	bl	BsGet
	ldr	ip, [fp, #-52]
	ldr	r2, [fp, #-56]
	and	ip, ip, #7
	orr	r0, r10, r0, asl ip
	b	.L227
.L156:
	add	r3, r7, r5
	mov	r10, #0
	mov	r2, #3
	str	r8, [fp, #-68]
	ldrb	r1, [r3, #24]	@ zero_extendqisi2
	mov	r8, r10
	mov	ip, #1
	mov	r9, r9, asl r1
	rsb	r4, r1, r4
	str	r9, [r6, #28]
	mov	r5, r5, asl r1
	mov	r10, r9
	str	r4, [r6, #32]
	str	r5, [r6, #36]
	mov	r9, r2
	b	.L161
.L159:
	mov	r2, r5, asl #24
	mov	r1, ip, asl r9
	cmp	r2, r0
	sub	r9, r9, #1
	rsbls	r0, r2, r0
	ldrls	lr, [r6, #36]
	movhi	r1, #0
	orr	r8, r8, r1
	rsbls	r5, r5, lr
	cmn	r9, #1
	add	r2, r7, r5
	ldrb	r2, [r2, #24]	@ zero_extendqisi2
	mov	r10, r0, asl r2
	rsb	r4, r2, r4
	mov	r5, r5, asl r2
	str	r10, [r6, #28]
	str	r4, [r6, #32]
	str	r5, [r6, #36]
	beq	.L395
.L161:
	sub	r5, r5, #1
	cmp	r4, #0
	ubfx	r5, r5, #1, #24
	mov	r0, r10
	add	r5, r5, #1
	bge	.L159
	rsb	r1, r4, #24
	rsb	r2, r4, #16
	bic	r1, r1, #7
	mov	r0, r6
	rsb	r2, r1, r2
	str	ip, [fp, #-64]
	str	r2, [fp, #-60]
	add	r4, r1, r4
	bl	BsGet
	ldr	r2, [fp, #-60]
	ldr	ip, [fp, #-64]
	and	r2, r2, #7
	orr	r0, r10, r0, asl r2
	b	.L159
.L125:
	add	r3, r7, r5
	mov	r10, #0
	mov	r2, #3
	str	r8, [fp, #-64]
	ldrb	r1, [r3, #24]	@ zero_extendqisi2
	mov	r8, r10
	mov	ip, #1
	mov	r9, r9, asl r1
	rsb	r4, r1, r4
	str	r9, [r6, #28]
	mov	r5, r5, asl r1
	mov	r10, r9
	str	r4, [r6, #32]
	str	r5, [r6, #36]
	mov	r9, r2
	b	.L130
.L128:
	mov	r2, r5, asl #24
	mov	r1, ip, asl r9
	cmp	r2, r0
	sub	r9, r9, #1
	rsbls	r0, r2, r0
	ldrls	lr, [r6, #36]
	movhi	r1, #0
	orr	r8, r8, r1
	rsbls	r5, r5, lr
	cmn	r9, #1
	add	r2, r7, r5
	ldrb	r2, [r2, #24]	@ zero_extendqisi2
	mov	r10, r0, asl r2
	rsb	r4, r2, r4
	mov	r5, r5, asl r2
	str	r10, [r6, #28]
	str	r4, [r6, #32]
	str	r5, [r6, #36]
	beq	.L396
.L130:
	sub	r5, r5, #1
	cmp	r4, #0
	ubfx	r5, r5, #1, #24
	mov	r0, r10
	add	r5, r5, #1
	bge	.L128
	rsb	r1, r4, #24
	rsb	r2, r4, #16
	bic	r1, r1, #7
	mov	r0, r6
	rsb	r2, r1, r2
	str	ip, [fp, #-60]
	str	r2, [fp, #-56]
	add	r4, r1, r4
	bl	BsGet
	ldr	r2, [fp, #-56]
	ldr	ip, [fp, #-60]
	and	r2, r2, #7
	orr	r0, r10, r0, asl r2
	b	.L128
.L186:
	add	r3, r7, r5
	mov	r10, #0
	mov	r2, #3
	str	r8, [fp, #-68]
	ldrb	r1, [r3, #24]	@ zero_extendqisi2
	mov	r8, r10
	mov	ip, #1
	mov	r9, r9, asl r1
	rsb	r4, r1, r4
	str	r9, [r6, #28]
	mov	r5, r5, asl r1
	mov	r10, r9
	str	r4, [r6, #32]
	str	r5, [r6, #36]
	mov	r9, r2
	b	.L191
.L189:
	mov	r2, r5, asl #24
	mov	r1, ip, asl r9
	cmp	r2, r0
	sub	r9, r9, #1
	rsbls	r0, r2, r0
	ldrls	lr, [r6, #36]
	movhi	r1, #0
	orr	r8, r8, r1
	rsbls	r5, r5, lr
	cmn	r9, #1
	add	r2, r7, r5
	ldrb	r2, [r2, #24]	@ zero_extendqisi2
	mov	r10, r0, asl r2
	rsb	r4, r2, r4
	mov	r5, r5, asl r2
	str	r10, [r6, #28]
	str	r4, [r6, #32]
	str	r5, [r6, #36]
	beq	.L397
.L191:
	sub	r5, r5, #1
	cmp	r4, #0
	ubfx	r5, r5, #1, #24
	mov	r0, r10
	add	r5, r5, #1
	bge	.L189
	rsb	r1, r4, #24
	rsb	r2, r4, #16
	bic	r1, r1, #7
	mov	r0, r6
	rsb	r2, r1, r2
	str	ip, [fp, #-64]
	str	r2, [fp, #-60]
	add	r4, r1, r4
	bl	BsGet
	ldr	r2, [fp, #-60]
	ldr	ip, [fp, #-64]
	and	r2, r2, #7
	orr	r0, r10, r0, asl r2
	b	.L189
.L219:
	add	r3, r7, r5
	mov	r10, #0
	mov	r2, #3
	str	r8, [fp, #-60]
	ldrb	r1, [r3, #24]	@ zero_extendqisi2
	mov	r8, r10
	mov	ip, #1
	mov	r9, r9, asl r1
	rsb	r4, r1, r4
	str	r9, [r6, #28]
	mov	r5, r5, asl r1
	mov	r10, r9
	str	r4, [r6, #32]
	str	r5, [r6, #36]
	mov	r9, r2
	b	.L224
.L222:
	mov	r2, r5, asl #24
	mov	r1, ip, asl r9
	cmp	r2, r0
	sub	r9, r9, #1
	rsbls	r0, r2, r0
	ldrls	lr, [r6, #36]
	movhi	r1, #0
	orr	r8, r8, r1
	rsbls	r5, r5, lr
	cmn	r9, #1
	add	r2, r7, r5
	ldrb	r2, [r2, #24]	@ zero_extendqisi2
	mov	r10, r0, asl r2
	rsb	r4, r2, r4
	mov	r5, r5, asl r2
	str	r10, [r6, #28]
	str	r4, [r6, #32]
	str	r5, [r6, #36]
	beq	.L398
.L224:
	sub	r5, r5, #1
	cmp	r4, #0
	ubfx	r5, r5, #1, #24
	mov	r0, r10
	add	r5, r5, #1
	bge	.L222
	rsb	r1, r4, #24
	rsb	r2, r4, #16
	bic	r1, r1, #7
	mov	r0, r6
	rsb	r2, r1, r2
	str	ip, [fp, #-56]
	str	r2, [fp, #-52]
	add	r4, r1, r4
	bl	BsGet
	ldr	r2, [fp, #-52]
	ldr	ip, [fp, #-56]
	and	r2, r2, #7
	orr	r0, r10, r0, asl r2
	b	.L222
.L249:
	add	r3, r7, r5
	mov	r10, #0
	mov	r2, #3
	str	r8, [fp, #-60]
	ldrb	r1, [r3, #24]	@ zero_extendqisi2
	mov	r8, r10
	mov	ip, #1
	mov	r9, r9, asl r1
	rsb	r4, r1, r4
	str	r9, [r6, #28]
	mov	r5, r5, asl r1
	mov	r10, r9
	str	r4, [r6, #32]
	str	r5, [r6, #36]
	mov	r9, r2
	b	.L254
.L252:
	mov	r2, r5, asl #24
	mov	r1, ip, asl r9
	cmp	r2, r0
	sub	r9, r9, #1
	rsbls	r0, r2, r0
	ldrls	lr, [r6, #36]
	movhi	r1, #0
	orr	r8, r8, r1
	rsbls	r5, r5, lr
	cmn	r9, #1
	add	r2, r7, r5
	ldrb	r2, [r2, #24]	@ zero_extendqisi2
	mov	r10, r0, asl r2
	rsb	r4, r2, r4
	mov	r5, r5, asl r2
	str	r10, [r6, #28]
	str	r4, [r6, #32]
	str	r5, [r6, #36]
	beq	.L399
.L254:
	sub	r5, r5, #1
	cmp	r4, #0
	ubfx	r5, r5, #1, #24
	mov	r0, r10
	add	r5, r5, #1
	bge	.L252
	rsb	r1, r4, #24
	rsb	r2, r4, #16
	bic	r1, r1, #7
	mov	r0, r6
	rsb	r2, r1, r2
	str	ip, [fp, #-56]
	str	r2, [fp, #-52]
	add	r4, r1, r4
	bl	BsGet
	ldr	r2, [fp, #-52]
	ldr	ip, [fp, #-56]
	and	r2, r2, #7
	orr	r0, r10, r0, asl r2
	b	.L252
.L399:
	mov	r10, r8
	ldr	r8, [fp, #-60]
	add	r10, r10, #16
	b	.L248
.L395:
	mov	r10, r8
	ldr	r8, [fp, #-68]
	add	r10, r10, #16
	b	.L155
.L398:
	mov	r10, r8
	ldr	r8, [fp, #-60]
	add	r10, r10, #16
	b	.L218
.L397:
	mov	r10, r8
	ldr	r8, [fp, #-68]
	add	r10, r10, #16
	b	.L185
.L396:
	mov	r10, r8
	ldr	r8, [fp, #-64]
	add	r10, r10, #16
	b	.L124
.L358:
	mov	r3, r8
	cmp	r3, #64
	ldr	r8, [fp, #-64]
	movle	r10, r3
	ble	.L138
	mov	r1, #128
	mov	r0, r6
	str	r3, [fp, #-56]
	bl	Vp9_Cabac_Read
	ldr	r3, [fp, #-56]
	add	r0, r0, r3, lsl #1
	sub	r10, r0, #65
.L138:
	add	r10, r10, #64
	b	.L124
.L374:
	mov	r10, r8
	cmp	r10, #64
	ldr	r8, [fp, #-60]
	ble	.L232
	mov	r1, #128
	mov	r0, r6
	bl	Vp9_Cabac_Read
	add	r0, r0, r10, lsl #1
	sub	r10, r0, #65
.L232:
	add	r10, r10, #64
	b	.L218
.L379:
	mov	r10, r8
	cmp	r10, #64
	ldr	r8, [fp, #-60]
	ble	.L262
	mov	r1, #128
	mov	r0, r6
	bl	Vp9_Cabac_Read
	add	r0, r0, r10, lsl #1
	sub	r10, r0, #65
.L262:
	add	r10, r10, #64
	b	.L248
.L368:
	mov	r10, r8
	cmp	r10, #64
	ldr	r8, [fp, #-68]
	ble	.L199
	mov	r1, #128
	mov	r0, r6
	bl	Vp9_Cabac_Read
	add	r0, r0, r10, lsl #1
	sub	r10, r0, #65
.L199:
	add	r10, r10, #64
	b	.L185
.L363:
	mov	r10, r8
	cmp	r10, #64
	ldr	r8, [fp, #-68]
	ble	.L169
	mov	r1, #128
	mov	r0, r6
	bl	Vp9_Cabac_Read
	add	r0, r0, r10, lsl #1
	sub	r10, r0, #65
.L169:
	add	r10, r10, #64
	b	.L155
.L393:
	mov	r10, r8
	ldr	r8, [fp, #-64]
	add	r10, r10, #32
	b	.L124
.L390:
	mov	r10, r8
	ldr	r8, [fp, #-68]
	add	r10, r10, #32
	b	.L155
.L394:
	mov	r10, r8
	ldr	r8, [fp, #-60]
	add	r10, r10, #32
	b	.L218
.L392:
	mov	r10, r8
	ldr	r8, [fp, #-60]
	add	r10, r10, #32
	b	.L248
.L391:
	mov	r10, r8
	ldr	r8, [fp, #-68]
	add	r10, r10, #32
	b	.L185
.L365:
	rsb	r3, r4, #24
	rsb	r10, r4, #16
	bic	r3, r3, #7
	mov	r0, r6
	rsb	r10, r3, r10
	str	r3, [fp, #-60]
	mov	r1, r3
	and	r10, r10, #7
	bl	BsGet
	ldr	r3, [fp, #-60]
	add	r4, r4, r3
	str	r4, [r6, #32]
	orr	r0, r9, r0, asl r10
	str	r0, [r6, #28]
	mov	r9, r0
	b	.L178
.L360:
	rsb	r3, r4, #24
	rsb	r10, r4, #16
	bic	r3, r3, #7
	mov	r0, r6
	rsb	r10, r3, r10
	str	r3, [fp, #-60]
	mov	r1, r3
	and	r10, r10, #7
	bl	BsGet
	ldr	r3, [fp, #-60]
	add	r4, r4, r3
	str	r4, [r6, #32]
	orr	r0, r9, r0, asl r10
	str	r0, [r6, #28]
	mov	r9, r0
	b	.L148
.L355:
	rsb	r2, r5, #24
	rsb	r10, r5, #16
	bic	r2, r2, #7
	mov	r0, r6
	rsb	r10, r2, r10
	str	r2, [fp, #-56]
	mov	r1, r2
	bl	BsGet
	and	r3, r10, #7
	ldr	r2, [fp, #-56]
	add	r5, r5, r2
	str	r5, [r6, #32]
	orr	r0, r9, r0, asl r3
	str	r0, [r6, #28]
	mov	r9, r0
	b	.L117
.L376:
	rsb	r3, r4, #24
	rsb	r10, r4, #16
	bic	r3, r3, #7
	mov	r0, r6
	rsb	r10, r3, r10
	str	r3, [fp, #-52]
	mov	r1, r3
	and	r10, r10, #7
	bl	BsGet
	ldr	r3, [fp, #-52]
	add	r4, r4, r3
	str	r4, [r6, #32]
	orr	r0, r9, r0, asl r10
	str	r0, [r6, #28]
	mov	r9, r0
	b	.L241
.L371:
	rsb	r3, r4, #24
	rsb	r10, r4, #16
	bic	r3, r3, #7
	mov	r0, r6
	rsb	r10, r3, r10
	str	r3, [fp, #-52]
	mov	r1, r3
	and	r10, r10, #7
	bl	BsGet
	ldr	r3, [fp, #-52]
	add	r4, r4, r3
	str	r4, [r6, #32]
	orr	r0, r9, r0, asl r10
	str	r0, [r6, #28]
	mov	r9, r0
	b	.L211
.L357:
	rsb	r2, r5, #24
	rsb	r10, r5, #16
	bic	r2, r2, #7
	mov	r0, r6
	rsb	r10, r2, r10
	str	r2, [fp, #-56]
	mov	r1, r2
	bl	BsGet
	ldr	r2, [fp, #-56]
	and	r3, r10, #7
	add	r10, r5, r2
	str	r10, [r6, #32]
	mov	r5, r10
	orr	r0, r4, r0, asl r3
	str	r0, [r6, #28]
	mov	r4, r0
	b	.L127
.L378:
	rsb	r2, r9, #24
	rsb	r10, r9, #16
	bic	r2, r2, #7
	mov	r0, r6
	rsb	r10, r2, r10
	str	r2, [fp, #-52]
	mov	r1, r2
	bl	BsGet
	and	r3, r10, #7
	ldr	r2, [fp, #-52]
	add	r9, r9, r2
	str	r9, [r6, #32]
	orr	r0, r4, r0, asl r3
	str	r0, [r6, #28]
	mov	r4, r0
	b	.L251
.L373:
	rsb	r2, r9, #24
	rsb	r10, r9, #16
	bic	r2, r2, #7
	mov	r0, r6
	rsb	r10, r2, r10
	str	r2, [fp, #-52]
	mov	r1, r2
	bl	BsGet
	and	r3, r10, #7
	ldr	r2, [fp, #-52]
	add	r9, r9, r2
	str	r9, [r6, #32]
	orr	r0, r4, r0, asl r3
	str	r0, [r6, #28]
	mov	r4, r0
	b	.L221
.L367:
	rsb	r2, r9, #24
	rsb	r10, r9, #16
	bic	r2, r2, #7
	mov	r0, r6
	rsb	r10, r2, r10
	str	r2, [fp, #-60]
	mov	r1, r2
	bl	BsGet
	and	r3, r10, #7
	ldr	r2, [fp, #-60]
	add	r9, r9, r2
	str	r9, [r6, #32]
	orr	r0, r4, r0, asl r3
	str	r0, [r6, #28]
	mov	r4, r0
	b	.L188
.L362:
	rsb	r2, r9, #24
	rsb	r10, r9, #16
	bic	r2, r2, #7
	mov	r0, r6
	rsb	r10, r2, r10
	str	r2, [fp, #-60]
	mov	r1, r2
	bl	BsGet
	and	r3, r10, #7
	ldr	r2, [fp, #-60]
	add	r9, r9, r2
	str	r9, [r6, #32]
	orr	r0, r4, r0, asl r3
	str	r0, [r6, #28]
	mov	r4, r0
	b	.L158
.L377:
	rsb	r3, r4, #24
	rsb	r10, r4, #16
	bic	r3, r3, #7
	mov	r0, r6
	rsb	r10, r3, r10
	str	r3, [fp, #-52]
	mov	r1, r3
	and	r10, r10, #7
	bl	BsGet
	ldr	r3, [fp, #-52]
	add	r4, r4, r3
	str	r4, [r6, #32]
	orr	r0, r9, r0, asl r10
	str	r0, [r6, #28]
	mov	r9, r0
	b	.L244
.L356:
	rsb	r2, r4, #24
	rsb	r10, r4, #16
	bic	r2, r2, #7
	mov	r0, r6
	rsb	r10, r2, r10
	str	r2, [fp, #-56]
	mov	r1, r2
	bl	BsGet
	and	r3, r10, #7
	ldr	r2, [fp, #-56]
	add	r4, r4, r2
	str	r4, [r6, #32]
	orr	r0, r9, r0, asl r3
	str	r0, [r6, #28]
	mov	r9, r0
	b	.L120
.L366:
	rsb	r3, r4, #24
	rsb	r10, r4, #16
	bic	r3, r3, #7
	mov	r0, r6
	rsb	r10, r3, r10
	str	r3, [fp, #-60]
	mov	r1, r3
	and	r10, r10, #7
	bl	BsGet
	ldr	r3, [fp, #-60]
	add	r4, r4, r3
	str	r4, [r6, #32]
	orr	r0, r9, r0, asl r10
	str	r0, [r6, #28]
	mov	r9, r0
	b	.L181
.L361:
	rsb	r3, r4, #24
	rsb	r10, r4, #16
	bic	r3, r3, #7
	mov	r0, r6
	rsb	r10, r3, r10
	str	r3, [fp, #-60]
	mov	r1, r3
	and	r10, r10, #7
	bl	BsGet
	ldr	r3, [fp, #-60]
	add	r4, r4, r3
	str	r4, [r6, #32]
	orr	r0, r9, r0, asl r10
	str	r0, [r6, #28]
	mov	r9, r0
	b	.L151
.L372:
	rsb	r3, r4, #24
	rsb	r10, r4, #16
	bic	r3, r3, #7
	mov	r0, r6
	rsb	r10, r3, r10
	str	r3, [fp, #-52]
	mov	r1, r3
	and	r10, r10, #7
	bl	BsGet
	ldr	r3, [fp, #-52]
	add	r4, r4, r3
	str	r4, [r6, #32]
	orr	r0, r9, r0, asl r10
	str	r0, [r6, #28]
	mov	r9, r0
	b	.L214
	UNWIND(.fnend)
	.size	Vp9_ReadTxProbs, .-Vp9_ReadTxProbs
	.align	2
	.global	Vp9_ReadCoefProbsCommon
	.type	Vp9_ReadCoefProbsCommon, %function
Vp9_ReadCoefProbsCommon:
	UNWIND(.fnstart)
	@ args = 0, pretend = 0, frame = 40
	@ frame_needed = 1, uses_anonymous_args = 0
	UNWIND(.movsp ip)
	mov	ip, sp
	stmfd	sp!, {r4, r5, r6, r7, r8, r9, r10, fp, ip, lr, pc}
	UNWIND(.pad #4)
	UNWIND(.save {r4, r5, r6, r7, r8, r9, r10, fp, ip, lr})
	UNWIND(.setfp fp, ip, #-4)
	sub	fp, ip, #4
	UNWIND(.pad #44)
	sub	sp, sp, #44
	ldr	r4, [r1, #36]
	ldr	ip, [r1, #32]
	mov	r6, r1
	sub	r4, r4, #1
	mov	r7, r0
	cmp	ip, #0
	ubfx	r4, r4, #1, #24
	add	r4, r4, #1
	blt	.L403
	ldr	r3, [r1, #28]
.L404:
	mov	r1, r4, asl #24
	cmp	r1, r3
	bhi	.L405
	ldr	r2, [r6, #36]
	rsb	r3, r1, r3
	ldr	r5, .L591
	add	r1, r7, #648
	rsb	r4, r4, r2
	add	r2, r1, #2
	str	r2, [fp, #-80]
	add	r2, r5, r4
	mov	r10, r6
	add	r1, r7, #218
	ldrb	r2, [r2, #24]	@ zero_extendqisi2
	str	r1, [fp, #-76]
	mov	r3, r3, asl r2
	rsb	r1, r2, ip
	mov	r4, r4, asl r2
	str	r3, [r6, #28]
	str	r1, [r6, #32]
	str	r4, [r6, #36]
.L406:
	ldr	r3, [fp, #-76]
	mov	r6, r10
	sub	r3, r3, #216
	str	r3, [fp, #-72]
.L509:
	ldr	r3, [fp, #-72]
	str	r3, [fp, #-56]
	mov	r3, #0
	str	r3, [fp, #-52]
.L507:
	ldr	r7, [fp, #-56]
	mov	r3, #0
	str	r3, [fp, #-48]
.L505:
	ldr	r3, [fp, #-52]
	ldr	r2, [fp, #-48]
	cmp	r3, #0
	moveq	r3, #3
	movne	r3, #6
	cmp	r2, r3
	bge	.L563
	ldr	r8, [r6, #36]
	ldr	r4, [r6, #32]
	sub	r8, r8, #1
	cmp	r4, #0
	mov	r3, r8, asl #8
	sub	r8, r3, r8, asl #2
	mov	r8, r8, lsr #8
	add	r8, r8, #1
	blt	.L407
	ldr	r10, [r6, #28]
.L408:
	mov	r9, r8, asl #24
	cmp	r9, r10
	bhi	.L409
	ldr	r3, [r6, #36]
	rsb	r10, r9, r10
	rsb	r8, r8, r3
	add	r3, r5, r8
	ldrb	r9, [r3, #24]	@ zero_extendqisi2
	mov	r3, r8, asl r9
	rsb	r4, r9, r4
	sub	r8, r3, #1
	cmp	r4, #0
	ubfx	r8, r8, #1, #24
	mov	r9, r10, asl r9
	str	r3, [r6, #36]
	add	r8, r8, #1
	str	r4, [r6, #32]
	str	r9, [r6, #28]
	blt	.L564
.L410:
	mov	r3, r8, asl #24
	cmp	r3, r9
	bhi	.L411
	ldr	r2, [r6, #36]
	rsb	r9, r3, r9
	rsb	r8, r8, r2
	add	r3, r5, r8
	ldrb	r0, [r3, #24]	@ zero_extendqisi2
	mov	r2, r8, asl r0
	rsb	r4, r0, r4
	sub	r8, r2, #1
	cmp	r4, #0
	ubfx	r8, r8, #1, #24
	mov	r9, r9, asl r0
	str	r2, [r6, #36]
	add	r8, r8, #1
	str	r4, [r6, #32]
	str	r9, [r6, #28]
	blt	.L565
.L413:
	mov	r3, r8, asl #24
	cmp	r3, r9
	bhi	.L418
	ldr	r1, [r6, #36]
	rsb	r3, r3, r9
	rsb	r8, r8, r1
	add	r2, r5, r8
	ldrb	r2, [r2, #24]	@ zero_extendqisi2
	rsb	r9, r2, r4
	mov	r1, r8, asl r2
	sub	r8, r1, #1
	cmp	r9, #0
	ubfx	r8, r8, #1, #24
	mov	r4, r3, asl r2
	str	r1, [r6, #36]
	add	r8, r8, #1
	str	r9, [r6, #32]
	str	r4, [r6, #28]
	blt	.L566
.L420:
	mov	r2, r8, asl #24
	cmp	r2, r4
	bhi	.L424
	ldr	r1, [r6, #36]
	rsb	r2, r2, r4
	mov	r10, #0
	mov	r3, #6
	rsb	r8, r8, r1
	str	r7, [fp, #-68]
	add	r1, r5, r8
	mov	r7, r10
	mov	ip, #1
	ldrb	r4, [r1, #24]	@ zero_extendqisi2
	mov	r2, r2, asl r4
	rsb	r9, r4, r9
	str	r2, [r6, #28]
	mov	r4, r8, asl r4
	str	r9, [r6, #32]
	mov	r8, r3
	str	r4, [r6, #36]
	mov	r10, r2
	b	.L425
.L429:
	mov	r2, r4, asl #24
	mov	r1, ip, asl r8
	cmp	r2, r0
	sub	r8, r8, #1
	rsbls	r0, r2, r0
	ldrls	lr, [r6, #36]
	movhi	r1, #0
	orr	r7, r7, r1
	rsbls	r4, r4, lr
	cmn	r8, #1
	add	r2, r5, r4
	ldrb	r2, [r2, #24]	@ zero_extendqisi2
	mov	r10, r0, asl r2
	rsb	r9, r2, r9
	mov	r4, r4, asl r2
	str	r10, [r6, #28]
	str	r9, [r6, #32]
	str	r4, [r6, #36]
	beq	.L567
.L425:
	sub	r4, r4, #1
	cmp	r9, #0
	ubfx	r4, r4, #1, #24
	mov	r0, r10
	add	r4, r4, #1
	bge	.L429
	rsb	r1, r9, #24
	rsb	r2, r9, #16
	bic	r1, r1, #7
	mov	r0, r6
	rsb	r2, r1, r2
	str	ip, [fp, #-64]
	str	r2, [fp, #-60]
	add	r9, r1, r9
	bl	BsGet
	ldr	r2, [fp, #-60]
	ldr	ip, [fp, #-64]
	and	r2, r2, #7
	orr	r0, r10, r0, asl r2
	b	.L429
.L409:
	add	r3, r5, r8
	ldrb	r3, [r3, #24]	@ zero_extendqisi2
	mov	r10, r10, asl r3
	rsb	r4, r3, r4
	mov	r8, r8, asl r3
	str	r10, [r6, #28]
	str	r4, [r6, #32]
	str	r8, [r6, #36]
.L510:
	sub	r8, r8, #1
	cmp	r4, #0
	mov	r3, r8, asl #8
	sub	r8, r3, r8, asl #2
	mov	r8, r8, lsr #8
	add	r8, r8, #1
	blt	.L568
.L438:
	mov	r9, r8, asl #24
	cmp	r9, r10
	bhi	.L439
	ldr	r3, [r6, #36]
	rsb	r10, r9, r10
	rsb	r8, r8, r3
	add	r3, r5, r8
	ldrb	r9, [r3, #24]	@ zero_extendqisi2
	mov	r3, r8, asl r9
	rsb	r4, r9, r4
	sub	r8, r3, #1
	cmp	r4, #0
	ubfx	r8, r8, #1, #24
	mov	r10, r10, asl r9
	str	r3, [r6, #36]
	add	r8, r8, #1
	str	r4, [r6, #32]
	str	r10, [r6, #28]
	blt	.L569
.L440:
	mov	r9, r8, asl #24
	cmp	r9, r10
	bhi	.L441
	ldr	r2, [r6, #36]
	rsb	r9, r9, r10
	rsb	r8, r8, r2
	add	r3, r5, r8
	ldrb	r0, [r3, #24]	@ zero_extendqisi2
	mov	r2, r8, asl r0
	rsb	r4, r0, r4
	sub	r8, r2, #1
	cmp	r4, #0
	ubfx	r8, r8, #1, #24
	mov	r9, r9, asl r0
	str	r2, [r6, #36]
	add	r8, r8, #1
	str	r4, [r6, #32]
	str	r9, [r6, #28]
	blt	.L570
.L443:
	mov	r3, r8, asl #24
	cmp	r3, r9
	bhi	.L448
	ldr	r1, [r6, #36]
	rsb	r3, r3, r9
	rsb	r8, r8, r1
	add	r2, r5, r8
	ldrb	r2, [r2, #24]	@ zero_extendqisi2
	rsb	r9, r2, r4
	mov	r1, r8, asl r2
	sub	r8, r1, #1
	cmp	r9, #0
	ubfx	r8, r8, #1, #24
	mov	r4, r3, asl r2
	str	r1, [r6, #36]
	add	r8, r8, #1
	str	r9, [r6, #32]
	str	r4, [r6, #28]
	blt	.L571
.L450:
	mov	r2, r8, asl #24
	cmp	r2, r4
	bhi	.L454
	ldr	r1, [r6, #36]
	rsb	r2, r2, r4
	mov	r10, #0
	mov	r3, #6
	rsb	r8, r8, r1
	str	r7, [fp, #-68]
	add	r1, r5, r8
	mov	r7, r10
	mov	ip, #1
	ldrb	r4, [r1, #24]	@ zero_extendqisi2
	mov	r2, r2, asl r4
	rsb	r9, r4, r9
	str	r2, [r6, #28]
	mov	r4, r8, asl r4
	str	r9, [r6, #32]
	mov	r8, r3
	str	r4, [r6, #36]
	mov	r10, r2
	b	.L455
.L459:
	mov	r2, r4, asl #24
	mov	r1, ip, asl r8
	cmp	r2, r0
	sub	r8, r8, #1
	rsbls	r0, r2, r0
	ldrls	lr, [r6, #36]
	movhi	r1, #0
	orr	r7, r7, r1
	rsbls	r4, r4, lr
	cmn	r8, #1
	add	r2, r5, r4
	ldrb	r2, [r2, #24]	@ zero_extendqisi2
	mov	r10, r0, asl r2
	rsb	r9, r2, r9
	mov	r4, r4, asl r2
	str	r10, [r6, #28]
	str	r9, [r6, #32]
	str	r4, [r6, #36]
	beq	.L572
.L455:
	sub	r4, r4, #1
	cmp	r9, #0
	ubfx	r4, r4, #1, #24
	mov	r0, r10
	add	r4, r4, #1
	bge	.L459
	rsb	r1, r9, #24
	rsb	r2, r9, #16
	bic	r1, r1, #7
	mov	r0, r6
	rsb	r2, r1, r2
	str	ip, [fp, #-64]
	str	r2, [fp, #-60]
	add	r9, r1, r9
	bl	BsGet
	ldr	r2, [fp, #-60]
	ldr	ip, [fp, #-64]
	and	r2, r2, #7
	orr	r0, r10, r0, asl r2
	b	.L459
.L439:
	add	r3, r5, r8
	ldrb	r3, [r3, #24]	@ zero_extendqisi2
	mov	r10, r10, asl r3
	rsb	r4, r3, r4
	mov	r8, r8, asl r3
	str	r10, [r6, #28]
	str	r4, [r6, #32]
	str	r8, [r6, #36]
.L511:
	sub	r8, r8, #1
	cmp	r4, #0
	mov	r3, r8, asl #8
	sub	r8, r3, r8, asl #2
	mov	r8, r8, lsr #8
	add	r8, r8, #1
	blt	.L573
.L470:
	mov	r9, r8, asl #24
	cmp	r9, r10
	bhi	.L471
	ldr	r3, [r6, #36]
	rsb	r10, r9, r10
	rsb	r8, r8, r3
	add	r3, r5, r8
	ldrb	r9, [r3, #24]	@ zero_extendqisi2
	mov	r3, r8, asl r9
	rsb	r4, r9, r4
	sub	r8, r3, #1
	cmp	r4, #0
	ubfx	r8, r8, #1, #24
	mov	r10, r10, asl r9
	str	r3, [r6, #36]
	add	r8, r8, #1
	str	r4, [r6, #32]
	str	r10, [r6, #28]
	blt	.L574
.L472:
	mov	r9, r8, asl #24
	cmp	r9, r10
	bhi	.L473
	ldr	r2, [r6, #36]
	rsb	r9, r9, r10
	rsb	r8, r8, r2
	add	r3, r5, r8
	ldrb	r0, [r3, #24]	@ zero_extendqisi2
	mov	r2, r8, asl r0
	rsb	r4, r0, r4
	sub	r8, r2, #1
	cmp	r4, #0
	ubfx	r8, r8, #1, #24
	mov	r9, r9, asl r0
	str	r2, [r6, #36]
	add	r8, r8, #1
	str	r4, [r6, #32]
	str	r9, [r6, #28]
	blt	.L575
.L475:
	mov	r3, r8, asl #24
	cmp	r3, r9
	bhi	.L480
	ldr	r1, [r6, #36]
	rsb	r3, r3, r9
	rsb	r8, r8, r1
	add	r2, r5, r8
	ldrb	r2, [r2, #24]	@ zero_extendqisi2
	rsb	r9, r2, r4
	mov	r1, r8, asl r2
	sub	r8, r1, #1
	cmp	r9, #0
	ubfx	r8, r8, #1, #24
	mov	r4, r3, asl r2
	str	r1, [r6, #36]
	add	r8, r8, #1
	str	r9, [r6, #32]
	str	r4, [r6, #28]
	blt	.L576
.L482:
	mov	r2, r8, asl #24
	cmp	r2, r4
	bhi	.L486
	ldr	r1, [r6, #36]
	rsb	r2, r2, r4
	mov	r10, #0
	mov	r3, #6
	rsb	r8, r8, r1
	str	r7, [fp, #-68]
	add	r1, r5, r8
	mov	r7, r10
	mov	ip, #1
	ldrb	r4, [r1, #24]	@ zero_extendqisi2
	mov	r2, r2, asl r4
	rsb	r9, r4, r9
	str	r2, [r6, #28]
	mov	r4, r8, asl r4
	str	r9, [r6, #32]
	mov	r8, r3
	str	r4, [r6, #36]
	mov	r10, r2
	b	.L487
.L491:
	mov	r2, r4, asl #24
	mov	r1, ip, asl r8
	cmp	r2, r0
	sub	r8, r8, #1
	rsbls	r0, r2, r0
	ldrls	lr, [r6, #36]
	movhi	r1, #0
	orr	r7, r7, r1
	rsbls	r4, r4, lr
	cmn	r8, #1
	add	r2, r5, r4
	ldrb	r2, [r2, #24]	@ zero_extendqisi2
	mov	r10, r0, asl r2
	rsb	r9, r2, r9
	mov	r4, r4, asl r2
	str	r10, [r6, #28]
	str	r9, [r6, #32]
	str	r4, [r6, #36]
	beq	.L577
.L487:
	sub	r4, r4, #1
	cmp	r9, #0
	ubfx	r4, r4, #1, #24
	mov	r0, r10
	add	r4, r4, #1
	bge	.L491
	rsb	r1, r9, #24
	rsb	r2, r9, #16
	bic	r1, r1, #7
	mov	r0, r6
	rsb	r2, r1, r2
	str	ip, [fp, #-64]
	str	r2, [fp, #-60]
	add	r9, r1, r9
	bl	BsGet
	ldr	r2, [fp, #-60]
	ldr	ip, [fp, #-64]
	and	r2, r2, #7
	orr	r0, r10, r0, asl r2
	b	.L491
.L471:
	add	r3, r5, r8
	ldrb	r3, [r3, #24]	@ zero_extendqisi2
	mov	r10, r10, asl r3
	rsb	r4, r3, r4
	mov	r8, r8, asl r3
	str	r10, [r6, #28]
	str	r4, [r6, #32]
	str	r8, [r6, #36]
.L512:
	ldr	r3, [fp, #-48]
	add	r7, r7, #3
	add	r3, r3, #1
	str	r3, [fp, #-48]
	b	.L505
.L573:
	rsb	r3, r4, #24
	rsb	r9, r4, #16
	bic	r3, r3, #7
	mov	r0, r6
	rsb	r9, r3, r9
	str	r3, [fp, #-60]
	mov	r1, r3
	bl	BsGet
	and	r2, r9, #7
	ldr	r3, [fp, #-60]
	add	r4, r3, r4
	str	r4, [r6, #32]
	orr	r0, r10, r0, asl r2
	str	r0, [r6, #28]
	mov	r10, r0
	b	.L470
.L568:
	rsb	r3, r4, #24
	rsb	r9, r4, #16
	bic	r3, r3, #7
	mov	r0, r6
	rsb	r9, r3, r9
	str	r3, [fp, #-60]
	mov	r1, r3
	bl	BsGet
	and	r2, r9, #7
	ldr	r3, [fp, #-60]
	add	r4, r3, r4
	str	r4, [r6, #32]
	orr	r0, r10, r0, asl r2
	str	r0, [r6, #28]
	mov	r10, r0
	b	.L438
.L407:
	rsb	r9, r4, #24
	rsb	r3, r4, #16
	bic	r9, r9, #7
	mov	r0, r6
	rsb	r3, r9, r3
	ldr	r10, [r6, #28]
	mov	r1, r9
	str	r3, [fp, #-60]
	bl	BsGet
	ldr	r3, [fp, #-60]
	add	r4, r4, r9
	str	r4, [r6, #32]
	and	r3, r3, #7
	orr	r0, r10, r0, asl r3
	str	r0, [r6, #28]
	mov	r10, r0
	b	.L408
.L473:
	add	r1, r5, r8
	mov	r3, #0
	mov	r2, #3
	str	r7, [fp, #-68]
	ldrb	r1, [r1, #24]	@ zero_extendqisi2
	mov	ip, #1
	mov	r7, r3
	mov	r9, r10, asl r1
	rsb	r4, r1, r4
	mov	r8, r8, asl r1
	str	r9, [r6, #28]
	str	r4, [r6, #32]
	mov	r10, r2
	str	r8, [r6, #36]
	b	.L478
.L476:
	mov	r2, r8, asl #24
	mov	r1, ip, asl r10
	cmp	r2, r0
	sub	r10, r10, #1
	rsbls	r0, r2, r0
	ldrls	lr, [r6, #36]
	movhi	r1, #0
	orr	r7, r7, r1
	rsbls	r8, r8, lr
	cmn	r10, #1
	add	r2, r5, r8
	ldrb	r2, [r2, #24]	@ zero_extendqisi2
	mov	r9, r0, asl r2
	rsb	r4, r2, r4
	mov	r8, r8, asl r2
	str	r9, [r6, #28]
	str	r4, [r6, #32]
	str	r8, [r6, #36]
	beq	.L578
.L478:
	sub	r8, r8, #1
	cmp	r4, #0
	ubfx	r8, r8, #1, #24
	mov	r0, r9
	add	r8, r8, #1
	bge	.L476
	rsb	r1, r4, #24
	rsb	r2, r4, #16
	bic	r1, r1, #7
	mov	r0, r6
	rsb	r2, r1, r2
	str	ip, [fp, #-64]
	str	r2, [fp, #-60]
	add	r4, r1, r4
	bl	BsGet
	ldr	r2, [fp, #-60]
	ldr	ip, [fp, #-64]
	and	r2, r2, #7
	orr	r0, r9, r0, asl r2
	b	.L476
.L441:
	add	r1, r5, r8
	mov	r3, #0
	mov	r2, #3
	str	r7, [fp, #-68]
	ldrb	r1, [r1, #24]	@ zero_extendqisi2
	mov	ip, #1
	mov	r7, r3
	mov	r9, r10, asl r1
	rsb	r4, r1, r4
	mov	r8, r8, asl r1
	str	r9, [r6, #28]
	str	r4, [r6, #32]
	mov	r10, r2
	str	r8, [r6, #36]
	b	.L446
.L444:
	mov	r2, r8, asl #24
	mov	r1, ip, asl r10
	cmp	r2, r0
	sub	r10, r10, #1
	rsbls	r0, r2, r0
	ldrls	lr, [r6, #36]
	movhi	r1, #0
	orr	r7, r7, r1
	rsbls	r8, r8, lr
	cmn	r10, #1
	add	r2, r5, r8
	ldrb	r2, [r2, #24]	@ zero_extendqisi2
	mov	r9, r0, asl r2
	rsb	r4, r2, r4
	mov	r8, r8, asl r2
	str	r9, [r6, #28]
	str	r4, [r6, #32]
	str	r8, [r6, #36]
	beq	.L579
.L446:
	sub	r8, r8, #1
	cmp	r4, #0
	ubfx	r8, r8, #1, #24
	mov	r0, r9
	add	r8, r8, #1
	bge	.L444
	rsb	r1, r4, #24
	rsb	r2, r4, #16
	bic	r1, r1, #7
	mov	r0, r6
	rsb	r2, r1, r2
	str	ip, [fp, #-64]
	str	r2, [fp, #-60]
	add	r4, r1, r4
	bl	BsGet
	ldr	r2, [fp, #-60]
	ldr	ip, [fp, #-64]
	and	r2, r2, #7
	orr	r0, r9, r0, asl r2
	b	.L444
.L411:
	add	r3, r5, r8
	mov	r10, #0
	mov	r2, #3
	str	r7, [fp, #-68]
	ldrb	r3, [r3, #24]	@ zero_extendqisi2
	mov	r7, r10
	mov	ip, #1
	mov	r9, r9, asl r3
	rsb	r4, r3, r4
	str	r9, [r6, #28]
	mov	r8, r8, asl r3
	mov	r10, r9
	str	r4, [r6, #32]
	str	r8, [r6, #36]
	mov	r9, r2
	b	.L416
.L414:
	mov	r2, r8, asl #24
	mov	r1, ip, asl r9
	cmp	r2, r0
	sub	r9, r9, #1
	rsbls	r0, r2, r0
	ldrls	lr, [r6, #36]
	movhi	r1, #0
	orr	r7, r7, r1
	rsbls	r8, r8, lr
	cmn	r9, #1
	add	r2, r5, r8
	ldrb	r2, [r2, #24]	@ zero_extendqisi2
	mov	r10, r0, asl r2
	rsb	r4, r2, r4
	mov	r8, r8, asl r2
	str	r10, [r6, #28]
	str	r4, [r6, #32]
	str	r8, [r6, #36]
	beq	.L580
.L416:
	sub	r8, r8, #1
	cmp	r4, #0
	ubfx	r8, r8, #1, #24
	mov	r0, r10
	add	r8, r8, #1
	bge	.L414
	rsb	r1, r4, #24
	rsb	r2, r4, #16
	bic	r1, r1, #7
	mov	r0, r6
	rsb	r2, r1, r2
	str	ip, [fp, #-64]
	str	r2, [fp, #-60]
	add	r4, r1, r4
	bl	BsGet
	ldr	r2, [fp, #-60]
	ldr	ip, [fp, #-64]
	and	r2, r2, #7
	orr	r0, r10, r0, asl r2
	b	.L414
.L580:
	mov	r10, r7
	ldr	r7, [fp, #-68]
.L417:
	ldrb	r2, [r7, #-2]	@ zero_extendqisi2
	add	r10, r5, r10
	sub	ip, r2, #1
	ldrb	r1, [r10, #280]	@ zero_extendqisi2
	mov	r0, ip, asl #1
	cmp	r0, #255
	bgt	.L432
	add	r3, r1, #1
	cmp	r3, r0
	bgt	.L433
	tst	r3, #1
	addne	r3, r1, #2
	addeq	r3, r3, r3, lsr #31
	subne	r3, ip, r3, asr #1
	addeq	r3, ip, r3, asr #1
.L433:
	add	r3, r3, #1
.L435:
	strb	r3, [r7, #-2]
	ldr	r8, [r6, #36]
	ldr	r4, [r6, #32]
	ldr	r10, [r6, #28]
	b	.L510
.L432:
	rsb	r2, r2, #255
	add	r3, r1, #1
	cmp	r3, r2, asl #1
	bgt	.L436
	tst	r3, #1
	addne	r3, r1, #2
	addeq	r3, r3, r3, lsr #31
	subne	r3, r2, r3, asr #1
	addeq	r3, r2, r3, asr #1
.L436:
	rsb	r3, r3, #255
	b	.L435
.L579:
	mov	r3, r7
	ldr	r7, [fp, #-68]
.L447:
	ldrb	r2, [r7, #-1]	@ zero_extendqisi2
	add	r10, r5, r3
	sub	ip, r2, #1
	ldrb	r1, [r10, #280]	@ zero_extendqisi2
	mov	r0, ip, asl #1
	cmp	r0, #255
	bgt	.L464
	add	r3, r1, #1
	cmp	r3, r0
	bgt	.L465
	tst	r3, #1
	addne	r3, r1, #2
	addeq	r3, r3, r3, lsr #31
	subne	r3, ip, r3, asr #1
	addeq	r3, ip, r3, asr #1
.L465:
	add	r3, r3, #1
.L467:
	strb	r3, [r7, #-1]
	ldr	r8, [r6, #36]
	ldr	r4, [r6, #32]
	ldr	r10, [r6, #28]
	b	.L511
.L464:
	rsb	r2, r2, #255
	add	r3, r1, #1
	cmp	r3, r2, asl #1
	bgt	.L468
	tst	r3, #1
	addne	r3, r1, #2
	addeq	r3, r3, r3, lsr #31
	subne	r3, r2, r3, asr #1
	addeq	r3, r2, r3, asr #1
.L468:
	rsb	r3, r3, #255
	b	.L467
.L578:
	mov	r3, r7
	ldr	r7, [fp, #-68]
.L479:
	ldrb	r2, [r7]	@ zero_extendqisi2
	add	r10, r5, r3
	sub	ip, r2, #1
	ldrb	r1, [r10, #280]	@ zero_extendqisi2
	mov	r0, ip, asl #1
	cmp	r0, #255
	bgt	.L496
	add	r3, r1, #1
	cmp	r3, r0
	bgt	.L497
	tst	r3, #1
	addne	r3, r1, #2
	addeq	r3, r3, r3, lsr #31
	subne	r3, ip, r3, asr #1
	addeq	r3, ip, r3, asr #1
.L497:
	add	r3, r3, #1
.L499:
	strb	r3, [r7]
	b	.L512
.L496:
	rsb	r2, r2, #255
	add	r3, r1, #1
	cmp	r3, r2, asl #1
	bgt	.L500
	tst	r3, #1
	addne	r3, r1, #2
	addeq	r3, r3, r3, lsr #31
	subne	r3, r2, r3, asr #1
	addeq	r3, r2, r3, asr #1
.L500:
	rsb	r3, r3, #255
	b	.L499
.L563:
	ldr	r3, [fp, #-52]
	ldr	r2, [fp, #-56]
	add	r3, r3, #1
	str	r3, [fp, #-52]
	cmp	r3, #6
	add	r2, r2, #18
	str	r2, [fp, #-56]
	bne	.L507
	ldr	r3, [fp, #-72]
	ldr	r2, [fp, #-76]
	add	r3, r3, #108
	str	r3, [fp, #-72]
	cmp	r3, r2
	bne	.L509
	ldr	r3, [fp, #-76]
	mov	r10, r6
	ldr	r2, [fp, #-80]
	add	r3, r3, #216
	str	r3, [fp, #-76]
	cmp	r3, r2
	bne	.L406
	sub	sp, fp, #40
	ldmfd	sp, {r4, r5, r6, r7, r8, r9, r10, fp, sp, pc}
.L448:
	add	r3, r5, r8
	mov	r10, #0
	mov	r2, #3
	str	r7, [fp, #-68]
	ldrb	r3, [r3, #24]	@ zero_extendqisi2
	mov	r7, r10
	mov	ip, #1
	mov	r9, r9, asl r3
	rsb	r4, r3, r4
	str	r9, [r6, #28]
	mov	r8, r8, asl r3
	mov	r10, r9
	str	r4, [r6, #32]
	str	r8, [r6, #36]
	mov	r9, r2
	b	.L453
.L451:
	mov	r2, r8, asl #24
	mov	r1, ip, asl r9
	cmp	r2, r0
	sub	r9, r9, #1
	rsbls	r0, r2, r0
	ldrls	lr, [r6, #36]
	movhi	r1, #0
	orr	r7, r7, r1
	rsbls	r8, r8, lr
	cmn	r9, #1
	add	r2, r5, r8
	ldrb	r2, [r2, #24]	@ zero_extendqisi2
	mov	r10, r0, asl r2
	rsb	r4, r2, r4
	mov	r8, r8, asl r2
	str	r10, [r6, #28]
	str	r4, [r6, #32]
	str	r8, [r6, #36]
	beq	.L581
.L453:
	sub	r8, r8, #1
	cmp	r4, #0
	ubfx	r8, r8, #1, #24
	mov	r0, r10
	add	r8, r8, #1
	bge	.L451
	rsb	r1, r4, #24
	rsb	r2, r4, #16
	bic	r1, r1, #7
	mov	r0, r6
	rsb	r2, r1, r2
	str	ip, [fp, #-64]
	str	r2, [fp, #-60]
	add	r4, r1, r4
	bl	BsGet
	ldr	r2, [fp, #-60]
	ldr	ip, [fp, #-64]
	and	r2, r2, #7
	orr	r0, r10, r0, asl r2
	b	.L451
.L418:
	add	r3, r5, r8
	mov	r10, #0
	mov	r2, #3
	str	r7, [fp, #-68]
	ldrb	r3, [r3, #24]	@ zero_extendqisi2
	mov	r7, r10
	mov	ip, #1
	mov	r9, r9, asl r3
	rsb	r4, r3, r4
	str	r9, [r6, #28]
	mov	r8, r8, asl r3
	mov	r10, r9
	str	r4, [r6, #32]
	str	r8, [r6, #36]
	mov	r9, r2
	b	.L423
.L421:
	mov	r2, r8, asl #24
	mov	r1, ip, asl r9
	cmp	r2, r0
	sub	r9, r9, #1
	rsbls	r0, r2, r0
	ldrls	lr, [r6, #36]
	movhi	r1, #0
	orr	r7, r7, r1
	rsbls	r8, r8, lr
	cmn	r9, #1
	add	r2, r5, r8
	ldrb	r2, [r2, #24]	@ zero_extendqisi2
	mov	r10, r0, asl r2
	rsb	r4, r2, r4
	mov	r8, r8, asl r2
	str	r10, [r6, #28]
	str	r4, [r6, #32]
	str	r8, [r6, #36]
	beq	.L582
.L423:
	sub	r8, r8, #1
	cmp	r4, #0
	ubfx	r8, r8, #1, #24
	mov	r0, r10
	add	r8, r8, #1
	bge	.L421
	rsb	r1, r4, #24
	rsb	r2, r4, #16
	bic	r1, r1, #7
	mov	r0, r6
	rsb	r2, r1, r2
	str	ip, [fp, #-64]
	str	r2, [fp, #-60]
	add	r4, r1, r4
	bl	BsGet
	ldr	r2, [fp, #-60]
	ldr	ip, [fp, #-64]
	and	r2, r2, #7
	orr	r0, r10, r0, asl r2
	b	.L421
.L480:
	add	r3, r5, r8
	mov	r10, #0
	mov	r2, #3
	str	r7, [fp, #-68]
	ldrb	r3, [r3, #24]	@ zero_extendqisi2
	mov	r7, r10
	mov	ip, #1
	mov	r9, r9, asl r3
	rsb	r4, r3, r4
	str	r9, [r6, #28]
	mov	r8, r8, asl r3
	mov	r10, r9
	str	r4, [r6, #32]
	str	r8, [r6, #36]
	mov	r9, r2
	b	.L485
.L483:
	mov	r2, r8, asl #24
	mov	r1, ip, asl r9
	cmp	r2, r0
	sub	r9, r9, #1
	rsbls	r0, r2, r0
	ldrls	lr, [r6, #36]
	movhi	r1, #0
	orr	r7, r7, r1
	rsbls	r8, r8, lr
	cmn	r9, #1
	add	r2, r5, r8
	ldrb	r2, [r2, #24]	@ zero_extendqisi2
	mov	r10, r0, asl r2
	rsb	r4, r2, r4
	mov	r8, r8, asl r2
	str	r10, [r6, #28]
	str	r4, [r6, #32]
	str	r8, [r6, #36]
	beq	.L583
.L485:
	sub	r8, r8, #1
	cmp	r4, #0
	ubfx	r8, r8, #1, #24
	mov	r0, r10
	add	r8, r8, #1
	bge	.L483
	rsb	r1, r4, #24
	rsb	r2, r4, #16
	bic	r1, r1, #7
	mov	r0, r6
	rsb	r2, r1, r2
	str	ip, [fp, #-64]
	str	r2, [fp, #-60]
	add	r4, r1, r4
	bl	BsGet
	ldr	r2, [fp, #-60]
	ldr	ip, [fp, #-64]
	and	r2, r2, #7
	orr	r0, r10, r0, asl r2
	b	.L483
.L583:
	mov	r10, r7
	ldr	r7, [fp, #-68]
	add	r3, r10, #16
	b	.L479
.L582:
	mov	r10, r7
	ldr	r7, [fp, #-68]
	add	r10, r10, #16
	b	.L417
.L581:
	mov	r10, r7
	ldr	r7, [fp, #-68]
	add	r3, r10, #16
	b	.L447
.L567:
	mov	r10, r7
	cmp	r10, #64
	ldr	r7, [fp, #-68]
	ble	.L431
	mov	r1, #128
	mov	r0, r6
	bl	Vp9_Cabac_Read
	add	r0, r0, r10, lsl #1
	sub	r10, r0, #65
.L431:
	add	r10, r10, #64
	b	.L417
.L577:
	mov	r2, r10
	mov	r10, r7
	cmp	r10, #64
	ldr	r7, [fp, #-68]
	bgt	.L584
.L493:
	add	r3, r10, #64
	b	.L479
.L572:
	mov	r2, r10
	mov	r10, r7
	cmp	r10, #64
	ldr	r7, [fp, #-68]
	bgt	.L585
.L461:
	add	r3, r10, #64
	b	.L447
.L424:
	add	r3, r5, r8
	mov	r10, #0
	mov	ip, #4
	str	r7, [fp, #-68]
	ldrb	r1, [r3, #24]	@ zero_extendqisi2
	mov	r7, r10
	mov	r2, #1
	mov	r3, r4, asl r1
	mov	r8, r8, asl r1
	rsb	r9, r1, r9
	str	r8, [r6, #36]
	mov	r4, r8
	str	r3, [r6, #28]
	str	r9, [r6, #32]
	mov	r10, r3
	mov	r8, ip
	b	.L428
.L592:
	.align	2
.L591:
	.word	.LANCHOR0
.L426:
	mov	r1, r4, asl #24
	mov	ip, r2, asl r8
	cmp	r1, r0
	sub	r8, r8, #1
	rsbls	r0, r1, r0
	ldrls	lr, [r6, #36]
	movhi	ip, #0
	orr	r7, r7, ip
	rsbls	r4, r4, lr
	cmn	r8, #1
	add	r1, r5, r4
	ldrb	r1, [r1, #24]	@ zero_extendqisi2
	mov	r10, r0, asl r1
	rsb	r9, r1, r9
	mov	r4, r4, asl r1
	str	r10, [r6, #28]
	str	r9, [r6, #32]
	str	r4, [r6, #36]
	beq	.L586
.L428:
	sub	r4, r4, #1
	cmp	r9, #0
	ubfx	r4, r4, #1, #24
	mov	r0, r10
	add	r4, r4, #1
	bge	.L426
	rsb	r1, r9, #24
	rsb	ip, r9, #16
	bic	r1, r1, #7
	mov	r0, r6
	rsb	ip, r1, ip
	str	r2, [fp, #-64]
	str	ip, [fp, #-60]
	add	r9, r1, r9
	bl	BsGet
	ldr	ip, [fp, #-60]
	ldr	r2, [fp, #-64]
	and	ip, ip, #7
	orr	r0, r10, r0, asl ip
	b	.L426
.L454:
	add	r3, r5, r8
	mov	r10, #0
	mov	ip, #4
	str	r7, [fp, #-68]
	ldrb	r1, [r3, #24]	@ zero_extendqisi2
	mov	r7, r10
	mov	r2, #1
	mov	r3, r4, asl r1
	mov	r8, r8, asl r1
	rsb	r9, r1, r9
	str	r8, [r6, #36]
	mov	r4, r8
	str	r3, [r6, #28]
	str	r9, [r6, #32]
	mov	r10, r3
	mov	r8, ip
	b	.L458
.L456:
	mov	r1, r4, asl #24
	mov	ip, r2, asl r8
	cmp	r1, r0
	sub	r8, r8, #1
	rsbls	r0, r1, r0
	ldrls	lr, [r6, #36]
	movhi	ip, #0
	orr	r7, r7, ip
	rsbls	r4, r4, lr
	cmn	r8, #1
	add	r1, r5, r4
	ldrb	r1, [r1, #24]	@ zero_extendqisi2
	mov	r10, r0, asl r1
	rsb	r9, r1, r9
	mov	r4, r4, asl r1
	str	r10, [r6, #28]
	str	r9, [r6, #32]
	str	r4, [r6, #36]
	beq	.L587
.L458:
	sub	r4, r4, #1
	cmp	r9, #0
	ubfx	r4, r4, #1, #24
	mov	r0, r10
	add	r4, r4, #1
	bge	.L456
	rsb	r1, r9, #24
	rsb	ip, r9, #16
	bic	r1, r1, #7
	mov	r0, r6
	rsb	ip, r1, ip
	str	r2, [fp, #-64]
	str	ip, [fp, #-60]
	add	r9, r1, r9
	bl	BsGet
	ldr	ip, [fp, #-60]
	ldr	r2, [fp, #-64]
	and	ip, ip, #7
	orr	r0, r10, r0, asl ip
	b	.L456
.L486:
	add	r3, r5, r8
	mov	r10, #0
	mov	ip, #4
	str	r7, [fp, #-68]
	ldrb	r1, [r3, #24]	@ zero_extendqisi2
	mov	r7, r10
	mov	r2, #1
	mov	r3, r4, asl r1
	mov	r8, r8, asl r1
	rsb	r9, r1, r9
	str	r8, [r6, #36]
	mov	r4, r8
	str	r3, [r6, #28]
	str	r9, [r6, #32]
	mov	r10, r3
	mov	r8, ip
	b	.L490
.L488:
	mov	r1, r4, asl #24
	mov	ip, r2, asl r8
	cmp	r1, r0
	sub	r8, r8, #1
	rsbls	r0, r1, r0
	ldrls	lr, [r6, #36]
	movhi	ip, #0
	orr	r7, r7, ip
	rsbls	r4, r4, lr
	cmn	r8, #1
	add	r1, r5, r4
	ldrb	r1, [r1, #24]	@ zero_extendqisi2
	mov	r10, r0, asl r1
	rsb	r9, r1, r9
	mov	r4, r4, asl r1
	str	r10, [r6, #28]
	str	r9, [r6, #32]
	str	r4, [r6, #36]
	beq	.L588
.L490:
	sub	r4, r4, #1
	cmp	r9, #0
	ubfx	r4, r4, #1, #24
	mov	r0, r10
	add	r4, r4, #1
	bge	.L488
	rsb	r1, r9, #24
	rsb	ip, r9, #16
	bic	r1, r1, #7
	mov	r0, r6
	rsb	ip, r1, ip
	str	r2, [fp, #-64]
	str	ip, [fp, #-60]
	add	r9, r1, r9
	bl	BsGet
	ldr	ip, [fp, #-60]
	ldr	r2, [fp, #-64]
	and	ip, ip, #7
	orr	r0, r10, r0, asl ip
	b	.L488
.L588:
	mov	r10, r7
	ldr	r7, [fp, #-68]
	add	r3, r10, #32
	b	.L479
.L587:
	mov	r10, r7
	ldr	r7, [fp, #-68]
	add	r3, r10, #32
	b	.L447
.L586:
	mov	r10, r7
	ldr	r7, [fp, #-68]
	add	r10, r10, #32
	b	.L417
.L564:
	rsb	r3, r4, #24
	rsb	r10, r4, #16
	bic	r3, r3, #7
	mov	r0, r6
	rsb	r10, r3, r10
	str	r3, [fp, #-60]
	mov	r1, r3
	and	r10, r10, #7
	bl	BsGet
	ldr	r3, [fp, #-60]
	add	r4, r4, r3
	str	r4, [r6, #32]
	orr	r0, r9, r0, asl r10
	str	r0, [r6, #28]
	mov	r9, r0
	b	.L410
.L569:
	rsb	r3, r4, #24
	rsb	r9, r4, #16
	bic	r3, r3, #7
	mov	r0, r6
	rsb	r9, r3, r9
	str	r3, [fp, #-60]
	mov	r1, r3
	bl	BsGet
	and	r2, r9, #7
	ldr	r3, [fp, #-60]
	add	r4, r4, r3
	str	r4, [r6, #32]
	orr	r0, r10, r0, asl r2
	str	r0, [r6, #28]
	mov	r10, r0
	b	.L440
.L574:
	rsb	r3, r4, #24
	rsb	r9, r4, #16
	bic	r3, r3, #7
	mov	r0, r6
	rsb	r9, r3, r9
	str	r3, [fp, #-60]
	mov	r1, r3
	bl	BsGet
	and	r2, r9, #7
	ldr	r3, [fp, #-60]
	add	r4, r4, r3
	str	r4, [r6, #32]
	orr	r0, r10, r0, asl r2
	str	r0, [r6, #28]
	mov	r10, r0
	b	.L472
.L584:
	sub	r4, r4, #1
	cmp	r9, #0
	ubfx	r4, r4, #1, #24
	mov	r10, r10, asl #1
	add	r4, r4, #1
	sub	r10, r10, #65
	movge	r0, r2
	blt	.L589
.L494:
	mov	r3, r4, asl #24
	cmp	r3, r0
	rsbls	r0, r3, r0
	ldrls	r1, [r6, #36]
	movls	r3, #1
	movhi	r3, #0
	add	r10, r10, r3
	rsbls	r4, r4, r1
	add	r1, r5, r4
	ldrb	r3, [r1, #24]	@ zero_extendqisi2
	mov	r2, r0, asl r3
	rsb	r9, r3, r9
	mov	r4, r4, asl r3
	str	r2, [r6, #28]
	str	r9, [r6, #32]
	str	r4, [r6, #36]
	b	.L493
.L585:
	sub	r4, r4, #1
	cmp	r9, #0
	ubfx	r4, r4, #1, #24
	mov	r10, r10, asl #1
	add	r4, r4, #1
	sub	r10, r10, #65
	movge	r0, r2
	blt	.L590
.L462:
	mov	r3, r4, asl #24
	cmp	r3, r0
	rsbls	r0, r3, r0
	ldrls	r1, [r6, #36]
	movls	r3, #1
	movhi	r3, #0
	add	r10, r10, r3
	rsbls	r4, r4, r1
	add	r1, r5, r4
	ldrb	r3, [r1, #24]	@ zero_extendqisi2
	mov	r2, r0, asl r3
	rsb	r9, r3, r9
	mov	r4, r4, asl r3
	str	r2, [r6, #28]
	str	r9, [r6, #32]
	str	r4, [r6, #36]
	b	.L461
.L570:
	rsb	r3, r4, #24
	rsb	r10, r4, #16
	bic	r3, r3, #7
	mov	r0, r6
	rsb	r10, r3, r10
	str	r3, [fp, #-60]
	mov	r1, r3
	and	r10, r10, #7
	bl	BsGet
	ldr	r3, [fp, #-60]
	add	r4, r4, r3
	str	r4, [r6, #32]
	orr	r0, r9, r0, asl r10
	str	r0, [r6, #28]
	mov	r9, r0
	b	.L443
.L575:
	rsb	r3, r4, #24
	rsb	r10, r4, #16
	bic	r3, r3, #7
	mov	r0, r6
	rsb	r10, r3, r10
	str	r3, [fp, #-60]
	mov	r1, r3
	and	r10, r10, #7
	bl	BsGet
	ldr	r3, [fp, #-60]
	add	r4, r4, r3
	str	r4, [r6, #32]
	orr	r0, r9, r0, asl r10
	str	r0, [r6, #28]
	mov	r9, r0
	b	.L475
.L565:
	rsb	r3, r4, #24
	rsb	r10, r4, #16
	bic	r3, r3, #7
	mov	r0, r6
	rsb	r10, r3, r10
	str	r3, [fp, #-60]
	mov	r1, r3
	and	r10, r10, #7
	bl	BsGet
	ldr	r3, [fp, #-60]
	add	r4, r4, r3
	str	r4, [r6, #32]
	orr	r0, r9, r0, asl r10
	str	r0, [r6, #28]
	mov	r9, r0
	b	.L413
.L566:
	rsb	r2, r9, #24
	rsb	r10, r9, #16
	bic	r2, r2, #7
	mov	r0, r6
	rsb	r10, r2, r10
	str	r2, [fp, #-60]
	mov	r1, r2
	bl	BsGet
	and	r3, r10, #7
	ldr	r2, [fp, #-60]
	add	r9, r9, r2
	str	r9, [r6, #32]
	orr	r0, r4, r0, asl r3
	str	r0, [r6, #28]
	mov	r4, r0
	b	.L420
.L576:
	rsb	r2, r9, #24
	rsb	r10, r9, #16
	bic	r2, r2, #7
	mov	r0, r6
	rsb	r10, r2, r10
	str	r2, [fp, #-60]
	mov	r1, r2
	bl	BsGet
	and	r3, r10, #7
	ldr	r2, [fp, #-60]
	add	r9, r9, r2
	str	r9, [r6, #32]
	orr	r0, r4, r0, asl r3
	str	r0, [r6, #28]
	mov	r4, r0
	b	.L482
.L571:
	rsb	r2, r9, #24
	rsb	r10, r9, #16
	bic	r2, r2, #7
	mov	r0, r6
	rsb	r10, r2, r10
	str	r2, [fp, #-60]
	mov	r1, r2
	bl	BsGet
	and	r3, r10, #7
	ldr	r2, [fp, #-60]
	add	r9, r9, r2
	str	r9, [r6, #32]
	orr	r0, r4, r0, asl r3
	str	r0, [r6, #28]
	mov	r4, r0
	b	.L450
.L590:
	rsb	r1, r9, #24
	rsb	r8, r9, #16
	bic	r1, r1, #7
	mov	r0, r6
	str	r2, [fp, #-60]
	rsb	r8, r1, r8
	add	r9, r1, r9
	bl	BsGet
	ldr	r2, [fp, #-60]
	and	r8, r8, #7
	orr	r0, r2, r0, asl r8
	b	.L462
.L589:
	rsb	r1, r9, #24
	rsb	r8, r9, #16
	bic	r1, r1, #7
	mov	r0, r6
	str	r2, [fp, #-60]
	rsb	r8, r1, r8
	add	r9, r1, r9
	bl	BsGet
	ldr	r2, [fp, #-60]
	and	r8, r8, #7
	orr	r0, r2, r0, asl r8
	b	.L494
.L405:
	ldr	r2, .L591
	add	r2, r2, r4
	ldrb	r2, [r2, #24]	@ zero_extendqisi2
	mov	r3, r3, asl r2
	rsb	r5, r2, ip
	mov	r4, r4, asl r2
	str	r3, [r6, #28]
	str	r5, [r6, #32]
	str	r4, [r6, #36]
	sub	sp, fp, #40
	ldmfd	sp, {r4, r5, r6, r7, r8, r9, r10, fp, sp, pc}
.L403:
	rsb	r8, ip, #24
	ldr	r10, [r1, #28]
	bic	r8, r8, #7
	mov	r0, r1
	rsb	r9, ip, #16
	str	ip, [fp, #-48]
	mov	r1, r8
	rsb	r9, r8, r9
	bl	BsGet
	ldr	ip, [fp, #-48]
	and	r3, r9, #7
	add	r5, ip, r8
	str	r5, [r6, #32]
	mov	ip, r5
	orr	r0, r10, r0, asl r3
	str	r0, [r6, #28]
	mov	r3, r0
	b	.L404
	UNWIND(.fnend)
	.size	Vp9_ReadCoefProbsCommon, .-Vp9_ReadCoefProbsCommon
	.align	2
	.global	Vp9_ReadCoefProbs
	.type	Vp9_ReadCoefProbs, %function
Vp9_ReadCoefProbs:
	UNWIND(.fnstart)
	@ args = 0, pretend = 0, frame = 0
	@ frame_needed = 1, uses_anonymous_args = 0
	UNWIND(.movsp ip)
	mov	ip, sp
	stmfd	sp!, {r4, r5, r6, r7, fp, ip, lr, pc}
	UNWIND(.pad #4)
	UNWIND(.save {r4, r5, r6, r7, fp, ip, lr})
	UNWIND(.setfp fp, ip, #-4)
	sub	fp, ip, #4
	mov	r4, r1
	mov	r1, r2
	mov	r5, r2
	mov	r6, r0
	bl	Vp9_ReadCoefProbsCommon
	cmp	r4, #0
	ldmeqfd	sp, {r4, r5, r6, r7, fp, sp, pc}
	mov	r1, r5
	add	r0, r6, #432
	bl	Vp9_ReadCoefProbsCommon
	cmp	r4, #1
	bls	.L595
	mov	r1, r5
	add	r0, r6, #864
	bl	Vp9_ReadCoefProbsCommon
.L595:
	cmp	r4, #2
	ldmlsfd	sp, {r4, r5, r6, r7, fp, sp, pc}
	mov	r1, r5
	add	r0, r6, #1296
	sub	sp, fp, #28
	ldmfd	sp, {r4, r5, r6, r7, fp, sp, lr}
	b	Vp9_ReadCoefProbsCommon
	UNWIND(.fnend)
	.size	Vp9_ReadCoefProbs, .-Vp9_ReadCoefProbs
	.align	2
	.global	Vp9_ReadInterModeProbs
	.type	Vp9_ReadInterModeProbs, %function
Vp9_ReadInterModeProbs:
	UNWIND(.fnstart)
	@ args = 0, pretend = 0, frame = 16
	@ frame_needed = 1, uses_anonymous_args = 0
	UNWIND(.movsp ip)
	mov	ip, sp
	stmfd	sp!, {r4, r5, r6, r7, r8, r9, r10, fp, ip, lr, pc}
	UNWIND(.pad #4)
	UNWIND(.save {r4, r5, r6, r7, r8, r9, r10, fp, ip, lr})
	UNWIND(.setfp fp, ip, #-4)
	sub	fp, ip, #4
	UNWIND(.pad #20)
	sub	sp, sp, #20
	ldr	r6, .L765
	mov	r7, r0
	mov	r5, r1
	add	r3, r0, #21
	str	r3, [fp, #-48]
.L690:
	ldr	r3, [r5, #36]
	ldr	r4, [r5, #32]
	sub	r3, r3, #1
	cmp	r4, #0
	mov	r2, r3, asl #8
	sub	r3, r2, r3, asl #2
	mov	r3, r3, lsr #8
	add	r8, r3, #1
	blt	.L599
	ldr	r10, [r5, #28]
.L600:
	mov	r9, r8, asl #24
	cmp	r9, r10
	bhi	.L601
	ldr	r3, [r5, #36]
	rsb	r10, r9, r10
	rsb	r3, r8, r3
	add	r2, r6, r3
	ldrb	r9, [r2, #24]	@ zero_extendqisi2
	mov	r3, r3, asl r9
	rsb	r4, r9, r4
	sub	r8, r3, #1
	cmp	r4, #0
	ubfx	r8, r8, #1, #24
	mov	r9, r10, asl r9
	str	r3, [r5, #36]
	add	r8, r8, #1
	str	r4, [r5, #32]
	str	r9, [r5, #28]
	blt	.L742
.L602:
	mov	r10, r8, asl #24
	cmp	r10, r9
	bhi	.L603
	ldr	r2, [r5, #36]
	rsb	r9, r10, r9
	rsb	r8, r8, r2
	add	r3, r6, r8
	ldrb	r0, [r3, #24]	@ zero_extendqisi2
	mov	r2, r8, asl r0
	rsb	r4, r0, r4
	sub	r8, r2, #1
	cmp	r4, #0
	ubfx	r8, r8, #1, #24
	mov	r9, r9, asl r0
	str	r2, [r5, #36]
	add	r8, r8, #1
	str	r4, [r5, #32]
	str	r9, [r5, #28]
	blt	.L743
.L605:
	mov	r3, r8, asl #24
	cmp	r3, r9
	bhi	.L610
	ldr	r1, [r5, #36]
	rsb	r3, r3, r9
	rsb	r8, r8, r1
	add	r2, r6, r8
	ldrb	r2, [r2, #24]	@ zero_extendqisi2
	rsb	r9, r2, r4
	mov	r1, r8, asl r2
	sub	r8, r1, #1
	cmp	r9, #0
	ubfx	r8, r8, #1, #24
	mov	r4, r3, asl r2
	str	r1, [r5, #36]
	add	r8, r8, #1
	str	r9, [r5, #32]
	str	r4, [r5, #28]
	blt	.L744
.L612:
	mov	r2, r8, asl #24
	cmp	r2, r4
	bhi	.L616
	ldr	r1, [r5, #36]
	rsb	r2, r2, r4
	mov	r10, #0
	mov	r3, #6
	rsb	r8, r8, r1
	str	r7, [fp, #-60]
	add	r1, r6, r8
	mov	r7, r10
	mov	ip, #1
	ldrb	r4, [r1, #24]	@ zero_extendqisi2
	mov	r2, r2, asl r4
	rsb	r9, r4, r9
	str	r2, [r5, #28]
	mov	r4, r8, asl r4
	str	r9, [r5, #32]
	mov	r8, r3
	str	r4, [r5, #36]
	mov	r10, r2
	b	.L617
.L621:
	mov	r2, r4, asl #24
	mov	r1, ip, asl r8
	cmp	r2, r0
	sub	r8, r8, #1
	rsbls	r0, r2, r0
	ldrls	lr, [r5, #36]
	movhi	r1, #0
	orr	r7, r7, r1
	rsbls	r4, r4, lr
	cmn	r8, #1
	add	r2, r6, r4
	ldrb	r2, [r2, #24]	@ zero_extendqisi2
	mov	r10, r0, asl r2
	rsb	r9, r2, r9
	mov	r4, r4, asl r2
	str	r10, [r5, #28]
	str	r9, [r5, #32]
	str	r4, [r5, #36]
	beq	.L745
.L617:
	sub	r4, r4, #1
	cmp	r9, #0
	ubfx	r4, r4, #1, #24
	mov	r0, r10
	add	r4, r4, #1
	bge	.L621
	rsb	r1, r9, #24
	rsb	r2, r9, #16
	bic	r1, r1, #7
	mov	r0, r5
	rsb	r2, r1, r2
	str	ip, [fp, #-56]
	str	r2, [fp, #-52]
	add	r9, r1, r9
	bl	BsGet
	ldr	r2, [fp, #-52]
	ldr	ip, [fp, #-56]
	and	r2, r2, #7
	orr	r0, r10, r0, asl r2
	b	.L621
.L601:
	add	r3, r6, r8
	ldrb	r3, [r3, #24]	@ zero_extendqisi2
	mov	r10, r10, asl r3
	rsb	r4, r3, r4
	str	r10, [r5, #28]
	mov	r3, r8, asl r3
	str	r4, [r5, #32]
	str	r3, [r5, #36]
.L691:
	sub	r3, r3, #1
	cmp	r4, #0
	mov	r8, r3, asl #8
	sub	r8, r8, r3, asl #2
	mov	r8, r8, lsr #8
	add	r8, r8, #1
	blt	.L746
.L630:
	mov	r9, r8, asl #24
	cmp	r9, r10
	bhi	.L631
	ldr	r3, [r5, #36]
	rsb	r9, r9, r10
	rsb	r8, r8, r3
	add	r3, r6, r8
	ldrb	r2, [r3, #24]	@ zero_extendqisi2
	mov	r3, r8, asl r2
	rsb	r4, r2, r4
	sub	r8, r3, #1
	cmp	r4, #0
	ubfx	r8, r8, #1, #24
	mov	r9, r9, asl r2
	str	r3, [r5, #36]
	add	r8, r8, #1
	str	r4, [r5, #32]
	str	r9, [r5, #28]
	blt	.L747
.L632:
	mov	r2, r8, asl #24
	cmp	r2, r9
	bhi	.L633
	ldr	ip, [r5, #36]
	rsb	r9, r2, r9
	rsb	r8, r8, ip
	add	r3, r6, r8
	ldrb	r0, [r3, #24]	@ zero_extendqisi2
	mov	ip, r8, asl r0
	rsb	r4, r0, r4
	sub	r8, ip, #1
	cmp	r4, #0
	ubfx	r8, r8, #1, #24
	mov	r9, r9, asl r0
	str	ip, [r5, #36]
	add	r8, r8, #1
	str	r4, [r5, #32]
	str	r9, [r5, #28]
	blt	.L748
.L635:
	mov	r3, r8, asl #24
	cmp	r3, r9
	bhi	.L640
	ldr	r1, [r5, #36]
	rsb	r3, r3, r9
	rsb	r8, r8, r1
	add	r2, r6, r8
	ldrb	ip, [r2, #24]	@ zero_extendqisi2
	rsb	r9, ip, r4
	mov	r1, r8, asl ip
	sub	r8, r1, #1
	cmp	r9, #0
	ubfx	r8, r8, #1, #24
	mov	r4, r3, asl ip
	str	r1, [r5, #36]
	add	r8, r8, #1
	str	r9, [r5, #32]
	str	r4, [r5, #28]
	blt	.L749
.L642:
	mov	r2, r8, asl #24
	cmp	r2, r4
	bhi	.L646
	ldr	r1, [r5, #36]
	rsb	r2, r2, r4
	mov	r10, #0
	mov	r3, #6
	rsb	r8, r8, r1
	str	r7, [fp, #-60]
	add	r1, r6, r8
	mov	r7, r10
	mov	ip, #1
	ldrb	r4, [r1, #24]	@ zero_extendqisi2
	mov	r2, r2, asl r4
	rsb	r9, r4, r9
	str	r2, [r5, #28]
	mov	r4, r8, asl r4
	str	r9, [r5, #32]
	mov	r8, r3
	str	r4, [r5, #36]
	mov	r10, r2
	b	.L647
.L651:
	mov	r2, r4, asl #24
	mov	r1, ip, asl r8
	cmp	r2, r0
	sub	r8, r8, #1
	rsbls	r0, r2, r0
	ldrls	lr, [r5, #36]
	movhi	r1, #0
	orr	r7, r7, r1
	rsbls	r4, r4, lr
	cmn	r8, #1
	add	r2, r6, r4
	ldrb	r2, [r2, #24]	@ zero_extendqisi2
	mov	r10, r0, asl r2
	rsb	r9, r2, r9
	mov	r4, r4, asl r2
	str	r10, [r5, #28]
	str	r9, [r5, #32]
	str	r4, [r5, #36]
	beq	.L750
.L647:
	sub	r4, r4, #1
	cmp	r9, #0
	ubfx	r4, r4, #1, #24
	mov	r0, r10
	add	r4, r4, #1
	bge	.L651
	rsb	r1, r9, #24
	rsb	r2, r9, #16
	bic	r1, r1, #7
	mov	r0, r5
	rsb	r2, r1, r2
	str	ip, [fp, #-56]
	str	r2, [fp, #-52]
	add	r9, r1, r9
	bl	BsGet
	ldr	r2, [fp, #-52]
	ldr	ip, [fp, #-56]
	and	r2, r2, #7
	orr	r0, r10, r0, asl r2
	b	.L651
.L631:
	add	r3, r6, r8
	ldrb	r3, [r3, #24]	@ zero_extendqisi2
	mov	r10, r10, asl r3
	rsb	r4, r3, r4
	mov	r8, r8, asl r3
	str	r10, [r5, #28]
	str	r4, [r5, #32]
	str	r8, [r5, #36]
.L692:
	sub	r8, r8, #1
	cmp	r4, #0
	mov	r3, r8, asl #8
	sub	r8, r3, r8, asl #2
	mov	r8, r8, lsr #8
	add	r8, r8, #1
	blt	.L751
.L660:
	mov	r9, r8, asl #24
	cmp	r9, r10
	bhi	.L661
	ldr	r3, [r5, #36]
	rsb	r9, r9, r10
	rsb	r8, r8, r3
	add	r3, r6, r8
	ldrb	r2, [r3, #24]	@ zero_extendqisi2
	mov	r3, r8, asl r2
	rsb	r4, r2, r4
	sub	r8, r3, #1
	cmp	r4, #0
	ubfx	r8, r8, #1, #24
	mov	r9, r9, asl r2
	str	r3, [r5, #36]
	add	r8, r8, #1
	str	r4, [r5, #32]
	str	r9, [r5, #28]
	blt	.L752
.L662:
	mov	r2, r8, asl #24
	cmp	r2, r9
	bhi	.L663
	ldr	ip, [r5, #36]
	rsb	r9, r2, r9
	rsb	r8, r8, ip
	add	r3, r6, r8
	ldrb	r0, [r3, #24]	@ zero_extendqisi2
	mov	ip, r8, asl r0
	rsb	r4, r0, r4
	sub	r8, ip, #1
	cmp	r4, #0
	ubfx	r8, r8, #1, #24
	mov	r9, r9, asl r0
	str	ip, [r5, #36]
	add	r8, r8, #1
	str	r4, [r5, #32]
	str	r9, [r5, #28]
	blt	.L753
.L665:
	mov	r3, r8, asl #24
	cmp	r3, r9
	bhi	.L670
	ldr	r1, [r5, #36]
	rsb	r3, r3, r9
	rsb	r8, r8, r1
	add	r2, r6, r8
	ldrb	ip, [r2, #24]	@ zero_extendqisi2
	rsb	r9, ip, r4
	mov	r1, r8, asl ip
	sub	r8, r1, #1
	cmp	r9, #0
	ubfx	r8, r8, #1, #24
	mov	r4, r3, asl ip
	str	r1, [r5, #36]
	add	r8, r8, #1
	str	r9, [r5, #32]
	str	r4, [r5, #28]
	blt	.L754
.L672:
	mov	r2, r8, asl #24
	cmp	r2, r4
	bhi	.L676
	ldr	r1, [r5, #36]
	rsb	r2, r2, r4
	mov	r10, #0
	mov	r3, #6
	rsb	r8, r8, r1
	str	r7, [fp, #-60]
	add	r1, r6, r8
	mov	r7, r10
	mov	ip, #1
	ldrb	r4, [r1, #24]	@ zero_extendqisi2
	mov	r2, r2, asl r4
	rsb	r9, r4, r9
	str	r2, [r5, #28]
	mov	r4, r8, asl r4
	str	r9, [r5, #32]
	mov	r8, r3
	str	r4, [r5, #36]
	mov	r10, r2
	b	.L677
.L681:
	mov	r2, r4, asl #24
	mov	r1, ip, asl r8
	cmp	r2, r0
	sub	r8, r8, #1
	rsbls	r0, r2, r0
	ldrls	lr, [r5, #36]
	movhi	r1, #0
	orr	r7, r7, r1
	rsbls	r4, r4, lr
	cmn	r8, #1
	add	r2, r6, r4
	ldrb	r2, [r2, #24]	@ zero_extendqisi2
	mov	r10, r0, asl r2
	rsb	r9, r2, r9
	mov	r4, r4, asl r2
	str	r10, [r5, #28]
	str	r9, [r5, #32]
	str	r4, [r5, #36]
	beq	.L755
.L677:
	sub	r4, r4, #1
	cmp	r9, #0
	ubfx	r4, r4, #1, #24
	mov	r0, r10
	add	r4, r4, #1
	bge	.L681
	rsb	r1, r9, #24
	rsb	r2, r9, #16
	bic	r1, r1, #7
	mov	r0, r5
	rsb	r2, r1, r2
	str	ip, [fp, #-56]
	str	r2, [fp, #-52]
	add	r9, r1, r9
	bl	BsGet
	ldr	r2, [fp, #-52]
	ldr	ip, [fp, #-56]
	and	r2, r2, #7
	orr	r0, r10, r0, asl r2
	b	.L681
.L661:
	add	r3, r6, r8
	ldrb	r3, [r3, #24]	@ zero_extendqisi2
	mov	r10, r10, asl r3
	rsb	r4, r3, r4
	mov	r8, r8, asl r3
	str	r10, [r5, #28]
	str	r4, [r5, #32]
	str	r8, [r5, #36]
.L693:
	ldr	r3, [fp, #-48]
	add	r7, r7, #3
	cmp	r7, r3
	bne	.L690
	sub	sp, fp, #40
	ldmfd	sp, {r4, r5, r6, r7, r8, r9, r10, fp, sp, pc}
.L751:
	rsb	r2, r4, #24
	rsb	r9, r4, #16
	bic	r2, r2, #7
	mov	r0, r5
	rsb	r9, r2, r9
	str	r2, [fp, #-52]
	mov	r1, r2
	bl	BsGet
	and	r3, r9, #7
	ldr	r2, [fp, #-52]
	add	r4, r2, r4
	str	r4, [r5, #32]
	orr	r0, r10, r0, asl r3
	str	r0, [r5, #28]
	mov	r10, r0
	b	.L660
.L746:
	rsb	r2, r4, #24
	rsb	r9, r4, #16
	bic	r2, r2, #7
	mov	r0, r5
	rsb	r9, r2, r9
	str	r2, [fp, #-52]
	mov	r1, r2
	bl	BsGet
	and	r3, r9, #7
	ldr	r2, [fp, #-52]
	add	r4, r2, r4
	str	r4, [r5, #32]
	orr	r0, r10, r0, asl r3
	str	r0, [r5, #28]
	mov	r10, r0
	b	.L630
.L599:
	rsb	r9, r4, #24
	rsb	r3, r4, #16
	bic	r9, r9, #7
	mov	r0, r5
	rsb	r3, r9, r3
	ldr	r10, [r5, #28]
	mov	r1, r9
	str	r3, [fp, #-52]
	bl	BsGet
	ldr	r3, [fp, #-52]
	add	r4, r4, r9
	str	r4, [r5, #32]
	and	r3, r3, #7
	orr	r0, r10, r0, asl r3
	str	r0, [r5, #28]
	mov	r10, r0
	b	.L600
.L603:
	add	r3, r6, r8
	mov	r10, #0
	mov	r2, #3
	str	r7, [fp, #-60]
	ldrb	r1, [r3, #24]	@ zero_extendqisi2
	mov	r7, r10
	mov	ip, #1
	mov	r9, r9, asl r1
	rsb	r4, r1, r4
	str	r9, [r5, #28]
	mov	r8, r8, asl r1
	mov	r10, r9
	str	r4, [r5, #32]
	str	r8, [r5, #36]
	mov	r9, r2
	b	.L608
.L606:
	mov	r2, r8, asl #24
	mov	r1, ip, asl r9
	cmp	r2, r0
	sub	r9, r9, #1
	rsbls	r0, r2, r0
	ldrls	lr, [r5, #36]
	movhi	r1, #0
	orr	r7, r7, r1
	rsbls	r8, r8, lr
	cmn	r9, #1
	add	r2, r6, r8
	ldrb	r2, [r2, #24]	@ zero_extendqisi2
	mov	r10, r0, asl r2
	rsb	r4, r2, r4
	mov	r8, r8, asl r2
	str	r10, [r5, #28]
	str	r4, [r5, #32]
	str	r8, [r5, #36]
	beq	.L756
.L608:
	sub	r8, r8, #1
	cmp	r4, #0
	ubfx	r8, r8, #1, #24
	mov	r0, r10
	add	r8, r8, #1
	bge	.L606
	rsb	r1, r4, #24
	rsb	r2, r4, #16
	bic	r1, r1, #7
	mov	r0, r5
	rsb	r2, r1, r2
	str	ip, [fp, #-56]
	str	r2, [fp, #-52]
	add	r4, r1, r4
	bl	BsGet
	ldr	r2, [fp, #-52]
	ldr	ip, [fp, #-56]
	and	r2, r2, #7
	orr	r0, r10, r0, asl r2
	b	.L606
.L663:
	add	r3, r6, r8
	mov	r10, #0
	mov	r2, #3
	str	r7, [fp, #-60]
	ldrb	r1, [r3, #24]	@ zero_extendqisi2
	mov	r7, r10
	mov	ip, #1
	mov	r9, r9, asl r1
	rsb	r4, r1, r4
	str	r9, [r5, #28]
	mov	r8, r8, asl r1
	mov	r10, r9
	str	r4, [r5, #32]
	str	r8, [r5, #36]
	mov	r9, r2
	b	.L668
.L666:
	mov	r2, r8, asl #24
	mov	r1, ip, asl r9
	cmp	r2, r0
	sub	r9, r9, #1
	rsbls	r0, r2, r0
	ldrls	lr, [r5, #36]
	movhi	r1, #0
	orr	r7, r7, r1
	rsbls	r8, r8, lr
	cmn	r9, #1
	add	r2, r6, r8
	ldrb	r2, [r2, #24]	@ zero_extendqisi2
	mov	r10, r0, asl r2
	rsb	r4, r2, r4
	mov	r8, r8, asl r2
	str	r10, [r5, #28]
	str	r4, [r5, #32]
	str	r8, [r5, #36]
	beq	.L757
.L668:
	sub	r8, r8, #1
	cmp	r4, #0
	ubfx	r8, r8, #1, #24
	mov	r0, r10
	add	r8, r8, #1
	bge	.L666
	rsb	r1, r4, #24
	rsb	r2, r4, #16
	bic	r1, r1, #7
	mov	r0, r5
	rsb	r2, r1, r2
	str	ip, [fp, #-56]
	str	r2, [fp, #-52]
	add	r4, r1, r4
	bl	BsGet
	ldr	r2, [fp, #-52]
	ldr	ip, [fp, #-56]
	and	r2, r2, #7
	orr	r0, r10, r0, asl r2
	b	.L666
.L633:
	add	r3, r6, r8
	mov	r10, #0
	mov	r2, #3
	str	r7, [fp, #-60]
	ldrb	r1, [r3, #24]	@ zero_extendqisi2
	mov	r7, r10
	mov	ip, #1
	mov	r9, r9, asl r1
	rsb	r4, r1, r4
	str	r9, [r5, #28]
	mov	r8, r8, asl r1
	mov	r10, r9
	str	r4, [r5, #32]
	str	r8, [r5, #36]
	mov	r9, r2
	b	.L638
.L636:
	mov	r2, r8, asl #24
	mov	r1, ip, asl r9
	cmp	r2, r0
	sub	r9, r9, #1
	rsbls	r0, r2, r0
	ldrls	lr, [r5, #36]
	movhi	r1, #0
	orr	r7, r7, r1
	rsbls	r8, r8, lr
	cmn	r9, #1
	add	r2, r6, r8
	ldrb	r2, [r2, #24]	@ zero_extendqisi2
	mov	r10, r0, asl r2
	rsb	r4, r2, r4
	mov	r8, r8, asl r2
	str	r10, [r5, #28]
	str	r4, [r5, #32]
	str	r8, [r5, #36]
	beq	.L758
.L638:
	sub	r8, r8, #1
	cmp	r4, #0
	ubfx	r8, r8, #1, #24
	mov	r0, r10
	add	r8, r8, #1
	bge	.L636
	rsb	r1, r4, #24
	rsb	r2, r4, #16
	bic	r1, r1, #7
	mov	r0, r5
	rsb	r2, r1, r2
	str	ip, [fp, #-56]
	str	r2, [fp, #-52]
	add	r4, r1, r4
	bl	BsGet
	ldr	r2, [fp, #-52]
	ldr	ip, [fp, #-56]
	and	r2, r2, #7
	orr	r0, r10, r0, asl r2
	b	.L636
.L758:
	mov	r10, r7
	ldr	r7, [fp, #-60]
.L639:
	ldrb	r2, [r7, #1959]	@ zero_extendqisi2
	add	r10, r6, r10
	sub	ip, r2, #1
	ldrb	r1, [r10, #280]	@ zero_extendqisi2
	mov	r0, ip, asl #1
	cmp	r0, #255
	bgt	.L654
	add	r3, r1, #1
	cmp	r3, r0
	bgt	.L655
	tst	r3, #1
	addne	r3, r1, #2
	addeq	r3, r3, r3, lsr #31
	subne	r3, ip, r3, asr #1
	addeq	r3, ip, r3, asr #1
.L655:
	add	r3, r3, #1
.L657:
	strb	r3, [r7, #1959]
	ldr	r10, [r5, #28]
	ldr	r8, [r5, #36]
	ldr	r4, [r5, #32]
	b	.L692
.L654:
	rsb	r2, r2, #255
	add	r3, r1, #1
	cmp	r3, r2, asl #1
	bgt	.L658
	tst	r3, #1
	addne	r3, r1, #2
	addeq	r3, r3, r3, lsr #31
	subne	r3, r2, r3, asr #1
	addeq	r3, r2, r3, asr #1
.L658:
	rsb	r3, r3, #255
	b	.L657
.L757:
	mov	r10, r7
	ldr	r7, [fp, #-60]
.L669:
	ldrb	r2, [r7, #1960]	@ zero_extendqisi2
	add	r10, r6, r10
	sub	ip, r2, #1
	ldrb	r1, [r10, #280]	@ zero_extendqisi2
	mov	r0, ip, asl #1
	cmp	r0, #255
	bgt	.L684
	add	r3, r1, #1
	cmp	r3, r0
	bgt	.L685
	tst	r3, #1
	addne	r3, r1, #2
	addeq	r3, r3, r3, lsr #31
	subne	r3, ip, r3, asr #1
	addeq	r3, ip, r3, asr #1
.L685:
	add	r3, r3, #1
.L687:
	strb	r3, [r7, #1960]
	b	.L693
.L684:
	rsb	r2, r2, #255
	add	r3, r1, #1
	cmp	r3, r2, asl #1
	bgt	.L688
	tst	r3, #1
	addne	r3, r1, #2
	addeq	r3, r3, r3, lsr #31
	subne	r3, r2, r3, asr #1
	addeq	r3, r2, r3, asr #1
.L688:
	rsb	r3, r3, #255
	b	.L687
.L756:
	mov	r10, r7
	ldr	r7, [fp, #-60]
.L609:
	ldrb	r2, [r7, #1958]	@ zero_extendqisi2
	add	r10, r6, r10
	sub	ip, r2, #1
	ldrb	r1, [r10, #280]	@ zero_extendqisi2
	mov	r0, ip, asl #1
	cmp	r0, #255
	bgt	.L624
	add	r3, r1, #1
	cmp	r3, r0
	bgt	.L625
	tst	r3, #1
	addne	r3, r1, #2
	addeq	r3, r3, r3, lsr #31
	subne	r3, ip, r3, asr #1
	addeq	r3, ip, r3, asr #1
.L625:
	add	r3, r3, #1
.L627:
	strb	r3, [r7, #1958]
	ldr	r10, [r5, #28]
	ldr	r3, [r5, #36]
	ldr	r4, [r5, #32]
	b	.L691
.L624:
	rsb	r2, r2, #255
	add	r3, r1, #1
	cmp	r3, r2, asl #1
	bgt	.L628
	tst	r3, #1
	addne	r3, r1, #2
	addeq	r3, r3, r3, lsr #31
	subne	r3, r2, r3, asr #1
	addeq	r3, r2, r3, asr #1
.L628:
	rsb	r3, r3, #255
	b	.L627
.L616:
	add	r3, r6, r8
	mov	r10, #0
	mov	ip, #4
	str	r7, [fp, #-60]
	ldrb	r1, [r3, #24]	@ zero_extendqisi2
	mov	r7, r10
	mov	r2, #1
	mov	r3, r4, asl r1
	mov	r8, r8, asl r1
	rsb	r9, r1, r9
	str	r8, [r5, #36]
	mov	r4, r8
	str	r3, [r5, #28]
	str	r9, [r5, #32]
	mov	r10, r3
	mov	r8, ip
	b	.L620
.L618:
	mov	r1, r4, asl #24
	mov	ip, r2, asl r8
	cmp	r1, r0
	sub	r8, r8, #1
	rsbls	r0, r1, r0
	ldrls	lr, [r5, #36]
	movhi	ip, #0
	orr	r7, r7, ip
	rsbls	r4, r4, lr
	cmn	r8, #1
	add	r1, r6, r4
	ldrb	r1, [r1, #24]	@ zero_extendqisi2
	mov	r10, r0, asl r1
	rsb	r9, r1, r9
	mov	r4, r4, asl r1
	str	r10, [r5, #28]
	str	r9, [r5, #32]
	str	r4, [r5, #36]
	beq	.L759
.L620:
	sub	r4, r4, #1
	cmp	r9, #0
	ubfx	r4, r4, #1, #24
	mov	r0, r10
	add	r4, r4, #1
	bge	.L618
	rsb	r1, r9, #24
	rsb	ip, r9, #16
	bic	r1, r1, #7
	mov	r0, r5
	rsb	ip, r1, ip
	str	r2, [fp, #-56]
	str	ip, [fp, #-52]
	add	r9, r1, r9
	bl	BsGet
	ldr	ip, [fp, #-52]
	ldr	r2, [fp, #-56]
	and	ip, ip, #7
	orr	r0, r10, r0, asl ip
	b	.L618
.L676:
	add	r3, r6, r8
	mov	r10, #0
	mov	ip, #4
	str	r7, [fp, #-60]
	ldrb	r1, [r3, #24]	@ zero_extendqisi2
	mov	r7, r10
	mov	r2, #1
	mov	r3, r4, asl r1
	mov	r8, r8, asl r1
	rsb	r9, r1, r9
	str	r8, [r5, #36]
	mov	r4, r8
	str	r3, [r5, #28]
	str	r9, [r5, #32]
	mov	r10, r3
	mov	r8, ip
	b	.L680
.L678:
	mov	r1, r4, asl #24
	mov	ip, r2, asl r8
	cmp	r1, r0
	sub	r8, r8, #1
	rsbls	r0, r1, r0
	ldrls	lr, [r5, #36]
	movhi	ip, #0
	orr	r7, r7, ip
	rsbls	r4, r4, lr
	cmn	r8, #1
	add	r1, r6, r4
	ldrb	r1, [r1, #24]	@ zero_extendqisi2
	mov	r10, r0, asl r1
	rsb	r9, r1, r9
	mov	r4, r4, asl r1
	str	r10, [r5, #28]
	str	r9, [r5, #32]
	str	r4, [r5, #36]
	beq	.L760
.L680:
	sub	r4, r4, #1
	cmp	r9, #0
	ubfx	r4, r4, #1, #24
	mov	r0, r10
	add	r4, r4, #1
	bge	.L678
	rsb	r1, r9, #24
	rsb	ip, r9, #16
	bic	r1, r1, #7
	mov	r0, r5
	rsb	ip, r1, ip
	str	r2, [fp, #-56]
	str	ip, [fp, #-52]
	add	r9, r1, r9
	bl	BsGet
	ldr	ip, [fp, #-52]
	ldr	r2, [fp, #-56]
	and	ip, ip, #7
	orr	r0, r10, r0, asl ip
	b	.L678
.L646:
	add	r3, r6, r8
	mov	r10, #0
	mov	ip, #4
	str	r7, [fp, #-60]
	ldrb	r1, [r3, #24]	@ zero_extendqisi2
	mov	r7, r10
	mov	r2, #1
	mov	r3, r4, asl r1
	mov	r8, r8, asl r1
	rsb	r9, r1, r9
	str	r8, [r5, #36]
	mov	r4, r8
	str	r3, [r5, #28]
	str	r9, [r5, #32]
	mov	r10, r3
	mov	r8, ip
	b	.L650
.L648:
	mov	r1, r4, asl #24
	mov	ip, r2, asl r8
	cmp	r1, r0
	sub	r8, r8, #1
	rsbls	r0, r1, r0
	ldrls	lr, [r5, #36]
	movhi	ip, #0
	orr	r7, r7, ip
	rsbls	r4, r4, lr
	cmn	r8, #1
	add	r1, r6, r4
	ldrb	r1, [r1, #24]	@ zero_extendqisi2
	mov	r10, r0, asl r1
	rsb	r9, r1, r9
	mov	r4, r4, asl r1
	str	r10, [r5, #28]
	str	r9, [r5, #32]
	str	r4, [r5, #36]
	beq	.L761
.L650:
	sub	r4, r4, #1
	cmp	r9, #0
	ubfx	r4, r4, #1, #24
	mov	r0, r10
	add	r4, r4, #1
	bge	.L648
	rsb	r1, r9, #24
	rsb	ip, r9, #16
	bic	r1, r1, #7
	mov	r0, r5
	rsb	ip, r1, ip
	str	r2, [fp, #-56]
	str	ip, [fp, #-52]
	add	r9, r1, r9
	bl	BsGet
	ldr	ip, [fp, #-52]
	ldr	r2, [fp, #-56]
	and	ip, ip, #7
	orr	r0, r10, r0, asl ip
	b	.L648
.L670:
	add	r3, r6, r8
	mov	r10, #0
	mov	r2, #3
	str	r7, [fp, #-60]
	ldrb	r1, [r3, #24]	@ zero_extendqisi2
	mov	r7, r10
	mov	ip, #1
	mov	r9, r9, asl r1
	rsb	r4, r1, r4
	str	r9, [r5, #28]
	mov	r8, r8, asl r1
	mov	r10, r9
	str	r4, [r5, #32]
	str	r8, [r5, #36]
	mov	r9, r2
	b	.L675
.L673:
	mov	r2, r8, asl #24
	mov	r1, ip, asl r9
	cmp	r2, r0
	sub	r9, r9, #1
	rsbls	r0, r2, r0
	ldrls	lr, [r5, #36]
	movhi	r1, #0
	orr	r7, r7, r1
	rsbls	r8, r8, lr
	cmn	r9, #1
	add	r2, r6, r8
	ldrb	r2, [r2, #24]	@ zero_extendqisi2
	mov	r10, r0, asl r2
	rsb	r4, r2, r4
	mov	r8, r8, asl r2
	str	r10, [r5, #28]
	str	r4, [r5, #32]
	str	r8, [r5, #36]
	beq	.L762
.L675:
	sub	r8, r8, #1
	cmp	r4, #0
	ubfx	r8, r8, #1, #24
	mov	r0, r10
	add	r8, r8, #1
	bge	.L673
	rsb	r1, r4, #24
	rsb	r2, r4, #16
	bic	r1, r1, #7
	mov	r0, r5
	rsb	r2, r1, r2
	str	ip, [fp, #-56]
	str	r2, [fp, #-52]
	add	r4, r1, r4
	bl	BsGet
	ldr	r2, [fp, #-52]
	ldr	ip, [fp, #-56]
	and	r2, r2, #7
	orr	r0, r10, r0, asl r2
	b	.L673
.L640:
	add	r3, r6, r8
	mov	r10, #0
	mov	r2, #3
	str	r7, [fp, #-60]
	ldrb	r1, [r3, #24]	@ zero_extendqisi2
	mov	r7, r10
	mov	ip, #1
	mov	r9, r9, asl r1
	rsb	r4, r1, r4
	str	r9, [r5, #28]
	mov	r8, r8, asl r1
	mov	r10, r9
	str	r4, [r5, #32]
	str	r8, [r5, #36]
	mov	r9, r2
	b	.L645
.L643:
	mov	r2, r8, asl #24
	mov	r1, ip, asl r9
	cmp	r2, r0
	sub	r9, r9, #1
	rsbls	r0, r2, r0
	ldrls	lr, [r5, #36]
	movhi	r1, #0
	orr	r7, r7, r1
	rsbls	r8, r8, lr
	cmn	r9, #1
	add	r2, r6, r8
	ldrb	r2, [r2, #24]	@ zero_extendqisi2
	mov	r10, r0, asl r2
	rsb	r4, r2, r4
	mov	r8, r8, asl r2
	str	r10, [r5, #28]
	str	r4, [r5, #32]
	str	r8, [r5, #36]
	beq	.L763
.L645:
	sub	r8, r8, #1
	cmp	r4, #0
	ubfx	r8, r8, #1, #24
	mov	r0, r10
	add	r8, r8, #1
	bge	.L643
	rsb	r1, r4, #24
	rsb	r2, r4, #16
	bic	r1, r1, #7
	mov	r0, r5
	rsb	r2, r1, r2
	str	ip, [fp, #-56]
	str	r2, [fp, #-52]
	add	r4, r1, r4
	bl	BsGet
	ldr	r2, [fp, #-52]
	ldr	ip, [fp, #-56]
	and	r2, r2, #7
	orr	r0, r10, r0, asl r2
	b	.L643
.L610:
	add	r3, r6, r8
	mov	r10, #0
	mov	r2, #3
	str	r7, [fp, #-60]
	ldrb	r1, [r3, #24]	@ zero_extendqisi2
	mov	r7, r10
	mov	ip, #1
	mov	r9, r9, asl r1
	rsb	r4, r1, r4
	str	r9, [r5, #28]
	mov	r8, r8, asl r1
	mov	r10, r9
	str	r4, [r5, #32]
	str	r8, [r5, #36]
	mov	r9, r2
	b	.L615
.L766:
	.align	2
.L765:
	.word	.LANCHOR0
.L613:
	mov	r2, r8, asl #24
	mov	r1, ip, asl r9
	cmp	r2, r0
	sub	r9, r9, #1
	rsbls	r0, r2, r0
	ldrls	lr, [r5, #36]
	movhi	r1, #0
	orr	r7, r7, r1
	rsbls	r8, r8, lr
	cmn	r9, #1
	add	r2, r6, r8
	ldrb	r2, [r2, #24]	@ zero_extendqisi2
	mov	r10, r0, asl r2
	rsb	r4, r2, r4
	mov	r8, r8, asl r2
	str	r10, [r5, #28]
	str	r4, [r5, #32]
	str	r8, [r5, #36]
	beq	.L764
.L615:
	sub	r8, r8, #1
	cmp	r4, #0
	ubfx	r8, r8, #1, #24
	mov	r0, r10
	add	r8, r8, #1
	bge	.L613
	rsb	r1, r4, #24
	rsb	r2, r4, #16
	bic	r1, r1, #7
	mov	r0, r5
	rsb	r2, r1, r2
	str	ip, [fp, #-56]
	str	r2, [fp, #-52]
	add	r4, r1, r4
	bl	BsGet
	ldr	r2, [fp, #-52]
	ldr	ip, [fp, #-56]
	and	r2, r2, #7
	orr	r0, r10, r0, asl r2
	b	.L613
.L764:
	mov	r10, r7
	ldr	r7, [fp, #-60]
	add	r10, r10, #16
	b	.L609
.L763:
	mov	r10, r7
	ldr	r7, [fp, #-60]
	add	r10, r10, #16
	b	.L639
.L762:
	mov	r10, r7
	ldr	r7, [fp, #-60]
	add	r10, r10, #16
	b	.L669
.L755:
	mov	r10, r7
	cmp	r10, #64
	ldr	r7, [fp, #-60]
	ble	.L683
	mov	r1, #128
	mov	r0, r5
	bl	Vp9_Cabac_Read
	add	r0, r0, r10, lsl #1
	sub	r10, r0, #65
.L683:
	add	r10, r10, #64
	b	.L669
.L745:
	mov	r10, r7
	cmp	r10, #64
	ldr	r7, [fp, #-60]
	ble	.L623
	mov	r1, #128
	mov	r0, r5
	bl	Vp9_Cabac_Read
	add	r0, r0, r10, lsl #1
	sub	r10, r0, #65
.L623:
	add	r10, r10, #64
	b	.L609
.L750:
	mov	r10, r7
	cmp	r10, #64
	ldr	r7, [fp, #-60]
	ble	.L653
	mov	r1, #128
	mov	r0, r5
	bl	Vp9_Cabac_Read
	add	r0, r0, r10, lsl #1
	sub	r10, r0, #65
.L653:
	add	r10, r10, #64
	b	.L639
.L761:
	mov	r10, r7
	ldr	r7, [fp, #-60]
	add	r10, r10, #32
	b	.L639
.L760:
	mov	r10, r7
	ldr	r7, [fp, #-60]
	add	r10, r10, #32
	b	.L669
.L759:
	mov	r10, r7
	ldr	r7, [fp, #-60]
	add	r10, r10, #32
	b	.L609
.L747:
	rsb	r3, r4, #24
	rsb	r10, r4, #16
	bic	r3, r3, #7
	mov	r0, r5
	rsb	r10, r3, r10
	str	r3, [fp, #-52]
	mov	r1, r3
	and	r10, r10, #7
	bl	BsGet
	ldr	r3, [fp, #-52]
	add	r4, r4, r3
	str	r4, [r5, #32]
	orr	r0, r9, r0, asl r10
	str	r0, [r5, #28]
	mov	r9, r0
	b	.L632
.L752:
	rsb	r3, r4, #24
	rsb	r10, r4, #16
	bic	r3, r3, #7
	mov	r0, r5
	rsb	r10, r3, r10
	str	r3, [fp, #-52]
	mov	r1, r3
	and	r10, r10, #7
	bl	BsGet
	ldr	r3, [fp, #-52]
	add	r4, r4, r3
	str	r4, [r5, #32]
	orr	r0, r9, r0, asl r10
	str	r0, [r5, #28]
	mov	r9, r0
	b	.L662
.L742:
	rsb	r3, r4, #24
	rsb	r10, r4, #16
	bic	r3, r3, #7
	mov	r0, r5
	rsb	r10, r3, r10
	str	r3, [fp, #-52]
	mov	r1, r3
	and	r10, r10, #7
	bl	BsGet
	ldr	r3, [fp, #-52]
	add	r4, r4, r3
	str	r4, [r5, #32]
	orr	r0, r9, r0, asl r10
	str	r0, [r5, #28]
	mov	r9, r0
	b	.L602
.L743:
	rsb	r3, r4, #24
	rsb	r10, r4, #16
	bic	r3, r3, #7
	mov	r0, r5
	rsb	r10, r3, r10
	str	r3, [fp, #-52]
	mov	r1, r3
	and	r10, r10, #7
	bl	BsGet
	ldr	r3, [fp, #-52]
	add	r4, r4, r3
	str	r4, [r5, #32]
	orr	r0, r9, r0, asl r10
	str	r0, [r5, #28]
	mov	r9, r0
	b	.L605
.L753:
	rsb	r3, r4, #24
	rsb	r10, r4, #16
	bic	r3, r3, #7
	mov	r0, r5
	rsb	r10, r3, r10
	str	r3, [fp, #-52]
	mov	r1, r3
	and	r10, r10, #7
	bl	BsGet
	ldr	r3, [fp, #-52]
	add	r4, r4, r3
	str	r4, [r5, #32]
	orr	r0, r9, r0, asl r10
	str	r0, [r5, #28]
	mov	r9, r0
	b	.L665
.L748:
	rsb	r3, r4, #24
	rsb	r10, r4, #16
	bic	r3, r3, #7
	mov	r0, r5
	rsb	r10, r3, r10
	str	r3, [fp, #-52]
	mov	r1, r3
	and	r10, r10, #7
	bl	BsGet
	ldr	r3, [fp, #-52]
	add	r4, r4, r3
	str	r4, [r5, #32]
	orr	r0, r9, r0, asl r10
	str	r0, [r5, #28]
	mov	r9, r0
	b	.L635
.L749:
	rsb	r2, r9, #24
	rsb	r10, r9, #16
	bic	r2, r2, #7
	mov	r0, r5
	rsb	r10, r2, r10
	str	r2, [fp, #-52]
	mov	r1, r2
	bl	BsGet
	and	r3, r10, #7
	ldr	r2, [fp, #-52]
	add	r9, r9, r2
	str	r9, [r5, #32]
	orr	r0, r4, r0, asl r3
	str	r0, [r5, #28]
	mov	r4, r0
	b	.L642
.L744:
	rsb	r2, r9, #24
	rsb	r10, r9, #16
	bic	r2, r2, #7
	mov	r0, r5
	rsb	r10, r2, r10
	str	r2, [fp, #-52]
	mov	r1, r2
	bl	BsGet
	and	r3, r10, #7
	ldr	r2, [fp, #-52]
	add	r9, r9, r2
	str	r9, [r5, #32]
	orr	r0, r4, r0, asl r3
	str	r0, [r5, #28]
	mov	r4, r0
	b	.L612
.L754:
	rsb	r2, r9, #24
	rsb	r10, r9, #16
	bic	r2, r2, #7
	mov	r0, r5
	rsb	r10, r2, r10
	str	r2, [fp, #-52]
	mov	r1, r2
	bl	BsGet
	and	r3, r10, #7
	ldr	r2, [fp, #-52]
	add	r9, r9, r2
	str	r9, [r5, #32]
	orr	r0, r4, r0, asl r3
	str	r0, [r5, #28]
	mov	r4, r0
	b	.L672
	UNWIND(.fnend)
	.size	Vp9_ReadInterModeProbs, .-Vp9_ReadInterModeProbs
	.align	2
	.global	Vp9_ReadSwitchableInterpProbs
	.type	Vp9_ReadSwitchableInterpProbs, %function
Vp9_ReadSwitchableInterpProbs:
	UNWIND(.fnstart)
	@ args = 0, pretend = 0, frame = 16
	@ frame_needed = 1, uses_anonymous_args = 0
	UNWIND(.movsp ip)
	mov	ip, sp
	stmfd	sp!, {r4, r5, r6, r7, r8, r9, r10, fp, ip, lr, pc}
	UNWIND(.pad #4)
	UNWIND(.save {r4, r5, r6, r7, r8, r9, r10, fp, ip, lr})
	UNWIND(.setfp fp, ip, #-4)
	sub	fp, ip, #4
	UNWIND(.pad #20)
	sub	sp, sp, #20
	ldr	r6, .L882
	mov	r7, r0
	mov	r5, r1
	add	r3, r0, #8
	str	r3, [fp, #-48]
.L829:
	ldr	r8, [r5, #36]
	ldr	r4, [r5, #32]
	sub	r8, r8, #1
	cmp	r4, #0
	mov	r3, r8, asl #8
	sub	r8, r3, r8, asl #2
	mov	r8, r8, lsr #8
	add	r8, r8, #1
	blt	.L768
	ldr	r0, [r5, #28]
.L769:
	mov	r10, r8, asl #24
	cmp	r10, r0
	bhi	.L770
	ldr	r3, [r5, #36]
	rsb	r0, r10, r0
	rsb	r8, r8, r3
	add	r3, r6, r8
	ldrb	r9, [r3, #24]	@ zero_extendqisi2
	mov	r3, r8, asl r9
	rsb	r4, r9, r4
	sub	r8, r3, #1
	cmp	r4, #0
	ubfx	r8, r8, #1, #24
	mov	r9, r0, asl r9
	str	r3, [r5, #36]
	add	r8, r8, #1
	str	r4, [r5, #32]
	str	r9, [r5, #28]
	blt	.L865
.L771:
	mov	r0, r8, asl #24
	cmp	r0, r9
	bhi	.L772
	ldr	r2, [r5, #36]
	rsb	r9, r0, r9
	rsb	r8, r8, r2
	add	r3, r6, r8
	ldrb	r0, [r3, #24]	@ zero_extendqisi2
	mov	r2, r8, asl r0
	rsb	r4, r0, r4
	sub	r8, r2, #1
	cmp	r4, #0
	ubfx	r8, r8, #1, #24
	mov	r9, r9, asl r0
	str	r2, [r5, #36]
	add	r8, r8, #1
	str	r4, [r5, #32]
	str	r9, [r5, #28]
	blt	.L866
.L774:
	mov	r3, r8, asl #24
	cmp	r3, r9
	bhi	.L779
	ldr	r1, [r5, #36]
	rsb	r3, r3, r9
	rsb	r8, r8, r1
	add	r2, r6, r8
	ldrb	r2, [r2, #24]	@ zero_extendqisi2
	rsb	r9, r2, r4
	mov	r1, r8, asl r2
	sub	r8, r1, #1
	cmp	r9, #0
	ubfx	r8, r8, #1, #24
	mov	r4, r3, asl r2
	str	r1, [r5, #36]
	add	r8, r8, #1
	str	r9, [r5, #32]
	str	r4, [r5, #28]
	blt	.L867
.L781:
	mov	r2, r8, asl #24
	cmp	r2, r4
	bhi	.L785
	ldr	r1, [r5, #36]
	rsb	r2, r2, r4
	mov	r10, #0
	mov	r3, #6
	rsb	r8, r8, r1
	str	r7, [fp, #-60]
	add	r1, r6, r8
	mov	r7, r10
	mov	ip, #1
	ldrb	r4, [r1, #24]	@ zero_extendqisi2
	mov	r2, r2, asl r4
	rsb	r9, r4, r9
	str	r2, [r5, #28]
	mov	r4, r8, asl r4
	str	r9, [r5, #32]
	mov	r8, r3
	str	r4, [r5, #36]
	mov	r10, r2
	b	.L786
.L790:
	mov	r2, r4, asl #24
	mov	r1, ip, asl r8
	cmp	r2, r0
	sub	r8, r8, #1
	rsbls	r0, r2, r0
	ldrls	lr, [r5, #36]
	movhi	r1, #0
	orr	r7, r7, r1
	rsbls	r4, r4, lr
	cmn	r8, #1
	add	r2, r6, r4
	ldrb	r2, [r2, #24]	@ zero_extendqisi2
	mov	r10, r0, asl r2
	rsb	r9, r2, r9
	mov	r4, r4, asl r2
	str	r10, [r5, #28]
	str	r9, [r5, #32]
	str	r4, [r5, #36]
	beq	.L868
.L786:
	sub	r4, r4, #1
	cmp	r9, #0
	ubfx	r4, r4, #1, #24
	mov	r0, r10
	add	r4, r4, #1
	bge	.L790
	rsb	r1, r9, #24
	rsb	r2, r9, #16
	bic	r1, r1, #7
	mov	r0, r5
	rsb	r2, r1, r2
	str	ip, [fp, #-56]
	str	r2, [fp, #-52]
	add	r9, r1, r9
	bl	BsGet
	ldr	r2, [fp, #-52]
	ldr	ip, [fp, #-56]
	and	r2, r2, #7
	orr	r0, r10, r0, asl r2
	b	.L790
.L770:
	add	r3, r6, r8
	ldrb	r3, [r3, #24]	@ zero_extendqisi2
	mov	r10, r0, asl r3
	rsb	r4, r3, r4
	mov	r8, r8, asl r3
	str	r10, [r5, #28]
	str	r4, [r5, #32]
	str	r8, [r5, #36]
.L830:
	sub	r8, r8, #1
	cmp	r4, #0
	mov	r3, r8, asl #8
	sub	r8, r3, r8, asl #2
	mov	r8, r8, lsr #8
	add	r8, r8, #1
	blt	.L869
.L799:
	mov	r9, r8, asl #24
	cmp	r9, r10
	bhi	.L800
	ldr	r3, [r5, #36]
	rsb	r9, r9, r10
	rsb	r8, r8, r3
	add	r3, r6, r8
	ldrb	r2, [r3, #24]	@ zero_extendqisi2
	mov	r3, r8, asl r2
	rsb	r4, r2, r4
	sub	r8, r3, #1
	cmp	r4, #0
	ubfx	r8, r8, #1, #24
	mov	r9, r9, asl r2
	str	r3, [r5, #36]
	add	r8, r8, #1
	str	r4, [r5, #32]
	str	r9, [r5, #28]
	blt	.L870
.L801:
	mov	r2, r8, asl #24
	cmp	r2, r9
	bhi	.L802
	ldr	ip, [r5, #36]
	rsb	r9, r2, r9
	rsb	r8, r8, ip
	add	r3, r6, r8
	ldrb	r0, [r3, #24]	@ zero_extendqisi2
	mov	ip, r8, asl r0
	rsb	r4, r0, r4
	sub	r8, ip, #1
	cmp	r4, #0
	ubfx	r8, r8, #1, #24
	mov	r9, r9, asl r0
	str	ip, [r5, #36]
	add	r8, r8, #1
	str	r4, [r5, #32]
	str	r9, [r5, #28]
	blt	.L871
.L804:
	mov	r3, r8, asl #24
	cmp	r3, r9
	bhi	.L809
	ldr	r1, [r5, #36]
	rsb	r3, r3, r9
	rsb	r8, r8, r1
	add	r2, r6, r8
	ldrb	ip, [r2, #24]	@ zero_extendqisi2
	rsb	r9, ip, r4
	mov	r1, r8, asl ip
	sub	r8, r1, #1
	cmp	r9, #0
	ubfx	r8, r8, #1, #24
	mov	r4, r3, asl ip
	str	r1, [r5, #36]
	add	r8, r8, #1
	str	r9, [r5, #32]
	str	r4, [r5, #28]
	blt	.L872
.L811:
	mov	r2, r8, asl #24
	cmp	r2, r4
	bhi	.L815
	ldr	r1, [r5, #36]
	rsb	r2, r2, r4
	mov	r10, #0
	mov	r3, #6
	rsb	r8, r8, r1
	str	r7, [fp, #-60]
	add	r1, r6, r8
	mov	r7, r10
	mov	ip, #1
	ldrb	r4, [r1, #24]	@ zero_extendqisi2
	mov	r2, r2, asl r4
	rsb	r9, r4, r9
	str	r2, [r5, #28]
	mov	r4, r8, asl r4
	str	r9, [r5, #32]
	mov	r8, r3
	str	r4, [r5, #36]
	mov	r10, r2
	b	.L816
.L820:
	mov	r2, r4, asl #24
	mov	r1, ip, asl r8
	cmp	r2, r0
	sub	r8, r8, #1
	rsbls	r0, r2, r0
	ldrls	lr, [r5, #36]
	movhi	r1, #0
	orr	r7, r7, r1
	rsbls	r4, r4, lr
	cmn	r8, #1
	add	r2, r6, r4
	ldrb	r2, [r2, #24]	@ zero_extendqisi2
	mov	r10, r0, asl r2
	rsb	r9, r2, r9
	mov	r4, r4, asl r2
	str	r10, [r5, #28]
	str	r9, [r5, #32]
	str	r4, [r5, #36]
	beq	.L873
.L816:
	sub	r4, r4, #1
	cmp	r9, #0
	ubfx	r4, r4, #1, #24
	mov	r0, r10
	add	r4, r4, #1
	bge	.L820
	rsb	r1, r9, #24
	rsb	r2, r9, #16
	bic	r1, r1, #7
	mov	r0, r5
	rsb	r2, r1, r2
	str	ip, [fp, #-56]
	str	r2, [fp, #-52]
	add	r9, r1, r9
	bl	BsGet
	ldr	r2, [fp, #-52]
	ldr	ip, [fp, #-56]
	and	r2, r2, #7
	orr	r0, r10, r0, asl r2
	b	.L820
.L800:
	add	r3, r6, r8
	ldrb	r3, [r3, #24]	@ zero_extendqisi2
	mov	r10, r10, asl r3
	rsb	r4, r3, r4
	mov	r8, r8, asl r3
	str	r10, [r5, #28]
	str	r4, [r5, #32]
	str	r8, [r5, #36]
.L831:
	ldr	r3, [fp, #-48]
	add	r7, r7, #2
	cmp	r7, r3
	bne	.L829
	sub	sp, fp, #40
	ldmfd	sp, {r4, r5, r6, r7, r8, r9, r10, fp, sp, pc}
.L869:
	rsb	r2, r4, #24
	rsb	r9, r4, #16
	bic	r2, r2, #7
	mov	r0, r5
	rsb	r9, r2, r9
	str	r2, [fp, #-52]
	mov	r1, r2
	bl	BsGet
	and	r3, r9, #7
	ldr	r2, [fp, #-52]
	add	r4, r2, r4
	str	r4, [r5, #32]
	orr	r0, r10, r0, asl r3
	str	r0, [r5, #28]
	mov	r10, r0
	b	.L799
.L768:
	rsb	r9, r4, #24
	rsb	r3, r4, #16
	bic	r9, r9, #7
	mov	r0, r5
	rsb	r3, r9, r3
	ldr	r10, [r5, #28]
	mov	r1, r9
	str	r3, [fp, #-52]
	bl	BsGet
	ldr	r3, [fp, #-52]
	add	r4, r4, r9
	str	r4, [r5, #32]
	and	r3, r3, #7
	orr	r0, r10, r0, asl r3
	str	r0, [r5, #28]
	b	.L769
.L779:
	add	r3, r6, r8
	mov	r10, #0
	mov	r2, #3
	str	r7, [fp, #-60]
	ldrb	r1, [r3, #24]	@ zero_extendqisi2
	mov	r7, r10
	mov	ip, #1
	mov	r9, r9, asl r1
	rsb	r4, r1, r4
	str	r9, [r5, #28]
	mov	r8, r8, asl r1
	mov	r10, r9
	str	r4, [r5, #32]
	str	r8, [r5, #36]
	mov	r9, r2
	b	.L784
.L782:
	mov	r2, r8, asl #24
	mov	r1, ip, asl r9
	cmp	r2, r0
	sub	r9, r9, #1
	rsbls	r0, r2, r0
	ldrls	lr, [r5, #36]
	movhi	r1, #0
	orr	r7, r7, r1
	rsbls	r8, r8, lr
	cmn	r9, #1
	add	r2, r6, r8
	ldrb	r2, [r2, #24]	@ zero_extendqisi2
	mov	r10, r0, asl r2
	rsb	r4, r2, r4
	mov	r8, r8, asl r2
	str	r10, [r5, #28]
	str	r4, [r5, #32]
	str	r8, [r5, #36]
	beq	.L874
.L784:
	sub	r8, r8, #1
	cmp	r4, #0
	ubfx	r8, r8, #1, #24
	mov	r0, r10
	add	r8, r8, #1
	bge	.L782
	rsb	r1, r4, #24
	rsb	r2, r4, #16
	bic	r1, r1, #7
	mov	r0, r5
	rsb	r2, r1, r2
	str	ip, [fp, #-56]
	str	r2, [fp, #-52]
	add	r4, r1, r4
	bl	BsGet
	ldr	r2, [fp, #-52]
	ldr	ip, [fp, #-56]
	and	r2, r2, #7
	orr	r0, r10, r0, asl r2
	b	.L782
.L809:
	add	r3, r6, r8
	mov	r10, #0
	mov	r2, #3
	str	r7, [fp, #-60]
	ldrb	r1, [r3, #24]	@ zero_extendqisi2
	mov	r7, r10
	mov	ip, #1
	mov	r9, r9, asl r1
	rsb	r4, r1, r4
	str	r9, [r5, #28]
	mov	r8, r8, asl r1
	mov	r10, r9
	str	r4, [r5, #32]
	str	r8, [r5, #36]
	mov	r9, r2
	b	.L814
.L812:
	mov	r2, r8, asl #24
	mov	r1, ip, asl r9
	cmp	r2, r0
	sub	r9, r9, #1
	rsbls	r0, r2, r0
	ldrls	lr, [r5, #36]
	movhi	r1, #0
	orr	r7, r7, r1
	rsbls	r8, r8, lr
	cmn	r9, #1
	add	r2, r6, r8
	ldrb	r2, [r2, #24]	@ zero_extendqisi2
	mov	r10, r0, asl r2
	rsb	r4, r2, r4
	mov	r8, r8, asl r2
	str	r10, [r5, #28]
	str	r4, [r5, #32]
	str	r8, [r5, #36]
	beq	.L875
.L814:
	sub	r8, r8, #1
	cmp	r4, #0
	ubfx	r8, r8, #1, #24
	mov	r0, r10
	add	r8, r8, #1
	bge	.L812
	rsb	r1, r4, #24
	rsb	r2, r4, #16
	bic	r1, r1, #7
	mov	r0, r5
	rsb	r2, r1, r2
	str	ip, [fp, #-56]
	str	r2, [fp, #-52]
	add	r4, r1, r4
	bl	BsGet
	ldr	r2, [fp, #-52]
	ldr	ip, [fp, #-56]
	and	r2, r2, #7
	orr	r0, r10, r0, asl r2
	b	.L812
.L772:
	add	r3, r6, r8
	mov	r10, #0
	mov	r2, #3
	str	r7, [fp, #-60]
	ldrb	r1, [r3, #24]	@ zero_extendqisi2
	mov	r7, r10
	mov	ip, #1
	mov	r9, r9, asl r1
	rsb	r4, r1, r4
	str	r9, [r5, #28]
	mov	r8, r8, asl r1
	mov	r10, r9
	str	r4, [r5, #32]
	str	r8, [r5, #36]
	mov	r9, r2
	b	.L777
.L775:
	mov	r2, r8, asl #24
	mov	r1, ip, asl r9
	cmp	r2, r0
	sub	r9, r9, #1
	rsbls	r0, r2, r0
	ldrls	lr, [r5, #36]
	movhi	r1, #0
	orr	r7, r7, r1
	rsbls	r8, r8, lr
	cmn	r9, #1
	add	r2, r6, r8
	ldrb	r2, [r2, #24]	@ zero_extendqisi2
	mov	r10, r0, asl r2
	rsb	r4, r2, r4
	mov	r8, r8, asl r2
	str	r10, [r5, #28]
	str	r4, [r5, #32]
	str	r8, [r5, #36]
	beq	.L876
.L777:
	sub	r8, r8, #1
	cmp	r4, #0
	ubfx	r8, r8, #1, #24
	mov	r0, r10
	add	r8, r8, #1
	bge	.L775
	rsb	r1, r4, #24
	rsb	r2, r4, #16
	bic	r1, r1, #7
	mov	r0, r5
	rsb	r2, r1, r2
	str	ip, [fp, #-56]
	str	r2, [fp, #-52]
	add	r4, r1, r4
	bl	BsGet
	ldr	r2, [fp, #-52]
	ldr	ip, [fp, #-56]
	and	r2, r2, #7
	orr	r0, r10, r0, asl r2
	b	.L775
.L802:
	add	r3, r6, r8
	mov	r10, #0
	mov	r2, #3
	str	r7, [fp, #-60]
	ldrb	r1, [r3, #24]	@ zero_extendqisi2
	mov	r7, r10
	mov	ip, #1
	mov	r9, r9, asl r1
	rsb	r4, r1, r4
	str	r9, [r5, #28]
	mov	r8, r8, asl r1
	mov	r10, r9
	str	r4, [r5, #32]
	str	r8, [r5, #36]
	mov	r9, r2
	b	.L807
.L805:
	mov	r2, r8, asl #24
	mov	r1, ip, asl r9
	cmp	r2, r0
	sub	r9, r9, #1
	rsbls	r0, r2, r0
	ldrls	lr, [r5, #36]
	movhi	r1, #0
	orr	r7, r7, r1
	rsbls	r8, r8, lr
	cmn	r9, #1
	add	r2, r6, r8
	ldrb	r2, [r2, #24]	@ zero_extendqisi2
	mov	r10, r0, asl r2
	rsb	r4, r2, r4
	mov	r8, r8, asl r2
	str	r10, [r5, #28]
	str	r4, [r5, #32]
	str	r8, [r5, #36]
	beq	.L877
.L807:
	sub	r8, r8, #1
	cmp	r4, #0
	ubfx	r8, r8, #1, #24
	mov	r0, r10
	add	r8, r8, #1
	bge	.L805
	rsb	r1, r4, #24
	rsb	r2, r4, #16
	bic	r1, r1, #7
	mov	r0, r5
	rsb	r2, r1, r2
	str	ip, [fp, #-56]
	str	r2, [fp, #-52]
	add	r4, r1, r4
	bl	BsGet
	ldr	r2, [fp, #-52]
	ldr	ip, [fp, #-56]
	and	r2, r2, #7
	orr	r0, r10, r0, asl r2
	b	.L805
.L877:
	mov	r10, r7
	ldr	r7, [fp, #-60]
.L808:
	ldrb	r2, [r7, #1951]	@ zero_extendqisi2
	add	r10, r6, r10
	sub	ip, r2, #1
	ldrb	r1, [r10, #280]	@ zero_extendqisi2
	mov	r0, ip, asl #1
	cmp	r0, #255
	bgt	.L823
	add	r3, r1, #1
	cmp	r3, r0
	bgt	.L824
	tst	r3, #1
	addne	r3, r1, #2
	addeq	r3, r3, r3, lsr #31
	subne	r3, ip, r3, asr #1
	addeq	r3, ip, r3, asr #1
.L824:
	add	r3, r3, #1
.L826:
	strb	r3, [r7, #1951]
	b	.L831
.L823:
	rsb	r2, r2, #255
	add	r3, r1, #1
	cmp	r3, r2, asl #1
	bgt	.L827
	tst	r3, #1
	addne	r3, r1, #2
	addeq	r3, r3, r3, lsr #31
	subne	r3, r2, r3, asr #1
	addeq	r3, r2, r3, asr #1
.L827:
	rsb	r3, r3, #255
	b	.L826
.L876:
	mov	r10, r7
	ldr	r7, [fp, #-60]
.L778:
	ldrb	r2, [r7, #1950]	@ zero_extendqisi2
	add	r10, r6, r10
	sub	ip, r2, #1
	ldrb	r1, [r10, #280]	@ zero_extendqisi2
	mov	r0, ip, asl #1
	cmp	r0, #255
	bgt	.L793
	add	r3, r1, #1
	cmp	r3, r0
	bgt	.L794
	tst	r3, #1
	addne	r3, r1, #2
	addeq	r3, r3, r3, lsr #31
	subne	r3, ip, r3, asr #1
	addeq	r3, ip, r3, asr #1
.L794:
	add	r3, r3, #1
.L796:
	strb	r3, [r7, #1950]
	ldr	r10, [r5, #28]
	ldr	r8, [r5, #36]
	ldr	r4, [r5, #32]
	b	.L830
.L793:
	rsb	r2, r2, #255
	add	r3, r1, #1
	cmp	r3, r2, asl #1
	bgt	.L797
	tst	r3, #1
	addne	r3, r1, #2
	addeq	r3, r3, r3, lsr #31
	subne	r3, r2, r3, asr #1
	addeq	r3, r2, r3, asr #1
.L797:
	rsb	r3, r3, #255
	b	.L796
.L875:
	mov	r10, r7
	ldr	r7, [fp, #-60]
	add	r10, r10, #16
	b	.L808
.L874:
	mov	r10, r7
	ldr	r7, [fp, #-60]
	add	r10, r10, #16
	b	.L778
.L868:
	mov	r10, r7
	cmp	r10, #64
	ldr	r7, [fp, #-60]
	bgt	.L878
	add	r10, r10, #64
	b	.L778
.L873:
	mov	r10, r7
	cmp	r10, #64
	ldr	r7, [fp, #-60]
	addle	r10, r10, #64
	ble	.L808
.L879:
	mov	r1, #128
	mov	r0, r5
	bl	Vp9_Cabac_Read
	add	r0, r0, r10, lsl #1
	sub	r10, r0, #65
	add	r10, r10, #64
	b	.L808
.L878:
	mov	r1, #128
	mov	r0, r5
	bl	Vp9_Cabac_Read
	add	r0, r0, r10, lsl #1
	sub	r10, r0, #65
	add	r10, r10, #64
	b	.L778
.L785:
	add	r3, r6, r8
	mov	r10, #0
	mov	ip, #4
	str	r7, [fp, #-60]
	ldrb	r1, [r3, #24]	@ zero_extendqisi2
	mov	r7, r10
	mov	r2, #1
	mov	r3, r4, asl r1
	mov	r8, r8, asl r1
	rsb	r9, r1, r9
	str	r8, [r5, #36]
	mov	r4, r8
	str	r3, [r5, #28]
	str	r9, [r5, #32]
	mov	r10, r3
	mov	r8, ip
	b	.L789
.L787:
	mov	r1, r4, asl #24
	mov	ip, r2, asl r8
	cmp	r1, r0
	sub	r8, r8, #1
	rsbls	r0, r1, r0
	ldrls	lr, [r5, #36]
	movhi	ip, #0
	orr	r7, r7, ip
	rsbls	r4, r4, lr
	cmn	r8, #1
	add	r1, r6, r4
	ldrb	r1, [r1, #24]	@ zero_extendqisi2
	mov	r10, r0, asl r1
	rsb	r9, r1, r9
	mov	r4, r4, asl r1
	str	r10, [r5, #28]
	str	r9, [r5, #32]
	str	r4, [r5, #36]
	beq	.L880
.L789:
	sub	r4, r4, #1
	cmp	r9, #0
	ubfx	r4, r4, #1, #24
	mov	r0, r10
	add	r4, r4, #1
	bge	.L787
	rsb	r1, r9, #24
	rsb	ip, r9, #16
	bic	r1, r1, #7
	mov	r0, r5
	rsb	ip, r1, ip
	str	r2, [fp, #-56]
	str	ip, [fp, #-52]
	add	r9, r1, r9
	bl	BsGet
	ldr	ip, [fp, #-52]
	ldr	r2, [fp, #-56]
	and	ip, ip, #7
	orr	r0, r10, r0, asl ip
	b	.L787
.L815:
	add	r3, r6, r8
	mov	r10, #0
	mov	ip, #4
	str	r7, [fp, #-60]
	ldrb	r1, [r3, #24]	@ zero_extendqisi2
	mov	r7, r10
	mov	r2, #1
	mov	r3, r4, asl r1
	mov	r8, r8, asl r1
	rsb	r9, r1, r9
	str	r8, [r5, #36]
	mov	r4, r8
	str	r3, [r5, #28]
	str	r9, [r5, #32]
	mov	r10, r3
	mov	r8, ip
	b	.L819
.L817:
	mov	r1, r4, asl #24
	mov	ip, r2, asl r8
	cmp	r1, r0
	sub	r8, r8, #1
	rsbls	r0, r1, r0
	ldrls	lr, [r5, #36]
	movhi	ip, #0
	orr	r7, r7, ip
	rsbls	r4, r4, lr
	cmn	r8, #1
	add	r1, r6, r4
	ldrb	r1, [r1, #24]	@ zero_extendqisi2
	mov	r10, r0, asl r1
	rsb	r9, r1, r9
	mov	r4, r4, asl r1
	str	r10, [r5, #28]
	str	r9, [r5, #32]
	str	r4, [r5, #36]
	beq	.L881
.L819:
	sub	r4, r4, #1
	cmp	r9, #0
	ubfx	r4, r4, #1, #24
	mov	r0, r10
	add	r4, r4, #1
	bge	.L817
	rsb	r1, r9, #24
	rsb	ip, r9, #16
	bic	r1, r1, #7
	mov	r0, r5
	rsb	ip, r1, ip
	str	r2, [fp, #-56]
	str	ip, [fp, #-52]
	add	r9, r1, r9
	bl	BsGet
	ldr	ip, [fp, #-52]
	ldr	r2, [fp, #-56]
	and	ip, ip, #7
	orr	r0, r10, r0, asl ip
	b	.L817
.L880:
	mov	r10, r7
	ldr	r7, [fp, #-60]
	add	r10, r10, #32
	b	.L778
.L881:
	mov	r10, r7
	ldr	r7, [fp, #-60]
	add	r10, r10, #32
	b	.L808
.L870:
	rsb	r3, r4, #24
	rsb	r10, r4, #16
	bic	r3, r3, #7
	mov	r0, r5
	rsb	r10, r3, r10
	str	r3, [fp, #-52]
	mov	r1, r3
	and	r10, r10, #7
	bl	BsGet
	ldr	r3, [fp, #-52]
	add	r4, r4, r3
	str	r4, [r5, #32]
	orr	r0, r9, r0, asl r10
	str	r0, [r5, #28]
	mov	r9, r0
	b	.L801
.L865:
	rsb	r3, r4, #24
	rsb	r10, r4, #16
	bic	r3, r3, #7
	mov	r0, r5
	rsb	r10, r3, r10
	str	r3, [fp, #-52]
	mov	r1, r3
	and	r10, r10, #7
	bl	BsGet
	ldr	r3, [fp, #-52]
	add	r4, r4, r3
	str	r4, [r5, #32]
	orr	r0, r9, r0, asl r10
	str	r0, [r5, #28]
	mov	r9, r0
	b	.L771
.L866:
	rsb	r3, r4, #24
	rsb	r10, r4, #16
	bic	r3, r3, #7
	mov	r0, r5
	rsb	r10, r3, r10
	str	r3, [fp, #-52]
	mov	r1, r3
	and	r10, r10, #7
	bl	BsGet
	ldr	r3, [fp, #-52]
	add	r4, r4, r3
	str	r4, [r5, #32]
	orr	r0, r9, r0, asl r10
	str	r0, [r5, #28]
	mov	r9, r0
	b	.L774
.L871:
	rsb	r3, r4, #24
	rsb	r10, r4, #16
	bic	r3, r3, #7
	mov	r0, r5
	rsb	r10, r3, r10
	str	r3, [fp, #-52]
	mov	r1, r3
	and	r10, r10, #7
	bl	BsGet
	ldr	r3, [fp, #-52]
	add	r4, r4, r3
	str	r4, [r5, #32]
	orr	r0, r9, r0, asl r10
	str	r0, [r5, #28]
	mov	r9, r0
	b	.L804
.L867:
	rsb	r2, r9, #24
	rsb	r10, r9, #16
	bic	r2, r2, #7
	mov	r0, r5
	rsb	r10, r2, r10
	str	r2, [fp, #-52]
	mov	r1, r2
	bl	BsGet
	and	r3, r10, #7
	ldr	r2, [fp, #-52]
	add	r9, r9, r2
	str	r9, [r5, #32]
	orr	r0, r4, r0, asl r3
	str	r0, [r5, #28]
	mov	r4, r0
	b	.L781
.L872:
	rsb	r2, r9, #24
	rsb	r10, r9, #16
	bic	r2, r2, #7
	mov	r0, r5
	rsb	r10, r2, r10
	str	r2, [fp, #-52]
	mov	r1, r2
	bl	BsGet
	and	r3, r10, #7
	ldr	r2, [fp, #-52]
	add	r9, r9, r2
	str	r9, [r5, #32]
	orr	r0, r4, r0, asl r3
	str	r0, [r5, #28]
	mov	r4, r0
	b	.L811
.L883:
	.align	2
.L882:
	.word	.LANCHOR0
	UNWIND(.fnend)
	.size	Vp9_ReadSwitchableInterpProbs, .-Vp9_ReadSwitchableInterpProbs
	.align	2
	.global	Vp9_ReadCompPred
	.type	Vp9_ReadCompPred, %function
Vp9_ReadCompPred:
	UNWIND(.fnstart)
	@ args = 0, pretend = 0, frame = 32
	@ frame_needed = 1, uses_anonymous_args = 0
	UNWIND(.movsp ip)
	mov	ip, sp
	stmfd	sp!, {r4, r5, r6, r7, r8, r9, r10, fp, ip, lr, pc}
	UNWIND(.pad #4)
	UNWIND(.save {r4, r5, r6, r7, r8, r9, r10, fp, ip, lr})
	UNWIND(.setfp fp, ip, #-4)
	sub	fp, ip, #4
	UNWIND(.pad #36)
	sub	sp, sp, #36
	cmp	r2, #0
	str	r0, [fp, #-56]
	mov	r6, r1
	str	r3, [fp, #-60]
	bne	.L1047
	ldr	r4, [r1, #28]
	ldr	r3, [r1, #36]
	ldr	r5, [r1, #32]
	ldr	r7, .L1077
	str	r2, [fp, #-52]
.L893:
	ldr	r2, [fp, #-56]
	mov	r9, r4
	mov	r10, r3
	add	r1, r2, #10
	str	r1, [fp, #-48]
	mov	r8, r2
.L956:
	sub	r10, r10, #1
	cmp	r5, #0
	mov	r2, r10, asl #8
	sub	r10, r2, r10, asl #2
	mov	r10, r10, lsr #8
	add	r10, r10, #1
	blt	.L1048
.L895:
	mov	r0, r10, asl #24
	cmp	r0, r9
	bhi	.L896
	ldr	r3, [r6, #36]
	rsb	r9, r0, r9
	rsb	r10, r10, r3
	add	r3, r7, r10
	ldrb	r3, [r3, #24]	@ zero_extendqisi2
	rsb	r4, r3, r5
	mov	r10, r10, asl r3
	sub	r5, r10, #1
	cmp	r4, #0
	ubfx	r5, r5, #1, #24
	mov	r9, r9, asl r3
	str	r10, [r6, #36]
	add	r5, r5, #1
	str	r4, [r6, #32]
	str	r9, [r6, #28]
	blt	.L1049
.L897:
	mov	r3, r5, asl #24
	cmp	r3, r9
	bhi	.L898
	ldr	r2, [r6, #36]
	rsb	r9, r3, r9
	rsb	r5, r5, r2
	add	r3, r7, r5
	ldrb	r0, [r3, #24]	@ zero_extendqisi2
	mov	r2, r5, asl r0
	rsb	r4, r0, r4
	sub	r5, r2, #1
	cmp	r4, #0
	ubfx	r5, r5, #1, #24
	mov	r9, r9, asl r0
	str	r2, [r6, #36]
	add	r5, r5, #1
	str	r4, [r6, #32]
	str	r9, [r6, #28]
	blt	.L1050
.L900:
	mov	r3, r5, asl #24
	cmp	r3, r9
	bhi	.L905
	ldr	r1, [r6, #36]
	rsb	r3, r3, r9
	rsb	r5, r5, r1
	add	r2, r7, r5
	ldrb	r2, [r2, #24]	@ zero_extendqisi2
	rsb	r9, r2, r4
	mov	r1, r5, asl r2
	sub	r5, r1, #1
	cmp	r9, #0
	ubfx	r5, r5, #1, #24
	mov	r4, r3, asl r2
	str	r1, [r6, #36]
	add	r5, r5, #1
	str	r9, [r6, #32]
	str	r4, [r6, #28]
	blt	.L1051
.L907:
	mov	r2, r5, asl #24
	cmp	r2, r4
	bhi	.L911
	ldr	r1, [r6, #36]
	rsb	r2, r2, r4
	mov	r3, #6
	str	r8, [fp, #-72]
	rsb	r5, r5, r1
	mov	r8, r7
	add	r1, r7, r5
	mov	r10, #0
	mov	ip, #1
	ldrb	r4, [r1, #24]	@ zero_extendqisi2
	mov	r2, r2, asl r4
	rsb	r9, r4, r9
	str	r2, [r6, #28]
	mov	r4, r5, asl r4
	str	r9, [r6, #32]
	mov	r5, r3
	str	r4, [r6, #36]
	mov	r7, r2
	b	.L912
.L916:
	mov	r2, r4, asl #24
	mov	r1, ip, asl r5
	cmp	r2, r0
	sub	r5, r5, #1
	rsbls	r0, r2, r0
	ldrls	lr, [r6, #36]
	movhi	r1, #0
	orr	r10, r10, r1
	rsbls	r4, r4, lr
	cmn	r5, #1
	add	r2, r8, r4
	ldrb	r2, [r2, #24]	@ zero_extendqisi2
	mov	r7, r0, asl r2
	rsb	r9, r2, r9
	mov	r4, r4, asl r2
	str	r7, [r6, #28]
	str	r9, [r6, #32]
	str	r4, [r6, #36]
	beq	.L1052
.L912:
	sub	r4, r4, #1
	cmp	r9, #0
	ubfx	r4, r4, #1, #24
	mov	r0, r7
	add	r4, r4, #1
	bge	.L916
	rsb	r1, r9, #24
	rsb	r2, r9, #16
	bic	r1, r1, #7
	mov	r0, r6
	rsb	r2, r1, r2
	str	ip, [fp, #-68]
	str	r2, [fp, #-64]
	add	r9, r1, r9
	bl	BsGet
	ldr	r2, [fp, #-64]
	ldr	ip, [fp, #-68]
	and	r2, r2, #7
	orr	r0, r7, r0, asl r2
	b	.L916
.L896:
	add	r3, r7, r10
	ldrb	r3, [r3, #24]	@ zero_extendqisi2
	mov	r9, r9, asl r3
	rsb	r4, r3, r5
	mov	r10, r10, asl r3
	str	r9, [r6, #28]
	str	r4, [r6, #32]
	str	r10, [r6, #36]
.L991:
	sub	r10, r10, #1
	cmp	r4, #0
	mov	r3, r10, asl #8
	sub	r10, r3, r10, asl #2
	mov	r10, r10, lsr #8
	add	r10, r10, #1
	blt	.L1053
.L925:
	mov	r0, r10, asl #24
	cmp	r0, r9
	bhi	.L926
	ldr	r3, [r6, #36]
	rsb	r9, r0, r9
	rsb	r10, r10, r3
	add	r3, r7, r10
	ldrb	r3, [r3, #24]	@ zero_extendqisi2
	mov	r10, r10, asl r3
	rsb	r4, r3, r4
	sub	r5, r10, #1
	cmp	r4, #0
	ubfx	r5, r5, #1, #24
	mov	r9, r9, asl r3
	str	r10, [r6, #36]
	add	r5, r5, #1
	str	r4, [r6, #32]
	str	r9, [r6, #28]
	blt	.L1054
.L927:
	mov	r3, r5, asl #24
	cmp	r3, r9
	bhi	.L928
	ldr	r2, [r6, #36]
	rsb	r9, r3, r9
	rsb	r5, r5, r2
	add	r3, r7, r5
	ldrb	r0, [r3, #24]	@ zero_extendqisi2
	mov	r2, r5, asl r0
	rsb	r4, r0, r4
	sub	r5, r2, #1
	cmp	r4, #0
	ubfx	r5, r5, #1, #24
	mov	r9, r9, asl r0
	str	r2, [r6, #36]
	add	r5, r5, #1
	str	r4, [r6, #32]
	str	r9, [r6, #28]
	blt	.L1055
.L930:
	mov	r3, r5, asl #24
	cmp	r3, r9
	bhi	.L935
	ldr	r1, [r6, #36]
	rsb	r3, r3, r9
	rsb	r5, r5, r1
	add	r2, r7, r5
	ldrb	r2, [r2, #24]	@ zero_extendqisi2
	rsb	r9, r2, r4
	mov	r1, r5, asl r2
	sub	r5, r1, #1
	cmp	r9, #0
	ubfx	r5, r5, #1, #24
	mov	r4, r3, asl r2
	str	r1, [r6, #36]
	add	r5, r5, #1
	str	r9, [r6, #32]
	str	r4, [r6, #28]
	blt	.L1056
.L937:
	mov	r2, r5, asl #24
	cmp	r2, r4
	bhi	.L941
	ldr	r1, [r6, #36]
	rsb	r2, r2, r4
	mov	r3, #6
	str	r8, [fp, #-72]
	rsb	r5, r5, r1
	mov	r8, r7
	add	r1, r7, r5
	mov	r10, #0
	mov	ip, #1
	ldrb	r4, [r1, #24]	@ zero_extendqisi2
	mov	r2, r2, asl r4
	rsb	r9, r4, r9
	str	r2, [r6, #28]
	mov	r4, r5, asl r4
	str	r9, [r6, #32]
	mov	r5, r3
	str	r4, [r6, #36]
	mov	r7, r2
	b	.L942
.L946:
	mov	r2, r4, asl #24
	mov	r1, ip, asl r5
	cmp	r2, r0
	sub	r5, r5, #1
	rsbls	r0, r2, r0
	ldrls	lr, [r6, #36]
	movhi	r1, #0
	orr	r10, r10, r1
	rsbls	r4, r4, lr
	cmn	r5, #1
	add	r2, r8, r4
	ldrb	r2, [r2, #24]	@ zero_extendqisi2
	mov	r7, r0, asl r2
	rsb	r9, r2, r9
	mov	r4, r4, asl r2
	str	r7, [r6, #28]
	str	r9, [r6, #32]
	str	r4, [r6, #36]
	beq	.L1057
.L942:
	sub	r4, r4, #1
	cmp	r9, #0
	ubfx	r4, r4, #1, #24
	mov	r0, r7
	add	r4, r4, #1
	bge	.L946
	rsb	r1, r9, #24
	rsb	r2, r9, #16
	bic	r1, r1, #7
	mov	r0, r6
	rsb	r2, r1, r2
	str	ip, [fp, #-68]
	str	r2, [fp, #-64]
	add	r9, r1, r9
	bl	BsGet
	ldr	r2, [fp, #-64]
	ldr	ip, [fp, #-68]
	and	r2, r2, #7
	orr	r0, r7, r0, asl r2
	b	.L946
.L926:
	add	r3, r7, r10
	ldrb	r3, [r3, #24]	@ zero_extendqisi2
	mov	r9, r9, asl r3
	rsb	r4, r3, r4
	mov	r10, r10, asl r3
	str	r9, [r6, #28]
	str	r4, [r6, #32]
	str	r10, [r6, #36]
.L992:
	ldr	r3, [fp, #-48]
	add	r8, r8, #2
	cmp	r8, r3
	ldrne	r9, [r6, #28]
	ldrne	r10, [r6, #36]
	ldrne	r5, [r6, #32]
	bne	.L956
.L955:
	ldr	r3, [fp, #-52]
	cmp	r3, #0
	bne	.L1058
.L987:
	ldr	r3, [fp, #-60]
	ldr	r2, [fp, #-52]
	str	r2, [r3]
	sub	sp, fp, #40
	ldmfd	sp, {r4, r5, r6, r7, r8, r9, r10, fp, sp, pc}
.L1058:
	ldr	r4, [r6, #28]
	ldr	r3, [r6, #36]
	ldr	r5, [r6, #32]
.L894:
	ldr	r2, [fp, #-56]
	mov	r10, r3
	add	r8, r2, #1984
	add	r2, r2, #2000
	add	r8, r8, #14
	add	r2, r2, #3
	str	r2, [fp, #-48]
.L988:
	sub	r10, r10, #1
	cmp	r5, #0
	mov	r2, r10, asl #8
	sub	r10, r2, r10, asl #2
	mov	r10, r10, lsr #8
	add	r10, r10, #1
	blt	.L1059
.L957:
	mov	r9, r10, asl #24
	cmp	r9, r4
	bhi	.L958
	ldr	r3, [r6, #36]
	rsb	r9, r9, r4
	rsb	r10, r10, r3
	add	r3, r7, r10
	ldrb	r3, [r3, #24]	@ zero_extendqisi2
	mov	r10, r10, asl r3
	rsb	r5, r3, r5
	sub	r4, r10, #1
	cmp	r5, #0
	ubfx	r4, r4, #1, #24
	mov	r9, r9, asl r3
	str	r10, [r6, #36]
	add	r4, r4, #1
	str	r5, [r6, #32]
	str	r9, [r6, #28]
	blt	.L1060
.L959:
	mov	r3, r4, asl #24
	cmp	r3, r9
	bhi	.L960
	ldr	r2, [r6, #36]
	rsb	r9, r3, r9
	rsb	r4, r4, r2
	add	r3, r7, r4
	ldrb	r0, [r3, #24]	@ zero_extendqisi2
	mov	r2, r4, asl r0
	rsb	r4, r0, r5
	cmp	r4, #0
	sub	r5, r2, #1
	ubfx	r5, r5, #1, #24
	mov	r9, r9, asl r0
	str	r2, [r6, #36]
	add	r5, r5, #1
	str	r4, [r6, #32]
	str	r9, [r6, #28]
	blt	.L1061
.L962:
	mov	r3, r5, asl #24
	cmp	r3, r9
	bhi	.L967
	ldr	r1, [r6, #36]
	rsb	r3, r3, r9
	rsb	r5, r5, r1
	add	r2, r7, r5
	ldrb	r2, [r2, #24]	@ zero_extendqisi2
	mov	r1, r5, asl r2
	rsb	r5, r2, r4
	sub	r9, r1, #1
	cmp	r5, #0
	ubfx	r9, r9, #1, #24
	mov	r4, r3, asl r2
	str	r1, [r6, #36]
	add	r9, r9, #1
	str	r5, [r6, #32]
	str	r4, [r6, #28]
	blt	.L1062
.L969:
	mov	r3, r9, asl #24
	cmp	r3, r4
	bhi	.L973
	ldr	r1, [r6, #36]
	rsb	r0, r3, r4
	mov	r2, #6
	mov	r3, #0
	rsb	r4, r9, r1
	str	r8, [fp, #-68]
	add	r1, r7, r4
	mov	r8, r7
	mov	ip, #1
	mov	r7, r3
	ldrb	r1, [r1, #24]	@ zero_extendqisi2
	rsb	r10, r1, r5
	mov	r9, r0, asl r1
	mov	r4, r4, asl r1
	str	r9, [r6, #28]
	str	r10, [r6, #32]
	mov	r5, r2
	str	r4, [r6, #36]
	b	.L974
.L978:
	mov	r2, r4, asl #24
	mov	r1, ip, asl r5
	cmp	r2, r0
	sub	r5, r5, #1
	rsbls	r0, r2, r0
	ldrls	lr, [r6, #36]
	movhi	r1, #0
	orr	r7, r7, r1
	rsbls	r4, r4, lr
	cmn	r5, #1
	add	r2, r8, r4
	ldrb	r2, [r2, #24]	@ zero_extendqisi2
	mov	r9, r0, asl r2
	rsb	r10, r2, r10
	mov	r4, r4, asl r2
	str	r9, [r6, #28]
	str	r10, [r6, #32]
	str	r4, [r6, #36]
	beq	.L1063
.L974:
	sub	r4, r4, #1
	cmp	r10, #0
	ubfx	r4, r4, #1, #24
	mov	r0, r9
	add	r4, r4, #1
	bge	.L978
	rsb	r1, r10, #24
	rsb	r2, r10, #16
	bic	r1, r1, #7
	mov	r0, r6
	rsb	r2, r1, r2
	str	ip, [fp, #-64]
	str	r2, [fp, #-56]
	add	r10, r1, r10
	bl	BsGet
	ldr	r2, [fp, #-56]
	ldr	ip, [fp, #-64]
	and	r2, r2, #7
	orr	r0, r9, r0, asl r2
	b	.L978
.L935:
	add	r3, r7, r5
	mov	r2, #3
	str	r8, [fp, #-72]
	mov	r10, #0
	ldrb	r1, [r3, #24]	@ zero_extendqisi2
	mov	r8, r7
	mov	ip, #1
	mov	r9, r9, asl r1
	rsb	r4, r1, r4
	str	r9, [r6, #28]
	mov	r5, r5, asl r1
	mov	r7, r9
	str	r4, [r6, #32]
	str	r5, [r6, #36]
	mov	r9, r2
	b	.L940
.L938:
	mov	r2, r5, asl #24
	mov	r1, ip, asl r9
	cmp	r2, r0
	sub	r9, r9, #1
	rsbls	r0, r2, r0
	ldrls	lr, [r6, #36]
	movhi	r1, #0
	orr	r10, r10, r1
	rsbls	r5, r5, lr
	cmn	r9, #1
	add	r2, r8, r5
	ldrb	r2, [r2, #24]	@ zero_extendqisi2
	mov	r7, r0, asl r2
	rsb	r4, r2, r4
	mov	r5, r5, asl r2
	str	r7, [r6, #28]
	str	r4, [r6, #32]
	str	r5, [r6, #36]
	beq	.L1064
.L940:
	sub	r5, r5, #1
	cmp	r4, #0
	ubfx	r5, r5, #1, #24
	mov	r0, r7
	add	r5, r5, #1
	bge	.L938
	rsb	r1, r4, #24
	rsb	r2, r4, #16
	bic	r1, r1, #7
	mov	r0, r6
	rsb	r2, r1, r2
	str	ip, [fp, #-68]
	str	r2, [fp, #-64]
	add	r4, r1, r4
	bl	BsGet
	ldr	r2, [fp, #-64]
	ldr	ip, [fp, #-68]
	and	r2, r2, #7
	orr	r0, r7, r0, asl r2
	b	.L938
.L905:
	add	r3, r7, r5
	mov	r2, #3
	str	r8, [fp, #-72]
	mov	r10, #0
	ldrb	r1, [r3, #24]	@ zero_extendqisi2
	mov	r8, r7
	mov	ip, #1
	mov	r9, r9, asl r1
	rsb	r4, r1, r4
	str	r9, [r6, #28]
	mov	r5, r5, asl r1
	mov	r7, r9
	str	r4, [r6, #32]
	str	r5, [r6, #36]
	mov	r9, r2
	b	.L910
.L908:
	mov	r2, r5, asl #24
	mov	r1, ip, asl r9
	cmp	r2, r0
	sub	r9, r9, #1
	rsbls	r0, r2, r0
	ldrls	lr, [r6, #36]
	movhi	r1, #0
	orr	r10, r10, r1
	rsbls	r5, r5, lr
	cmn	r9, #1
	add	r2, r8, r5
	ldrb	r2, [r2, #24]	@ zero_extendqisi2
	mov	r7, r0, asl r2
	rsb	r4, r2, r4
	mov	r5, r5, asl r2
	str	r7, [r6, #28]
	str	r4, [r6, #32]
	str	r5, [r6, #36]
	beq	.L1065
.L910:
	sub	r5, r5, #1
	cmp	r4, #0
	ubfx	r5, r5, #1, #24
	mov	r0, r7
	add	r5, r5, #1
	bge	.L908
	rsb	r1, r4, #24
	rsb	r2, r4, #16
	bic	r1, r1, #7
	mov	r0, r6
	rsb	r2, r1, r2
	str	ip, [fp, #-68]
	str	r2, [fp, #-64]
	add	r4, r1, r4
	bl	BsGet
	ldr	r2, [fp, #-64]
	ldr	ip, [fp, #-68]
	and	r2, r2, #7
	orr	r0, r7, r0, asl r2
	b	.L908
.L958:
	add	r3, r7, r10
	ldrb	r3, [r3, #24]	@ zero_extendqisi2
	mov	r4, r4, asl r3
	rsb	r5, r3, r5
	mov	r10, r10, asl r3
	str	r4, [r6, #28]
	str	r5, [r6, #32]
	str	r10, [r6, #36]
.L993:
	ldr	r3, [fp, #-48]
	add	r8, r8, #1
	cmp	r8, r3
	beq	.L987
	add	r4, r6, #28
	ldmia	r4, {r4, r5, r10}
	b	.L988
.L1053:
	rsb	r3, r4, #24
	rsb	r5, r4, #16
	bic	r3, r3, #7
	mov	r0, r6
	rsb	r5, r3, r5
	str	r3, [fp, #-64]
	mov	r1, r3
	and	r5, r5, #7
	bl	BsGet
	ldr	r3, [fp, #-64]
	add	r4, r3, r4
	str	r4, [r6, #32]
	orr	r0, r9, r0, asl r5
	str	r0, [r6, #28]
	mov	r9, r0
	b	.L925
.L1048:
	rsb	r2, r5, #24
	rsb	r4, r5, #16
	bic	r2, r2, #7
	mov	r0, r6
	rsb	r4, r2, r4
	str	r2, [fp, #-64]
	mov	r1, r2
	bl	BsGet
	ldr	r2, [fp, #-64]
	and	r3, r4, #7
	add	r4, r2, r5
	str	r4, [r6, #32]
	mov	r5, r4
	orr	r0, r9, r0, asl r3
	str	r0, [r6, #28]
	mov	r9, r0
	b	.L895
.L928:
	add	r3, r7, r5
	mov	r2, #3
	str	r8, [fp, #-72]
	mov	r10, #0
	ldrb	r1, [r3, #24]	@ zero_extendqisi2
	mov	r8, r7
	mov	ip, #1
	mov	r9, r9, asl r1
	rsb	r4, r1, r4
	str	r9, [r6, #28]
	mov	r5, r5, asl r1
	mov	r7, r9
	str	r4, [r6, #32]
	str	r5, [r6, #36]
	mov	r9, r2
	b	.L933
.L931:
	mov	r2, r5, asl #24
	mov	r1, ip, asl r9
	cmp	r2, r0
	sub	r9, r9, #1
	rsbls	r0, r2, r0
	ldrls	lr, [r6, #36]
	movhi	r1, #0
	orr	r10, r10, r1
	rsbls	r5, r5, lr
	cmn	r9, #1
	add	r2, r8, r5
	ldrb	r2, [r2, #24]	@ zero_extendqisi2
	mov	r7, r0, asl r2
	rsb	r4, r2, r4
	mov	r5, r5, asl r2
	str	r7, [r6, #28]
	str	r4, [r6, #32]
	str	r5, [r6, #36]
	beq	.L1066
.L933:
	sub	r5, r5, #1
	cmp	r4, #0
	ubfx	r5, r5, #1, #24
	mov	r0, r7
	add	r5, r5, #1
	bge	.L931
	rsb	r1, r4, #24
	rsb	r2, r4, #16
	bic	r1, r1, #7
	mov	r0, r6
	rsb	r2, r1, r2
	str	ip, [fp, #-68]
	str	r2, [fp, #-64]
	add	r4, r1, r4
	bl	BsGet
	ldr	r2, [fp, #-64]
	ldr	ip, [fp, #-68]
	and	r2, r2, #7
	orr	r0, r7, r0, asl r2
	b	.L931
.L898:
	add	r3, r7, r5
	mov	r2, #3
	str	r8, [fp, #-72]
	mov	r10, #0
	ldrb	r1, [r3, #24]	@ zero_extendqisi2
	mov	r8, r7
	mov	ip, #1
	mov	r9, r9, asl r1
	rsb	r4, r1, r4
	str	r9, [r6, #28]
	mov	r5, r5, asl r1
	mov	r7, r9
	str	r4, [r6, #32]
	str	r5, [r6, #36]
	mov	r9, r2
	b	.L903
.L901:
	mov	r2, r5, asl #24
	mov	r1, ip, asl r9
	cmp	r2, r0
	sub	r9, r9, #1
	rsbls	r0, r2, r0
	ldrls	lr, [r6, #36]
	movhi	r1, #0
	orr	r10, r10, r1
	rsbls	r5, r5, lr
	cmn	r9, #1
	add	r2, r8, r5
	ldrb	r2, [r2, #24]	@ zero_extendqisi2
	mov	r7, r0, asl r2
	rsb	r4, r2, r4
	mov	r5, r5, asl r2
	str	r7, [r6, #28]
	str	r4, [r6, #32]
	str	r5, [r6, #36]
	beq	.L1067
.L903:
	sub	r5, r5, #1
	cmp	r4, #0
	ubfx	r5, r5, #1, #24
	mov	r0, r7
	add	r5, r5, #1
	bge	.L901
	rsb	r1, r4, #24
	rsb	r2, r4, #16
	bic	r1, r1, #7
	mov	r0, r6
	rsb	r2, r1, r2
	str	ip, [fp, #-68]
	str	r2, [fp, #-64]
	add	r4, r1, r4
	bl	BsGet
	ldr	r2, [fp, #-64]
	ldr	ip, [fp, #-68]
	and	r2, r2, #7
	orr	r0, r7, r0, asl r2
	b	.L901
.L1059:
	rsb	r3, r5, #24
	rsb	r9, r5, #16
	bic	r3, r3, #7
	mov	r0, r6
	rsb	r9, r3, r9
	str	r3, [fp, #-56]
	mov	r1, r3
	and	r9, r9, #7
	bl	BsGet
	ldr	r3, [fp, #-56]
	add	r5, r3, r5
	str	r5, [r6, #32]
	orr	r0, r4, r0, asl r9
	str	r0, [r6, #28]
	mov	r4, r0
	b	.L957
.L1067:
	mov	r7, r8
	ldr	r8, [fp, #-72]
.L904:
	ldrb	r2, [r8, #1988]	@ zero_extendqisi2
	add	r10, r7, r10
	sub	ip, r2, #1
	ldrb	r1, [r10, #280]	@ zero_extendqisi2
	mov	r0, ip, asl #1
	cmp	r0, #255
	bgt	.L919
	add	r3, r1, #1
	cmp	r3, r0
	bgt	.L920
	tst	r3, #1
	addne	r3, r1, #2
	addeq	r3, r3, r3, lsr #31
	subne	r3, ip, r3, asr #1
	addeq	r3, ip, r3, asr #1
.L920:
	add	r3, r3, #1
.L922:
	strb	r3, [r8, #1988]
	ldr	r9, [r6, #28]
	ldr	r10, [r6, #36]
	ldr	r4, [r6, #32]
	b	.L991
.L919:
	rsb	r2, r2, #255
	add	r3, r1, #1
	cmp	r3, r2, asl #1
	bgt	.L923
	tst	r3, #1
	addne	r3, r1, #2
	addeq	r3, r3, r3, lsr #31
	subne	r3, r2, r3, asr #1
	addeq	r3, r2, r3, asr #1
.L923:
	rsb	r3, r3, #255
	b	.L922
.L1066:
	mov	r7, r8
	ldr	r8, [fp, #-72]
.L934:
	ldrb	r2, [r8, #1989]	@ zero_extendqisi2
	add	r10, r7, r10
	sub	ip, r2, #1
	ldrb	r1, [r10, #280]	@ zero_extendqisi2
	mov	r0, ip, asl #1
	cmp	r0, #255
	bgt	.L949
	add	r3, r1, #1
	cmp	r3, r0
	bgt	.L950
	tst	r3, #1
	addne	r3, r1, #2
	addeq	r3, r3, r3, lsr #31
	subne	r3, ip, r3, asr #1
	addeq	r3, ip, r3, asr #1
.L950:
	add	r3, r3, #1
.L952:
	strb	r3, [r8, #1989]
	b	.L992
.L949:
	rsb	r2, r2, #255
	add	r3, r1, #1
	cmp	r3, r2, asl #1
	bgt	.L953
	tst	r3, #1
	addne	r3, r1, #2
	addeq	r3, r3, r3, lsr #31
	subne	r3, r2, r3, asr #1
	addeq	r3, r2, r3, asr #1
.L953:
	rsb	r3, r3, #255
	b	.L952
.L960:
	add	r3, r7, r4
	mov	r2, #3
	str	r8, [fp, #-68]
	mov	r10, #0
	ldrb	r1, [r3, #24]	@ zero_extendqisi2
	mov	r8, r7
	mov	ip, #1
	mov	r9, r9, asl r1
	rsb	r5, r1, r5
	str	r9, [r6, #28]
	mov	r4, r4, asl r1
	mov	r7, r9
	str	r5, [r6, #32]
	str	r4, [r6, #36]
	mov	r9, r2
	b	.L965
.L963:
	mov	r2, r4, asl #24
	mov	r1, ip, asl r9
	cmp	r2, r0
	sub	r9, r9, #1
	rsbls	r0, r2, r0
	ldrls	lr, [r6, #36]
	movhi	r1, #0
	orr	r10, r10, r1
	rsbls	r4, r4, lr
	cmn	r9, #1
	add	r2, r8, r4
	ldrb	r2, [r2, #24]	@ zero_extendqisi2
	mov	r7, r0, asl r2
	rsb	r5, r2, r5
	mov	r4, r4, asl r2
	str	r7, [r6, #28]
	str	r5, [r6, #32]
	str	r4, [r6, #36]
	beq	.L1068
.L965:
	sub	r4, r4, #1
	cmp	r5, #0
	ubfx	r4, r4, #1, #24
	mov	r0, r7
	add	r4, r4, #1
	bge	.L963
	rsb	r1, r5, #24
	rsb	r2, r5, #16
	bic	r1, r1, #7
	mov	r0, r6
	rsb	r2, r1, r2
	str	ip, [fp, #-64]
	str	r2, [fp, #-56]
	add	r5, r1, r5
	bl	BsGet
	ldr	r2, [fp, #-56]
	ldr	ip, [fp, #-64]
	and	r2, r2, #7
	orr	r0, r7, r0, asl r2
	b	.L963
.L1068:
	mov	r7, r8
	ldr	r8, [fp, #-68]
.L966:
	ldrb	r2, [r8]	@ zero_extendqisi2
	add	r10, r7, r10
	sub	ip, r2, #1
	ldrb	r1, [r10, #280]	@ zero_extendqisi2
	mov	r0, ip, asl #1
	cmp	r0, #255
	bgt	.L981
	add	r3, r1, #1
	cmp	r3, r0
	bgt	.L982
	tst	r3, #1
	addne	r3, r1, #2
	addeq	r3, r3, r3, lsr #31
	subne	r3, ip, r3, asr #1
	addeq	r3, ip, r3, asr #1
.L982:
	add	r3, r3, #1
.L984:
	strb	r3, [r8]
	b	.L993
.L981:
	rsb	r2, r2, #255
	add	r3, r1, #1
	cmp	r3, r2, asl #1
	bgt	.L985
	tst	r3, #1
	addne	r3, r1, #2
	addeq	r3, r3, r3, lsr #31
	subne	r3, r2, r3, asr #1
	addeq	r3, r2, r3, asr #1
.L985:
	rsb	r3, r3, #255
	b	.L984
.L1047:
	ldr	r8, [r1, #36]
	ldr	r5, [r1, #32]
	sub	r8, r8, #1
	cmp	r5, #0
	ubfx	r8, r8, #1, #24
	add	r8, r8, #1
	blt	.L886
	ldr	r0, [r1, #28]
.L887:
	mov	r4, r8, asl #24
	cmp	r4, r0
	bhi	.L888
	ldr	r3, [r6, #36]
	rsb	r4, r4, r0
	ldr	r7, .L1077
	mov	r1, #128
	rsb	r8, r8, r3
	mov	r0, r6
	add	r3, r7, r8
	ldrb	r3, [r3, #24]	@ zero_extendqisi2
	mov	r4, r4, asl r3
	rsb	r5, r3, r5
	mov	r8, r8, asl r3
	str	r4, [r6, #28]
	str	r5, [r6, #32]
	str	r8, [r6, #36]
	bl	Vp9_Cabac_Read
	ldr	r4, [r6, #28]
	ldr	r3, [r6, #36]
	ldr	r5, [r6, #32]
	add	r2, r0, #1
	str	r2, [fp, #-52]
	cmp	r2, #2
	bne	.L889
	ldr	r2, [fp, #-56]
	add	r10, r2, #1968
	add	r9, r2, #1984
	add	r10, r10, #15
	add	r9, r9, #4
	b	.L892
.L1070:
	ldr	r3, [r6, #36]
	rsb	r8, r8, r3
	add	r3, r7, r8
	ldrb	r3, [r3, #24]	@ zero_extendqisi2
	rsb	r5, r3, r5
	mov	r2, r2, asl r3
	mov	r8, r8, asl r3
	str	r5, [r6, #32]
	str	r2, [r6, #28]
	str	r8, [r6, #36]
	bl	Vp9_DiffUpdateProb
	ldr	r4, [r6, #28]
	ldr	r3, [r6, #36]
	ldr	r5, [r6, #32]
.L990:
	add	r10, r10, #1
	cmp	r10, r9
	beq	.L893
.L892:
	sub	r8, r3, #1
	cmp	r5, #0
	mov	r3, r8, asl #8
	sub	r8, r3, r8, asl #2
	mov	r8, r8, lsr #8
	add	r8, r8, #1
	blt	.L1069
.L890:
	mov	r3, r8, asl #24
	mov	r1, r10
	cmp	r3, r4
	mov	r0, r6
	rsb	r2, r3, r4
	bls	.L1070
	add	r3, r7, r8
	ldrb	r3, [r3, #24]	@ zero_extendqisi2
	mov	r4, r4, asl r3
	rsb	r5, r3, r5
	str	r4, [r6, #28]
	mov	r3, r8, asl r3
	str	r5, [r6, #32]
	str	r3, [r6, #36]
	b	.L990
.L1064:
	mov	r7, r8
	add	r10, r10, #16
	ldr	r8, [fp, #-72]
	b	.L934
.L1065:
	mov	r7, r8
	add	r10, r10, #16
	ldr	r8, [fp, #-72]
	b	.L904
.L1057:
	cmp	r10, #64
	mov	r7, r8
	ldr	r8, [fp, #-72]
	bgt	.L1071
.L948:
	add	r10, r10, #64
	b	.L934
.L1052:
	cmp	r10, #64
	mov	r7, r8
	ldr	r8, [fp, #-72]
	bgt	.L1072
.L918:
	add	r10, r10, #64
	b	.L904
.L967:
	add	r3, r7, r5
	mov	r2, #3
	str	r8, [fp, #-68]
	mov	r10, #0
	ldrb	r1, [r3, #24]	@ zero_extendqisi2
	mov	r8, r7
	mov	ip, #1
	mov	r9, r9, asl r1
	rsb	r4, r1, r4
	str	r9, [r6, #28]
	mov	r5, r5, asl r1
	mov	r7, r9
	str	r4, [r6, #32]
	str	r5, [r6, #36]
	mov	r9, r2
	b	.L972
.L970:
	mov	r2, r5, asl #24
	mov	r1, ip, asl r9
	cmp	r2, r0
	sub	r9, r9, #1
	rsbls	r0, r2, r0
	ldrls	lr, [r6, #36]
	movhi	r1, #0
	orr	r10, r10, r1
	rsbls	r5, r5, lr
	cmn	r9, #1
	add	r2, r8, r5
	ldrb	r2, [r2, #24]	@ zero_extendqisi2
	mov	r7, r0, asl r2
	rsb	r4, r2, r4
	mov	r5, r5, asl r2
	str	r7, [r6, #28]
	str	r4, [r6, #32]
	str	r5, [r6, #36]
	beq	.L1073
.L972:
	sub	r5, r5, #1
	cmp	r4, #0
	ubfx	r5, r5, #1, #24
	mov	r0, r7
	add	r5, r5, #1
	bge	.L970
	rsb	r1, r4, #24
	rsb	r2, r4, #16
	bic	r1, r1, #7
	mov	r0, r6
	rsb	r2, r1, r2
	str	ip, [fp, #-64]
	str	r2, [fp, #-56]
	add	r4, r1, r4
	bl	BsGet
	ldr	r2, [fp, #-56]
	ldr	ip, [fp, #-64]
	and	r2, r2, #7
	orr	r0, r7, r0, asl r2
	b	.L970
.L1078:
	.align	2
.L1077:
	.word	.LANCHOR0
.L888:
	ldr	r7, .L1077
	mov	r3, #0
	str	r3, [fp, #-52]
	add	r3, r7, r8
	ldrb	r3, [r3, #24]	@ zero_extendqisi2
	mov	r4, r0, asl r3
	rsb	r5, r3, r5
	str	r4, [r6, #28]
	mov	r3, r8, asl r3
	str	r5, [r6, #32]
	str	r3, [r6, #36]
	b	.L893
.L1071:
	mov	r1, #128
	mov	r0, r6
	bl	Vp9_Cabac_Read
	add	r0, r0, r10, lsl #1
	sub	r10, r0, #65
	b	.L948
.L1072:
	mov	r1, #128
	mov	r0, r6
	bl	Vp9_Cabac_Read
	add	r0, r0, r10, lsl #1
	sub	r10, r0, #65
	b	.L918
.L1073:
	mov	r7, r8
	add	r10, r10, #16
	ldr	r8, [fp, #-68]
	b	.L966
.L1069:
	rsb	r2, r5, #24
	rsb	r3, r5, #16
	bic	r2, r2, #7
	mov	r0, r6
	rsb	r3, r2, r3
	str	r2, [fp, #-48]
	mov	r1, r2
	str	r3, [fp, #-64]
	bl	BsGet
	ldr	r3, [fp, #-64]
	ldr	r2, [fp, #-48]
	and	r3, r3, #7
	add	r5, r2, r5
	str	r5, [r6, #32]
	orr	r0, r4, r0, asl r3
	str	r0, [r6, #28]
	mov	r4, r0
	b	.L890
.L1063:
	mov	r3, r7
	cmp	r3, #64
	mov	r7, r8
	ldr	r8, [fp, #-68]
	movle	r10, r3
	ble	.L980
	mov	r1, #128
	mov	r0, r6
	str	r3, [fp, #-56]
	bl	Vp9_Cabac_Read
	ldr	r3, [fp, #-56]
	add	r0, r0, r3, lsl #1
	sub	r10, r0, #65
.L980:
	add	r10, r10, #64
	b	.L966
.L911:
	add	r3, r7, r5
	mov	ip, #4
	str	r8, [fp, #-72]
	mov	r10, #0
	ldrb	r1, [r3, #24]	@ zero_extendqisi2
	mov	r8, r7
	mov	r2, #1
	mov	r3, r4, asl r1
	mov	r5, r5, asl r1
	rsb	r9, r1, r9
	str	r5, [r6, #36]
	mov	r4, r5
	str	r3, [r6, #28]
	str	r9, [r6, #32]
	mov	r5, ip
	mov	r7, r3
	b	.L915
.L913:
	mov	r1, r4, asl #24
	mov	ip, r2, asl r5
	cmp	r1, r0
	sub	r5, r5, #1
	rsbls	r0, r1, r0
	ldrls	lr, [r6, #36]
	movhi	ip, #0
	orr	r10, r10, ip
	rsbls	r4, r4, lr
	cmn	r5, #1
	add	r1, r8, r4
	ldrb	r1, [r1, #24]	@ zero_extendqisi2
	mov	r7, r0, asl r1
	rsb	r9, r1, r9
	mov	r4, r4, asl r1
	str	r7, [r6, #28]
	str	r9, [r6, #32]
	str	r4, [r6, #36]
	beq	.L1074
.L915:
	sub	r4, r4, #1
	cmp	r9, #0
	ubfx	r4, r4, #1, #24
	mov	r0, r7
	add	r4, r4, #1
	bge	.L913
	rsb	r1, r9, #24
	rsb	ip, r9, #16
	bic	r1, r1, #7
	mov	r0, r6
	rsb	ip, r1, ip
	str	r2, [fp, #-68]
	str	ip, [fp, #-64]
	add	r9, r1, r9
	bl	BsGet
	ldr	ip, [fp, #-64]
	ldr	r2, [fp, #-68]
	and	ip, ip, #7
	orr	r0, r7, r0, asl ip
	b	.L913
.L941:
	add	r3, r7, r5
	mov	ip, #4
	str	r8, [fp, #-72]
	mov	r10, #0
	ldrb	r1, [r3, #24]	@ zero_extendqisi2
	mov	r8, r7
	mov	r2, #1
	mov	r3, r4, asl r1
	mov	r5, r5, asl r1
	rsb	r9, r1, r9
	str	r5, [r6, #36]
	mov	r4, r5
	str	r3, [r6, #28]
	str	r9, [r6, #32]
	mov	r5, ip
	mov	r7, r3
	b	.L945
.L943:
	mov	r1, r4, asl #24
	mov	ip, r2, asl r5
	cmp	r1, r0
	sub	r5, r5, #1
	rsbls	r0, r1, r0
	ldrls	lr, [r6, #36]
	movhi	ip, #0
	orr	r10, r10, ip
	rsbls	r4, r4, lr
	cmn	r5, #1
	add	r1, r8, r4
	ldrb	r1, [r1, #24]	@ zero_extendqisi2
	mov	r7, r0, asl r1
	rsb	r9, r1, r9
	mov	r4, r4, asl r1
	str	r7, [r6, #28]
	str	r9, [r6, #32]
	str	r4, [r6, #36]
	beq	.L1075
.L945:
	sub	r4, r4, #1
	cmp	r9, #0
	ubfx	r4, r4, #1, #24
	mov	r0, r7
	add	r4, r4, #1
	bge	.L943
	rsb	r1, r9, #24
	rsb	ip, r9, #16
	bic	r1, r1, #7
	mov	r0, r6
	rsb	ip, r1, ip
	str	r2, [fp, #-68]
	str	ip, [fp, #-64]
	add	r9, r1, r9
	bl	BsGet
	ldr	ip, [fp, #-64]
	ldr	r2, [fp, #-68]
	and	ip, ip, #7
	orr	r0, r7, r0, asl ip
	b	.L943
.L1075:
	mov	r7, r8
	add	r10, r10, #32
	ldr	r8, [fp, #-72]
	b	.L934
.L1074:
	mov	r7, r8
	add	r10, r10, #32
	ldr	r8, [fp, #-72]
	b	.L904
.L1054:
	rsb	r3, r4, #24
	rsb	r10, r4, #16
	bic	r3, r3, #7
	mov	r0, r6
	rsb	r10, r3, r10
	str	r3, [fp, #-64]
	mov	r1, r3
	and	r10, r10, #7
	bl	BsGet
	ldr	r3, [fp, #-64]
	add	r4, r4, r3
	str	r4, [r6, #32]
	orr	r0, r9, r0, asl r10
	str	r0, [r6, #28]
	mov	r9, r0
	b	.L927
.L1049:
	rsb	r3, r4, #24
	rsb	r10, r4, #16
	bic	r3, r3, #7
	mov	r0, r6
	rsb	r10, r3, r10
	str	r3, [fp, #-64]
	mov	r1, r3
	and	r10, r10, #7
	bl	BsGet
	ldr	r3, [fp, #-64]
	add	r4, r4, r3
	str	r4, [r6, #32]
	orr	r0, r9, r0, asl r10
	str	r0, [r6, #28]
	mov	r9, r0
	b	.L897
.L973:
	add	r3, r7, r9
	mov	r2, #4
	str	r8, [fp, #-68]
	mov	r10, #0
	ldrb	r1, [r3, #24]	@ zero_extendqisi2
	mov	r8, r7
	mov	ip, #1
	mov	r3, r4, asl r1
	mov	r9, r9, asl r1
	rsb	r5, r1, r5
	str	r9, [r6, #36]
	mov	r4, r9
	str	r3, [r6, #28]
	str	r5, [r6, #32]
	mov	r9, r2
	mov	r7, r3
	b	.L977
.L975:
	mov	r2, r4, asl #24
	mov	r1, ip, asl r9
	cmp	r2, r0
	sub	r9, r9, #1
	rsbls	r0, r2, r0
	ldrls	lr, [r6, #36]
	movhi	r1, #0
	orr	r10, r10, r1
	rsbls	r4, r4, lr
	cmn	r9, #1
	add	r2, r8, r4
	ldrb	r2, [r2, #24]	@ zero_extendqisi2
	mov	r7, r0, asl r2
	rsb	r5, r2, r5
	mov	r4, r4, asl r2
	str	r7, [r6, #28]
	str	r5, [r6, #32]
	str	r4, [r6, #36]
	beq	.L1076
.L977:
	sub	r4, r4, #1
	cmp	r5, #0
	ubfx	r4, r4, #1, #24
	mov	r0, r7
	add	r4, r4, #1
	bge	.L975
	rsb	r1, r5, #24
	rsb	r2, r5, #16
	bic	r1, r1, #7
	mov	r0, r6
	rsb	r2, r1, r2
	str	ip, [fp, #-64]
	str	r2, [fp, #-56]
	add	r5, r1, r5
	bl	BsGet
	ldr	r2, [fp, #-56]
	ldr	ip, [fp, #-64]
	and	r2, r2, #7
	orr	r0, r7, r0, asl r2
	b	.L975
.L1076:
	mov	r7, r8
	add	r10, r10, #32
	ldr	r8, [fp, #-68]
	b	.L966
.L1060:
	rsb	r2, r5, #24
	rsb	r10, r5, #16
	bic	r2, r2, #7
	mov	r0, r6
	rsb	r10, r2, r10
	str	r2, [fp, #-56]
	mov	r1, r2
	bl	BsGet
	and	r3, r10, #7
	ldr	r2, [fp, #-56]
	add	r5, r5, r2
	str	r5, [r6, #32]
	orr	r0, r9, r0, asl r3
	str	r0, [r6, #28]
	mov	r9, r0
	b	.L959
.L1050:
	rsb	r3, r4, #24
	rsb	r10, r4, #16
	bic	r3, r3, #7
	mov	r0, r6
	rsb	r10, r3, r10
	str	r3, [fp, #-64]
	mov	r1, r3
	and	r10, r10, #7
	bl	BsGet
	ldr	r3, [fp, #-64]
	add	r4, r4, r3
	str	r4, [r6, #32]
	orr	r0, r9, r0, asl r10
	str	r0, [r6, #28]
	mov	r9, r0
	b	.L900
.L1055:
	rsb	r3, r4, #24
	rsb	r10, r4, #16
	bic	r3, r3, #7
	mov	r0, r6
	rsb	r10, r3, r10
	str	r3, [fp, #-64]
	mov	r1, r3
	and	r10, r10, #7
	bl	BsGet
	ldr	r3, [fp, #-64]
	add	r4, r4, r3
	str	r4, [r6, #32]
	orr	r0, r9, r0, asl r10
	str	r0, [r6, #28]
	mov	r9, r0
	b	.L930
.L1061:
	rsb	r2, r4, #24
	rsb	r10, r4, #16
	bic	r2, r2, #7
	mov	r0, r6
	rsb	r10, r2, r10
	str	r2, [fp, #-56]
	mov	r1, r2
	bl	BsGet
	and	r3, r10, #7
	ldr	r2, [fp, #-56]
	add	r4, r4, r2
	str	r4, [r6, #32]
	orr	r0, r9, r0, asl r3
	str	r0, [r6, #28]
	mov	r9, r0
	b	.L962
.L1056:
	rsb	r2, r9, #24
	rsb	r10, r9, #16
	bic	r2, r2, #7
	mov	r0, r6
	rsb	r10, r2, r10
	str	r2, [fp, #-64]
	mov	r1, r2
	bl	BsGet
	and	r3, r10, #7
	ldr	r2, [fp, #-64]
	add	r9, r9, r2
	str	r9, [r6, #32]
	orr	r0, r4, r0, asl r3
	str	r0, [r6, #28]
	mov	r4, r0
	b	.L937
.L1051:
	rsb	r2, r9, #24
	rsb	r10, r9, #16
	bic	r2, r2, #7
	mov	r0, r6
	rsb	r10, r2, r10
	str	r2, [fp, #-64]
	mov	r1, r2
	bl	BsGet
	and	r3, r10, #7
	ldr	r2, [fp, #-64]
	add	r9, r9, r2
	str	r9, [r6, #32]
	orr	r0, r4, r0, asl r3
	str	r0, [r6, #28]
	mov	r4, r0
	b	.L907
.L1062:
	rsb	r2, r5, #24
	rsb	r10, r5, #16
	bic	r2, r2, #7
	mov	r0, r6
	rsb	r10, r2, r10
	str	r2, [fp, #-56]
	mov	r1, r2
	bl	BsGet
	ldr	r2, [fp, #-56]
	and	r3, r10, #7
	add	r10, r5, r2
	str	r10, [r6, #32]
	mov	r5, r10
	orr	r0, r4, r0, asl r3
	str	r0, [r6, #28]
	mov	r4, r0
	b	.L969
.L886:
	rsb	r7, r5, #24
	ldr	r4, [r1, #28]
	bic	r7, r7, #7
	mov	r0, r1
	rsb	r9, r5, #16
	add	r5, r5, r7
	mov	r1, r7
	rsb	r9, r7, r9
	bl	BsGet
	and	r9, r9, #7
	str	r5, [r6, #32]
	orr	r0, r4, r0, asl r9
	str	r0, [r6, #28]
	b	.L887
.L889:
	ldr	r2, [fp, #-52]
	cmp	r2, #1
	beq	.L894
	b	.L893
	UNWIND(.fnend)
	.size	Vp9_ReadCompPred, .-Vp9_ReadCompPred
	.align	2
	.global	Vp9_ReadMvProbs
	.type	Vp9_ReadMvProbs, %function
Vp9_ReadMvProbs:
	UNWIND(.fnstart)
	@ args = 0, pretend = 0, frame = 40
	@ frame_needed = 1, uses_anonymous_args = 0
	UNWIND(.movsp ip)
	mov	ip, sp
	stmfd	sp!, {r4, r5, r6, r7, r8, r9, r10, fp, ip, lr, pc}
	UNWIND(.pad #4)
	UNWIND(.save {r4, r5, r6, r7, r8, r9, r10, fp, ip, lr})
	UNWIND(.setfp fp, ip, #-4)
	sub	fp, ip, #4
	UNWIND(.pad #44)
	sub	sp, sp, #44
	ldr	r4, [r0, #36]
	ldr	r5, [r0, #32]
	mov	r3, r1
	ldr	r6, [r0, #28]
	mov	ip, r0
	mov	r9, r3
	mov	r7, r0
	str	r1, [fp, #-76]
	add	r1, r1, #3
	str	r2, [fp, #-80]
	str	r1, [fp, #-48]
	str	r3, [fp, #-84]
.L1085:
	sub	r3, r4, #1
	cmp	r5, #0
	mov	r4, r3, asl #8
	sub	r3, r4, r3, asl #2
	mov	r3, r3, lsr #8
	add	r4, r3, #1
	blt	.L1184
.L1080:
	mov	r2, r4, asl #24
	cmp	r2, r6
	bhi	.L1081
	ldr	r3, [r7, #36]
	rsb	r6, r2, r6
	ldr	r1, .L1202
	mov	r10, #0
	rsb	r3, r4, r3
	mov	r8, #6
	add	r1, r1, r3
	mov	r2, #1
	str	r9, [fp, #-56]
	ldrb	r4, [r1, #24]	@ zero_extendqisi2
	mov	r6, r6, asl r4
	rsb	r5, r4, r5
	str	r6, [r7, #28]
	mov	r4, r3, asl r4
	str	r5, [r7, #32]
	str	r4, [r7, #36]
	b	.L1084
.L1082:
	mov	r3, r4, asl #24
	mov	r1, r2, asl r8
	cmp	r3, r0
	sub	r8, r8, #1
	rsbls	r0, r3, r0
	ldr	r3, .L1202
	ldrls	ip, [r7, #36]
	movhi	r1, #0
	orr	r10, r10, r1
	rsbls	r4, r4, ip
	cmn	r8, #1
	add	r3, r3, r4
	ldrb	r3, [r3, #24]	@ zero_extendqisi2
	mov	r6, r0, asl r3
	rsb	r5, r3, r5
	mov	r4, r4, asl r3
	str	r6, [r7, #28]
	str	r5, [r7, #32]
	str	r4, [r7, #36]
	beq	.L1185
.L1084:
	sub	r4, r4, #1
	cmp	r5, #0
	ubfx	r4, r4, #1, #24
	mov	r0, r6
	add	r4, r4, #1
	bge	.L1082
	rsb	r1, r5, #24
	rsb	r3, r5, #16
	bic	r1, r1, #7
	mov	r0, r7
	str	r2, [fp, #-52]
	rsb	r9, r1, r3
	add	r5, r1, r5
	bl	BsGet
	and	r3, r9, #7
	ldr	r2, [fp, #-52]
	orr	r0, r6, r0, asl r3
	b	.L1082
.L1081:
	ldr	r3, .L1202
	add	r3, r3, r4
	ldrb	r3, [r3, #24]	@ zero_extendqisi2
	mov	r6, r6, asl r3
	rsb	r5, r3, r5
	mov	r4, r4, asl r3
	str	r6, [r7, #28]
	str	r5, [r7, #32]
	str	r4, [r7, #36]
.L1138:
	ldr	r3, [fp, #-48]
	add	r9, r9, #1
	cmp	r9, r3
	bne	.L1085
	ldr	r3, [fp, #-76]
	mov	ip, r7
	add	r2, r3, #25
	add	r3, r3, #91
	str	r2, [fp, #-48]
	str	r3, [fp, #-64]
.L1108:
	sub	r4, r4, #1
	cmp	r5, #0
	mov	r3, r4, asl #8
	sub	r4, r3, r4, asl #2
	mov	r4, r4, lsr #8
	add	r4, r4, #1
	blt	.L1186
.L1086:
	mov	r2, r4, asl #24
	cmp	r2, r6
	bhi	.L1087
	ldr	r3, [r7, #36]
	rsb	r6, r2, r6
	mov	r9, #0
	mov	r8, #6
	rsb	r4, r4, r3
	ldr	r3, .L1202
	mov	r10, #1
	add	r3, r3, r4
	ldrb	r3, [r3, #24]	@ zero_extendqisi2
	mov	r6, r6, asl r3
	rsb	r5, r3, r5
	mov	r4, r4, asl r3
	str	r6, [r7, #28]
	str	r5, [r7, #32]
	str	r4, [r7, #36]
	b	.L1090
.L1088:
	mov	r3, r4, asl #24
	mov	r2, r10, asl r8
	cmp	r3, r0
	sub	r8, r8, #1
	rsbls	r0, r3, r0
	ldr	r3, .L1202
	ldrls	r1, [r7, #36]
	movhi	r2, #0
	orr	r9, r9, r2
	rsbls	r4, r4, r1
	cmn	r8, #1
	add	r3, r3, r4
	ldrb	r3, [r3, #24]	@ zero_extendqisi2
	mov	r6, r0, asl r3
	rsb	r5, r3, r5
	mov	r4, r4, asl r3
	str	r6, [r7, #28]
	str	r5, [r7, #32]
	str	r4, [r7, #36]
	beq	.L1187
.L1090:
	sub	r4, r4, #1
	cmp	r5, #0
	ubfx	r4, r4, #1, #24
	mov	r0, r6
	add	r4, r4, #1
	bge	.L1088
	rsb	r1, r5, #24
	rsb	r3, r5, #16
	bic	r1, r1, #7
	mov	r0, r7
	rsb	r3, r1, r3
	add	r5, r1, r5
	str	r3, [fp, #-52]
	bl	BsGet
	ldr	r3, [fp, #-52]
	and	r3, r3, #7
	orr	r0, r6, r0, asl r3
	b	.L1088
.L1185:
	ldr	r9, [fp, #-56]
	mov	r3, r10, asl #1
	orr	r3, r3, #1
	strb	r3, [r9]
	ldr	r4, [r7, #36]
	ldr	r5, [r7, #32]
	ldr	r6, [r7, #28]
	b	.L1138
.L1087:
	ldr	r3, .L1202
	add	r3, r3, r4
	ldrb	r3, [r3, #24]	@ zero_extendqisi2
	mov	r6, r6, asl r3
	rsb	r5, r3, r5
	mov	r4, r4, asl r3
	str	r6, [r7, #28]
	str	r5, [r7, #32]
	str	r4, [r7, #36]
.L1139:
	ldr	r3, [fp, #-48]
	sub	r10, r3, #21
	sub	r3, r3, #11
	str	r3, [fp, #-52]
	mov	r9, r10
.L1096:
	sub	r4, r4, #1
	cmp	r5, #0
	mov	r3, r4, asl #8
	sub	r4, r3, r4, asl #2
	mov	r4, r4, lsr #8
	add	r4, r4, #1
	blt	.L1188
.L1091:
	mov	r2, r4, asl #24
	cmp	r2, r6
	bhi	.L1092
	ldr	r3, [r7, #36]
	rsb	r6, r2, r6
	ldr	r1, .L1202
	mov	r10, #0
	rsb	r3, r4, r3
	mov	r8, #6
	add	r1, r1, r3
	mov	r2, #1
	str	r9, [fp, #-60]
	ldrb	r4, [r1, #24]	@ zero_extendqisi2
	mov	r6, r6, asl r4
	rsb	r5, r4, r5
	str	r6, [r7, #28]
	mov	r4, r3, asl r4
	str	r5, [r7, #32]
	str	r4, [r7, #36]
	b	.L1095
.L1093:
	mov	r3, r4, asl #24
	mov	r1, r2, asl r8
	cmp	r3, r0
	sub	r8, r8, #1
	rsbls	r0, r3, r0
	ldr	r3, .L1202
	ldrls	ip, [r7, #36]
	movhi	r1, #0
	orr	r10, r10, r1
	rsbls	r4, r4, ip
	cmn	r8, #1
	add	r3, r3, r4
	ldrb	r3, [r3, #24]	@ zero_extendqisi2
	mov	r6, r0, asl r3
	rsb	r5, r3, r5
	mov	r4, r4, asl r3
	str	r6, [r7, #28]
	str	r5, [r7, #32]
	str	r4, [r7, #36]
	beq	.L1189
.L1095:
	sub	r4, r4, #1
	cmp	r5, #0
	ubfx	r4, r4, #1, #24
	mov	r0, r6
	add	r4, r4, #1
	bge	.L1093
	rsb	r1, r5, #24
	rsb	r3, r5, #16
	bic	r1, r1, #7
	mov	r0, r7
	str	r2, [fp, #-56]
	rsb	r9, r1, r3
	add	r5, r1, r5
	bl	BsGet
	and	r3, r9, #7
	ldr	r2, [fp, #-56]
	orr	r0, r6, r0, asl r3
	b	.L1093
.L1092:
	ldr	r3, .L1202
	add	r3, r3, r4
	ldrb	r3, [r3, #24]	@ zero_extendqisi2
	mov	r6, r6, asl r3
	rsb	r5, r3, r5
	mov	r4, r4, asl r3
	str	r6, [r7, #28]
	str	r5, [r7, #32]
	str	r4, [r7, #36]
.L1140:
	ldr	r3, [fp, #-52]
	add	r9, r9, #1
	cmp	r9, r3
	bne	.L1096
	sub	r4, r4, #1
	cmp	r5, #0
	mov	r3, r4, asl #8
	sub	r4, r3, r4, asl #2
	mov	r4, r4, lsr #8
	add	r4, r4, #1
	blt	.L1190
.L1097:
	mov	r2, r4, asl #24
	cmp	r2, r6
	bhi	.L1098
	ldr	r3, [r7, #36]
	rsb	r6, r2, r6
	mov	r9, #0
	mov	r8, #6
	rsb	r4, r4, r3
	ldr	r3, .L1202
	mov	r10, #1
	add	r3, r3, r4
	ldrb	r3, [r3, #24]	@ zero_extendqisi2
	mov	r6, r6, asl r3
	rsb	r5, r3, r5
	mov	r4, r4, asl r3
	str	r6, [r7, #28]
	str	r5, [r7, #32]
	str	r4, [r7, #36]
	b	.L1101
.L1099:
	mov	r3, r4, asl #24
	mov	r2, r10, asl r8
	cmp	r3, r0
	sub	r8, r8, #1
	rsbls	r0, r3, r0
	ldr	r3, .L1202
	ldrls	r1, [r7, #36]
	movhi	r2, #0
	orr	r9, r9, r2
	rsbls	r4, r4, r1
	cmn	r8, #1
	add	r3, r3, r4
	ldrb	r3, [r3, #24]	@ zero_extendqisi2
	mov	r6, r0, asl r3
	rsb	r5, r3, r5
	mov	r4, r4, asl r3
	str	r6, [r7, #28]
	str	r5, [r7, #32]
	str	r4, [r7, #36]
	beq	.L1191
.L1101:
	sub	r4, r4, #1
	cmp	r5, #0
	ubfx	r4, r4, #1, #24
	mov	r0, r6
	add	r4, r4, #1
	bge	.L1099
	rsb	r1, r5, #24
	rsb	r3, r5, #16
	bic	r1, r1, #7
	mov	r0, r7
	rsb	r3, r1, r3
	add	r5, r1, r5
	str	r3, [fp, #-52]
	bl	BsGet
	ldr	r3, [fp, #-52]
	and	r3, r3, #7
	orr	r0, r6, r0, asl r3
	b	.L1099
.L1189:
	ldr	r9, [fp, #-60]
	mov	r10, r10, asl #1
	orr	r10, r10, #1
	strb	r10, [r9]
	ldr	r4, [r7, #36]
	ldr	r5, [r7, #32]
	ldr	r6, [r7, #28]
	b	.L1140
.L1188:
	rsb	r10, r5, #24
	mov	r0, r7
	bic	r10, r10, #7
	rsb	r8, r5, #16
	rsb	r8, r10, r8
	add	r5, r10, r5
	mov	r1, r10
	and	r8, r8, #7
	bl	BsGet
	str	r5, [r7, #32]
	orr	r0, r6, r0, asl r8
	str	r0, [r7, #28]
	mov	r6, r0
	b	.L1091
.L1098:
	ldr	r3, .L1202
	add	r3, r3, r4
	ldrb	r3, [r3, #24]	@ zero_extendqisi2
	mov	r6, r6, asl r3
	rsb	r5, r3, r5
	mov	r4, r4, asl r3
	str	r6, [r7, #28]
	str	r5, [r7, #32]
	str	r4, [r7, #36]
.L1141:
	ldr	r3, [fp, #-48]
	sub	r2, r3, #10
	mov	r9, r2
.L1107:
	sub	r4, r4, #1
	cmp	r5, #0
	mov	r3, r4, asl #8
	sub	r4, r3, r4, asl #2
	mov	r4, r4, lsr #8
	add	r4, r4, #1
	blt	.L1192
.L1102:
	mov	r1, r4, asl #24
	cmp	r1, r6
	bhi	.L1103
	ldr	r3, [r7, #36]
	rsb	r6, r1, r6
	ldr	r2, .L1202
	mov	r10, #0
	rsb	r3, r4, r3
	mov	r8, #6
	add	r1, r2, r3
	mov	ip, #1
	str	r9, [fp, #-56]
	ldrb	r4, [r1, #24]	@ zero_extendqisi2
	mov	r6, r6, asl r4
	rsb	r5, r4, r5
	str	r6, [r7, #28]
	mov	r4, r3, asl r4
	str	r5, [r7, #32]
	str	r4, [r7, #36]
	b	.L1106
.L1104:
	mov	r3, r4, asl #24
	mov	r2, ip, asl r8
	cmp	r3, r0
	sub	r8, r8, #1
	rsbls	r0, r3, r0
	ldr	r3, .L1202
	ldrls	r1, [r7, #36]
	movhi	r2, #0
	orr	r10, r10, r2
	rsbls	r4, r4, r1
	cmn	r8, #1
	add	r3, r3, r4
	ldrb	r3, [r3, #24]	@ zero_extendqisi2
	mov	r6, r0, asl r3
	rsb	r5, r3, r5
	mov	r4, r4, asl r3
	str	r6, [r7, #28]
	str	r5, [r7, #32]
	str	r4, [r7, #36]
	beq	.L1193
.L1106:
	sub	r4, r4, #1
	cmp	r5, #0
	ubfx	r4, r4, #1, #24
	mov	r0, r6
	add	r4, r4, #1
	bge	.L1104
	rsb	r1, r5, #24
	rsb	r3, r5, #16
	bic	r1, r1, #7
	mov	r0, r7
	str	ip, [fp, #-52]
	rsb	r9, r1, r3
	add	r5, r1, r5
	bl	BsGet
	and	r3, r9, #7
	ldr	ip, [fp, #-52]
	orr	r0, r6, r0, asl r3
	b	.L1104
.L1103:
	ldr	r3, .L1202
	add	r3, r3, r4
	ldrb	r3, [r3, #24]	@ zero_extendqisi2
	mov	r6, r6, asl r3
	rsb	r5, r3, r5
	mov	r4, r4, asl r3
	str	r6, [r7, #28]
	str	r5, [r7, #32]
	str	r4, [r7, #36]
.L1142:
	ldr	r3, [fp, #-48]
	add	r9, r9, #1
	cmp	r9, r3
	bne	.L1107
	ldr	r2, [fp, #-64]
	add	r3, r9, #33
	str	r3, [fp, #-48]
	cmp	r3, r2
	bne	.L1108
	ldr	r3, [fp, #-76]
	mov	r10, #1
	add	r2, r3, #31
	add	r3, r3, #97
	str	r2, [fp, #-68]
	str	r3, [fp, #-72]
.L1109:
	ldr	r3, [fp, #-68]
	sub	r3, r3, #6
	str	r3, [fp, #-48]
	mov	r3, #2
	str	r3, [fp, #-64]
.L1124:
	ldr	ip, [fp, #-48]
	mov	r2, #0
.L1115:
	sub	r4, r4, #1
	cmp	r5, #0
	mov	r3, r4, asl #8
	sub	r4, r3, r4, asl #2
	mov	r4, r4, lsr #8
	add	r4, r4, #1
	blt	.L1194
.L1110:
	mov	r1, r4, asl #24
	cmp	r1, r6
	bhi	.L1111
	ldr	r3, [r7, #36]
	rsb	r6, r1, r6
	ldr	r1, .L1202
	mov	r9, #0
	rsb	r3, r4, r3
	mov	r8, #6
	add	r1, r1, r3
	str	r2, [fp, #-56]
	str	ip, [fp, #-60]
	ldrb	r4, [r1, #24]	@ zero_extendqisi2
	mov	r6, r6, asl r4
	rsb	r5, r4, r5
	mov	r4, r3, asl r4
	str	r6, [r7, #28]
	mov	r3, r6
	str	r5, [r7, #32]
	mov	r6, r9
	str	r4, [r7, #36]
	mov	r9, r3
	b	.L1114
.L1112:
	mov	r3, r4, asl #24
	mov	r1, r10, asl r8
	cmp	r3, r0
	sub	r8, r8, #1
	rsbls	r0, r3, r0
	ldr	r3, .L1202
	ldrls	ip, [r7, #36]
	movhi	r1, #0
	orr	r6, r6, r1
	rsbls	r4, r4, ip
	cmn	r8, #1
	add	r3, r3, r4
	ldrb	r1, [r3, #24]	@ zero_extendqisi2
	mov	r9, r0, asl r1
	rsb	r5, r1, r5
	mov	r4, r4, asl r1
	str	r9, [r7, #28]
	str	r5, [r7, #32]
	str	r4, [r7, #36]
	beq	.L1195
.L1114:
	sub	r4, r4, #1
	cmp	r5, #0
	ubfx	r4, r4, #1, #24
	mov	r0, r9
	add	r4, r4, #1
	bge	.L1112
	rsb	r1, r5, #24
	rsb	ip, r5, #16
	bic	r1, r1, #7
	mov	r0, r7
	rsb	ip, r1, ip
	add	r5, r1, r5
	str	ip, [fp, #-52]
	bl	BsGet
	ldr	ip, [fp, #-52]
	and	ip, ip, #7
	orr	r0, r9, r0, asl ip
	b	.L1112
.L1193:
	ldr	r9, [fp, #-56]
	mov	r10, r10, asl #1
	orr	r10, r10, #1
	strb	r10, [r9]
	ldr	r4, [r7, #36]
	ldr	r5, [r7, #32]
	ldr	r6, [r7, #28]
	b	.L1142
.L1111:
	ldr	r3, .L1202
	add	r3, r3, r4
	ldrb	r3, [r3, #24]	@ zero_extendqisi2
	mov	r6, r6, asl r3
	rsb	r5, r3, r5
	mov	r4, r4, asl r3
	str	r6, [r7, #28]
	str	r5, [r7, #32]
	str	r4, [r7, #36]
.L1143:
	add	r2, r2, #1
	add	ip, ip, #1
	cmp	r2, #3
	bne	.L1115
	ldr	r3, [fp, #-64]
	subs	r3, r3, #1
	str	r3, [fp, #-64]
	ldr	r3, [fp, #-48]
	add	r3, r3, #3
	str	r3, [fp, #-48]
	bne	.L1124
	ldr	r3, [fp, #-64]
	ldr	r2, [fp, #-68]
.L1116:
	sub	r4, r4, #1
	cmp	r5, #0
	mov	r1, r4, asl #8
	sub	r4, r1, r4, asl #2
	mov	r4, r4, lsr #8
	add	r4, r4, #1
	blt	.L1196
.L1117:
	mov	r0, r4, asl #24
	cmp	r0, r6
	bhi	.L1118
	ldr	r1, [r7, #36]
	rsb	r6, r0, r6
	ldr	r0, .L1202
	mov	r9, #0
	rsb	r1, r4, r1
	str	r3, [fp, #-52]
	add	r0, r0, r1
	mov	r8, #6
	str	r2, [fp, #-56]
	ldrb	r4, [r0, #24]	@ zero_extendqisi2
	mov	r6, r6, asl r4
	rsb	r5, r4, r5
	str	r6, [r7, #28]
	mov	r4, r1, asl r4
	mov	r3, r6
	str	r5, [r7, #32]
	mov	r6, r9
	str	r4, [r7, #36]
	mov	r9, r3
	b	.L1121
.L1119:
	mov	r3, r4, asl #24
	mov	r1, r10, asl r8
	cmp	r3, r0
	sub	r8, r8, #1
	rsbls	r0, r3, r0
	ldr	r3, .L1202
	ldrls	ip, [r7, #36]
	movhi	r1, #0
	orr	r6, r6, r1
	rsbls	r4, r4, ip
	cmn	r8, #1
	add	r3, r3, r4
	ldrb	r1, [r3, #24]	@ zero_extendqisi2
	mov	r9, r0, asl r1
	rsb	r5, r1, r5
	mov	r4, r4, asl r1
	str	r9, [r7, #28]
	str	r5, [r7, #32]
	str	r4, [r7, #36]
	beq	.L1197
.L1121:
	sub	r4, r4, #1
	cmp	r5, #0
	ubfx	r4, r4, #1, #24
	mov	r0, r9
	add	r4, r4, #1
	bge	.L1119
	rsb	r1, r5, #24
	rsb	ip, r5, #16
	bic	r1, r1, #7
	mov	r0, r7
	rsb	ip, r1, ip
	add	r5, r1, r5
	str	ip, [fp, #-48]
	bl	BsGet
	ldr	ip, [fp, #-48]
	and	ip, ip, #7
	orr	r0, r9, r0, asl ip
	b	.L1119
.L1195:
	ldr	ip, [fp, #-60]
	mov	r9, r6, asl #1
	orr	r9, r9, #1
	ldr	r2, [fp, #-56]
	strb	r9, [ip]
	ldr	r4, [r7, #36]
	ldr	r5, [r7, #32]
	ldr	r6, [r7, #28]
	b	.L1143
.L1192:
	rsb	r10, r5, #24
	mov	r0, r7
	bic	r10, r10, #7
	rsb	r8, r5, #16
	rsb	r8, r10, r8
	add	r5, r10, r5
	mov	r1, r10
	and	r8, r8, #7
	bl	BsGet
	str	r5, [r7, #32]
	orr	r0, r6, r0, asl r8
	str	r0, [r7, #28]
	mov	r6, r0
	b	.L1102
.L1118:
	ldr	r1, .L1202
	add	r3, r3, #1
	cmp	r3, #3
	add	r2, r2, #1
	add	r1, r1, r4
	ldrb	r1, [r1, #24]	@ zero_extendqisi2
	mov	r6, r6, asl r1
	rsb	r5, r1, r5
	mov	r4, r4, asl r1
	str	r6, [r7, #28]
	str	r5, [r7, #32]
	str	r4, [r7, #36]
	beq	.L1122
.L1198:
	ldr	r4, [r7, #36]
	ldr	r5, [r7, #32]
	ldr	r6, [r7, #28]
	b	.L1116
.L1197:
	ldr	r3, [fp, #-52]
	mov	r9, r6, asl #1
	ldr	r2, [fp, #-56]
	orr	r9, r9, #1
	add	r3, r3, #1
	cmp	r3, #3
	add	r2, r2, #1
	strb	r9, [r2, #-1]
	bne	.L1198
.L1122:
	ldr	r3, [fp, #-68]
	ldr	r2, [fp, #-72]
	add	r3, r3, #33
	str	r3, [fp, #-68]
	cmp	r3, r2
	beq	.L1123
	ldr	r4, [r7, #36]
	ldr	r5, [r7, #32]
	ldr	r6, [r7, #28]
	b	.L1109
.L1194:
	rsb	r9, r5, #24
	mov	r0, r7
	bic	r9, r9, #7
	str	ip, [fp, #-56]
	str	r2, [fp, #-52]
	rsb	r8, r5, #16
	mov	r1, r9
	rsb	r8, r9, r8
	bl	BsGet
	and	r8, r8, #7
	add	r5, r9, r5
	ldr	ip, [fp, #-56]
	str	r5, [r7, #32]
	ldr	r2, [fp, #-52]
	orr	r0, r6, r0, asl r8
	str	r0, [r7, #28]
	mov	r6, r0
	b	.L1110
.L1196:
	rsb	r9, r5, #24
	mov	r0, r7
	bic	r9, r9, #7
	str	r2, [fp, #-52]
	str	r3, [fp, #-48]
	rsb	r8, r5, #16
	mov	r1, r9
	rsb	r8, r9, r8
	bl	BsGet
	and	r8, r8, #7
	add	r5, r9, r5
	ldr	r2, [fp, #-52]
	str	r5, [r7, #32]
	ldr	r3, [fp, #-48]
	orr	r0, r6, r0, asl r8
	str	r0, [r7, #28]
	mov	r6, r0
	b	.L1117
.L1191:
	ldr	r2, [fp, #-48]
	mov	r3, r9, asl #1
	orr	r3, r3, #1
	strb	r3, [r2, #-11]
	ldr	r4, [r7, #36]
	ldr	r5, [r7, #32]
	ldr	r6, [r7, #28]
	b	.L1141
.L1187:
	ldr	r2, [fp, #-48]
	mov	r3, r9, asl #1
	orr	r3, r3, #1
	strb	r3, [r2, #-22]
	ldr	r4, [r7, #36]
	ldr	r5, [r7, #32]
	ldr	r6, [r7, #28]
	b	.L1139
.L1123:
	ldr	r3, [fp, #-80]
	mov	ip, r7
	cmp	r3, #0
	beq	.L1079
	ldr	r3, [fp, #-76]
	add	r6, r3, #66
	str	r6, [fp, #-48]
	ldr	r6, [fp, #-84]
.L1136:
	ldr	r3, [r7, #36]
	ldr	r5, [r7, #32]
	sub	r2, r3, #1
	cmp	r5, #0
	mov	r3, r2, asl #8
	sub	r3, r3, r2, asl #2
	mov	r3, r3, lsr #8
	add	r4, r3, #1
	blt	.L1125
	ldr	r8, [r7, #28]
.L1126:
	mov	r2, r4, asl #24
	cmp	r2, r8
	bhi	.L1127
	ldr	r3, [r7, #36]
	rsb	r8, r2, r8
	ldr	r1, .L1202
	mov	r10, #0
	rsb	r3, r4, r3
	mov	r9, #6
	add	r1, r1, r3
	mov	r2, #1
	str	r6, [fp, #-56]
	ldrb	r4, [r1, #24]	@ zero_extendqisi2
	mov	r8, r8, asl r4
	rsb	r5, r4, r5
	str	r8, [r7, #28]
	mov	r4, r3, asl r4
	str	r5, [r7, #32]
	str	r4, [r7, #36]
	b	.L1130
.L1128:
	mov	r3, r4, asl #24
	mov	r1, r2, asl r9
	cmp	r3, r0
	sub	r9, r9, #1
	rsbls	r0, r3, r0
	ldr	r3, .L1202
	ldrls	ip, [r7, #36]
	movhi	r1, #0
	orr	r10, r10, r1
	rsbls	r4, r4, ip
	cmn	r9, #1
	add	r3, r3, r4
	ldrb	r3, [r3, #24]	@ zero_extendqisi2
	mov	r8, r0, asl r3
	rsb	r5, r3, r5
	mov	r4, r4, asl r3
	str	r8, [r7, #28]
	str	r5, [r7, #32]
	str	r4, [r7, #36]
	beq	.L1199
.L1130:
	sub	r4, r4, #1
	cmp	r5, #0
	ubfx	r4, r4, #1, #24
	mov	r0, r8
	add	r4, r4, #1
	bge	.L1128
	rsb	r1, r5, #24
	rsb	r3, r5, #16
	bic	r1, r1, #7
	mov	r0, r7
	str	r2, [fp, #-52]
	rsb	r6, r1, r3
	add	r5, r1, r5
	bl	BsGet
	and	r3, r6, #7
	ldr	r2, [fp, #-52]
	orr	r0, r8, r0, asl r3
	b	.L1128
.L1132:
	ldr	r3, .L1202
	add	r3, r3, r4
	ldrb	r3, [r3, #24]	@ zero_extendqisi2
	mov	r8, r8, asl r3
	rsb	r5, r3, r5
	str	r8, [r7, #28]
	mov	r3, r4, asl r3
	str	r5, [r7, #32]
	str	r3, [r7, #36]
.L1146:
	ldr	r3, [fp, #-48]
	add	r6, r6, #33
	cmp	r6, r3
	bne	.L1136
.L1079:
	sub	sp, fp, #40
	ldmfd	sp, {r4, r5, r6, r7, r8, r9, r10, fp, sp, pc}
.L1127:
	ldr	r3, .L1202
	add	r3, r3, r4
	ldrb	r3, [r3, #24]	@ zero_extendqisi2
	mov	r8, r8, asl r3
	rsb	r5, r3, r5
	str	r8, [r7, #28]
	mov	r3, r4, asl r3
	str	r5, [r7, #32]
	str	r3, [r7, #36]
.L1145:
	sub	r3, r3, #1
	cmp	r5, #0
	mov	r2, r3, asl #8
	sub	r3, r2, r3, asl #2
	mov	r3, r3, lsr #8
	add	r4, r3, #1
	blt	.L1200
.L1131:
	mov	r2, r4, asl #24
	cmp	r2, r8
	bhi	.L1132
	ldr	r3, [r7, #36]
	rsb	r8, r2, r8
	ldr	r1, .L1202
	mov	r10, #0
	rsb	r3, r4, r3
	mov	r9, #6
	add	r1, r1, r3
	mov	r2, #1
	str	r6, [fp, #-56]
	ldrb	r4, [r1, #24]	@ zero_extendqisi2
	mov	r8, r8, asl r4
	rsb	r5, r4, r5
	str	r8, [r7, #28]
	mov	r4, r3, asl r4
	str	r5, [r7, #32]
	str	r4, [r7, #36]
	b	.L1135
.L1133:
	mov	r3, r4, asl #24
	mov	r1, r2, asl r9
	cmp	r3, r0
	sub	r9, r9, #1
	rsbls	r0, r3, r0
	ldr	r3, .L1202
	ldrls	ip, [r7, #36]
	movhi	r1, #0
	orr	r10, r10, r1
	rsbls	r4, r4, ip
	cmn	r9, #1
	add	r3, r3, r4
	ldrb	r3, [r3, #24]	@ zero_extendqisi2
	mov	r8, r0, asl r3
	rsb	r5, r3, r5
	mov	r4, r4, asl r3
	str	r8, [r7, #28]
	str	r5, [r7, #32]
	str	r4, [r7, #36]
	beq	.L1201
.L1135:
	sub	r4, r4, #1
	cmp	r5, #0
	ubfx	r4, r4, #1, #24
	mov	r0, r8
	add	r4, r4, #1
	bge	.L1133
	rsb	r1, r5, #24
	rsb	r3, r5, #16
	bic	r1, r1, #7
	mov	r0, r7
	str	r2, [fp, #-52]
	rsb	r6, r1, r3
	add	r5, r1, r5
	bl	BsGet
	and	r3, r6, #7
	ldr	r2, [fp, #-52]
	orr	r0, r8, r0, asl r3
	b	.L1133
.L1201:
	ldr	r6, [fp, #-56]
	mov	r3, r10, asl #1
	orr	r3, r3, #1
	strb	r3, [r6, #35]
	b	.L1146
.L1199:
	ldr	r6, [fp, #-56]
	mov	r3, r10, asl #1
	orr	r3, r3, #1
	strb	r3, [r6, #34]
	ldr	r3, [r7, #36]
	ldr	r5, [r7, #32]
	ldr	r8, [r7, #28]
	b	.L1145
.L1184:
	rsb	r10, r5, #24
	mov	r0, r7
	bic	r10, r10, #7
	rsb	r8, r5, #16
	rsb	r8, r10, r8
	add	r5, r10, r5
	mov	r1, r10
	and	r8, r8, #7
	bl	BsGet
	str	r5, [r7, #32]
	orr	r0, r6, r0, asl r8
	str	r0, [r7, #28]
	mov	r6, r0
	b	.L1080
.L1190:
	rsb	r9, r5, #24
	mov	r0, r7
	bic	r9, r9, #7
	rsb	r8, r5, #16
	rsb	r8, r9, r8
	add	r5, r9, r5
	mov	r1, r9
	and	r8, r8, #7
	bl	BsGet
	str	r5, [r7, #32]
	orr	r0, r6, r0, asl r8
	str	r0, [r7, #28]
	mov	r6, r0
	b	.L1097
.L1186:
	rsb	r9, r5, #24
	mov	r0, r7
	bic	r9, r9, #7
	rsb	r8, r5, #16
	rsb	r8, r9, r8
	add	r5, r9, r5
	mov	r1, r9
	and	r8, r8, #7
	bl	BsGet
	str	r5, [r7, #32]
	orr	r0, r6, r0, asl r8
	str	r0, [r7, #28]
	mov	r6, r0
	b	.L1086
.L1125:
	rsb	r9, r5, #24
	mov	r0, r7
	bic	r9, r9, #7
	ldr	r8, [r7, #28]
	rsb	r10, r5, #16
	add	r5, r5, r9
	mov	r1, r9
	rsb	r10, r9, r10
	bl	BsGet
	and	r10, r10, #7
	str	r5, [r7, #32]
	orr	r0, r8, r0, asl r10
	str	r0, [r7, #28]
	mov	r8, r0
	b	.L1126
.L1200:
	rsb	r10, r5, #24
	mov	r0, r7
	bic	r10, r10, #7
	rsb	r9, r5, #16
	rsb	r9, r10, r9
	add	r5, r10, r5
	mov	r1, r10
	and	r9, r9, #7
	bl	BsGet
	str	r5, [r7, #32]
	orr	r0, r8, r0, asl r9
	str	r0, [r7, #28]
	mov	r8, r0
	b	.L1131
.L1203:
	.align	2
.L1202:
	.word	.LANCHOR0
	UNWIND(.fnend)
	.size	Vp9_ReadMvProbs, .-Vp9_ReadMvProbs
	.align	2
	.global	Vp9_PrepareReadModeInfo
	.type	Vp9_PrepareReadModeInfo, %function
Vp9_PrepareReadModeInfo:
	UNWIND(.fnstart)
	@ args = 16, pretend = 0, frame = 40
	@ frame_needed = 1, uses_anonymous_args = 0
	UNWIND(.movsp ip)
	mov	ip, sp
	stmfd	sp!, {r4, r5, r6, r7, r8, r9, r10, fp, ip, lr, pc}
	UNWIND(.pad #4)
	UNWIND(.save {r4, r5, r6, r7, r8, r9, r10, fp, ip, lr})
	UNWIND(.setfp fp, ip, #-4)
	sub	fp, ip, #4
	UNWIND(.pad #44)
	sub	sp, sp, #44
	add	r10, r0, #2000
	add	r10, r10, #15
	ldr	r7, .L1354
	str	r0, [fp, #-72]
	mov	r6, r1
	add	r0, r0, #2016
	mov	r8, r10
	add	r0, r0, #2
	mov	r9, r3
	str	r0, [fp, #-76]
	mov	r3, #0
	str	r2, [fp, #-56]
	str	r3, [fp, #-48]
.L1208:
	ldr	r4, [r6, #36]
	ldr	r5, [r6, #32]
	sub	r4, r4, #1
	cmp	r5, #0
	mov	r2, r4, asl #8
	sub	r4, r2, r4, asl #2
	mov	r4, r4, lsr #8
	add	r4, r4, #1
	blt	.L1205
	ldr	r10, [r6, #28]
.L1206:
	mov	ip, r4, asl #24
	mov	r1, r8
	cmp	ip, r10
	mov	r0, r6
	rsb	r2, ip, r10
	bhi	.L1207
	ldr	ip, [r6, #36]
	rsb	r4, r4, ip
	add	ip, r7, r4
	ldrb	ip, [ip, #24]	@ zero_extendqisi2
	mov	r2, r2, asl ip
	rsb	r5, ip, r5
	mov	r4, r4, asl ip
	str	r2, [r6, #28]
	str	r5, [r6, #32]
	str	r4, [r6, #36]
	bl	Vp9_DiffUpdateProb
.L1285:
	ldr	r3, [fp, #-76]
	add	r8, r8, #1
	cmp	r8, r3
	bne	.L1208
	ldr	r8, [fp, #-56]
	adds	r8, r8, #0
	movne	r8, #1
	cmp	r9, #0
	movne	r8, #0
	cmp	r8, #0
	bne	.L1331
.L1209:
	ldr	r3, [fp, #-48]
	ldr	r2, [fp, #16]
	str	r3, [r2]
	sub	sp, fp, #40
	ldmfd	sp, {r4, r5, r6, r7, r8, r9, r10, fp, sp, pc}
.L1207:
	add	r2, r7, r4
	ldrb	r2, [r2, #24]	@ zero_extendqisi2
	mov	r10, r10, asl r2
	rsb	r5, r2, r5
	mov	r4, r4, asl r2
	str	r10, [r6, #28]
	str	r5, [r6, #32]
	str	r4, [r6, #36]
	b	.L1285
.L1205:
	rsb	r2, r5, #24
	rsb	ip, r5, #16
	bic	r2, r2, #7
	mov	r0, r6
	rsb	ip, r2, ip
	ldr	r10, [r6, #28]
	mov	r1, r2
	str	ip, [fp, #-64]
	str	r2, [fp, #-60]
	bl	BsGet
	ldr	ip, [fp, #-64]
	ldr	r2, [fp, #-60]
	and	ip, ip, #7
	add	r5, r5, r2
	str	r5, [r6, #32]
	orr	r0, r10, r0, asl ip
	str	r0, [r6, #28]
	mov	r10, r0
	b	.L1206
.L1331:
	mov	r1, r6
	ldr	r0, [fp, #-72]
	bl	Vp9_ReadInterModeProbs
	ldr	r3, [fp, #4]
	cmp	r3, #4
	beq	.L1332
.L1210:
	ldr	r3, [fp, #-72]
	add	r10, r3, #1968
	mov	r3, r10
	add	r3, r3, #15
	add	r10, r10, #11
	mov	r5, r3
.L1214:
	ldr	r4, [r6, #36]
	ldr	r8, [r6, #32]
	sub	r4, r4, #1
	cmp	r8, #0
	mov	r3, r4, asl #8
	sub	r4, r3, r4, asl #2
	mov	r4, r4, lsr #8
	add	r4, r4, #1
	blt	.L1211
	ldr	r3, [r6, #28]
.L1212:
	mov	r2, r4, asl #24
	mov	r1, r10
	cmp	r2, r3
	mov	r0, r6
	rsb	ip, r2, r3
	bhi	.L1213
	ldr	r3, [r6, #36]
	rsb	r4, r4, r3
	add	r3, r7, r4
	ldrb	r3, [r3, #24]	@ zero_extendqisi2
	mov	ip, ip, asl r3
	rsb	r8, r3, r8
	mov	r4, r4, asl r3
	str	ip, [r6, #28]
	str	r8, [r6, #32]
	str	r4, [r6, #36]
	bl	Vp9_DiffUpdateProb
.L1286:
	add	r10, r10, #1
	cmp	r10, r5
	bne	.L1214
	ldr	ip, [fp, #-72]
	sub	r3, fp, #48
	ldr	r2, [fp, #8]
	mov	r1, r6
	add	lr, ip, #1728
	mov	r0, ip
	add	ip, ip, #1760
	mov	r4, lr
	mov	r5, ip
	bl	Vp9_ReadCompPred
	add	r3, r4, #9
	mov	lr, r4
	add	r4, r6, #28
	str	r3, [fp, #-56]
	add	r3, r5, #13
	str	r3, [fp, #-80]
	ldmia	r4, {r4, r5, r9}
	mov	r8, r5
.L1215:
	ldr	r3, [fp, #-56]
	sub	r10, r3, #9
.L1248:
	sub	r5, r9, #1
	cmp	r8, #0
	mov	r3, r5, asl #8
	sub	r5, r3, r5, asl #2
	mov	r5, r5, lsr #8
	add	r5, r5, #1
	blt	.L1333
.L1216:
	mov	r9, r5, asl #24
	cmp	r9, r4
	bhi	.L1217
	ldr	r3, [r6, #36]
	rsb	r9, r9, r4
	rsb	r5, r5, r3
	add	r3, r7, r5
	ldrb	r2, [r3, #24]	@ zero_extendqisi2
	mov	r3, r5, asl r2
	rsb	r5, r2, r8
	sub	r4, r3, #1
	cmp	r5, #0
	ubfx	r4, r4, #1, #24
	mov	r9, r9, asl r2
	str	r3, [r6, #36]
	add	r4, r4, #1
	str	r5, [r6, #32]
	str	r9, [r6, #28]
	blt	.L1334
.L1218:
	mov	r2, r4, asl #24
	cmp	r2, r9
	bhi	.L1219
	ldr	r3, [r6, #36]
	rsb	r9, r2, r9
	rsb	r4, r4, r3
	add	r3, r7, r4
	ldrb	r0, [r3, #24]	@ zero_extendqisi2
	mov	r3, r4, asl r0
	rsb	r4, r0, r5
	cmp	r4, #0
	sub	r5, r3, #1
	ubfx	r5, r5, #1, #24
	mov	r9, r9, asl r0
	str	r3, [r6, #36]
	add	r5, r5, #1
	str	r4, [r6, #32]
	str	r9, [r6, #28]
	blt	.L1335
.L1221:
	mov	r3, r5, asl #24
	cmp	r3, r9
	bhi	.L1226
	ldr	r1, [r6, #36]
	rsb	r3, r3, r9
	rsb	r5, r5, r1
	add	r2, r7, r5
	ldrb	r2, [r2, #24]	@ zero_extendqisi2
	rsb	r9, r2, r4
	mov	r1, r5, asl r2
	sub	r5, r1, #1
	cmp	r9, #0
	ubfx	r5, r5, #1, #24
	mov	r4, r3, asl r2
	str	r1, [r6, #36]
	add	r5, r5, #1
	str	r9, [r6, #32]
	str	r4, [r6, #28]
	blt	.L1336
.L1228:
	mov	r2, r5, asl #24
	cmp	r2, r4
	bhi	.L1232
	ldr	r1, [r6, #36]
	rsb	r2, r2, r4
	mov	r8, #0
	mov	r3, #6
	rsb	r5, r5, r1
	str	r10, [fp, #-68]
	add	r1, r7, r5
	mov	r10, r8
	mov	ip, #1
	ldrb	r4, [r1, #24]	@ zero_extendqisi2
	mov	r2, r2, asl r4
	rsb	r9, r4, r9
	str	r2, [r6, #28]
	mov	r4, r5, asl r4
	str	r9, [r6, #32]
	mov	r5, r3
	str	r4, [r6, #36]
	mov	r8, r2
	b	.L1233
.L1237:
	mov	r2, r4, asl #24
	mov	r1, ip, asl r5
	cmp	r2, r0
	sub	r5, r5, #1
	rsbls	r0, r2, r0
	ldrls	lr, [r6, #36]
	movhi	r1, #0
	orr	r10, r10, r1
	rsbls	r4, r4, lr
	cmn	r5, #1
	add	r2, r7, r4
	ldrb	r2, [r2, #24]	@ zero_extendqisi2
	mov	r8, r0, asl r2
	rsb	r9, r2, r9
	mov	r4, r4, asl r2
	str	r8, [r6, #28]
	str	r9, [r6, #32]
	str	r4, [r6, #36]
	beq	.L1337
.L1233:
	sub	r4, r4, #1
	cmp	r9, #0
	ubfx	r4, r4, #1, #24
	mov	r0, r8
	add	r4, r4, #1
	bge	.L1237
	rsb	r1, r9, #24
	rsb	r2, r9, #16
	bic	r1, r1, #7
	mov	r0, r6
	rsb	r2, r1, r2
	str	ip, [fp, #-64]
	str	r2, [fp, #-60]
	add	r9, r1, r9
	bl	BsGet
	ldr	r2, [fp, #-60]
	ldr	ip, [fp, #-64]
	and	r2, r2, #7
	orr	r0, r8, r0, asl r2
	b	.L1237
.L1217:
	add	r3, r7, r5
	ldrb	r9, [r3, #24]	@ zero_extendqisi2
	mov	r4, r4, asl r9
	rsb	r8, r9, r8
	str	r4, [r6, #28]
	mov	r9, r5, asl r9
	str	r8, [r6, #32]
	str	r9, [r6, #36]
.L1287:
	ldr	r3, [fp, #-56]
	add	r10, r10, #1
	cmp	r10, r3
	bne	.L1248
	ldr	r2, [fp, #-80]
	add	r3, r10, #9
	str	r3, [fp, #-56]
	cmp	r3, r2
	bne	.L1215
	ldr	r3, [fp, #-72]
	add	r2, r3, #1888
	add	r3, r3, #1936
	add	r3, r3, #14
	str	r3, [fp, #-64]
	mov	r3, r9
	add	r2, r2, #14
	str	r2, [fp, #-60]
.L1249:
	ldr	r2, [fp, #-60]
	mov	r10, #0
	mov	r9, r3
	str	r2, [fp, #-56]
.L1284:
	sub	r9, r9, #1
	cmp	r8, #0
	mov	r2, r9, asl #8
	sub	r9, r2, r9, asl #2
	mov	r9, r9, lsr #8
	add	r9, r9, #1
	blt	.L1338
.L1250:
	mov	r0, r9, asl #24
	cmp	r0, r4
	bhi	.L1251
	ldr	r3, [r6, #36]
	rsb	r0, r0, r4
	rsb	r3, r9, r3
	add	r2, r7, r3
	ldrb	r2, [r2, #24]	@ zero_extendqisi2
	mov	r3, r3, asl r2
	rsb	r5, r2, r8
	sub	r4, r3, #1
	cmp	r5, #0
	ubfx	r4, r4, #1, #24
	mov	r9, r0, asl r2
	str	r3, [r6, #36]
	add	r4, r4, #1
	str	r5, [r6, #32]
	str	r9, [r6, #28]
	blt	.L1339
.L1252:
	mov	r2, r4, asl #24
	cmp	r2, r9
	bhi	.L1253
	ldr	ip, [r6, #36]
	rsb	r9, r2, r9
	rsb	r4, r4, ip
	add	r3, r7, r4
	ldrb	r0, [r3, #24]	@ zero_extendqisi2
	mov	ip, r4, asl r0
	rsb	r4, r0, r5
	cmp	r4, #0
	sub	r5, ip, #1
	ubfx	r5, r5, #1, #24
	mov	r9, r9, asl r0
	str	ip, [r6, #36]
	add	r5, r5, #1
	str	r4, [r6, #32]
	str	r9, [r6, #28]
	blt	.L1340
.L1255:
	mov	r3, r5, asl #24
	cmp	r3, r9
	bhi	.L1260
	ldr	r1, [r6, #36]
	rsb	r3, r3, r9
	rsb	r5, r5, r1
	add	r2, r7, r5
	ldrb	ip, [r2, #24]	@ zero_extendqisi2
	mov	r1, r5, asl ip
	rsb	r5, ip, r4
	sub	r9, r1, #1
	cmp	r5, #0
	ubfx	r9, r9, #1, #24
	mov	r4, r3, asl ip
	str	r1, [r6, #36]
	add	r9, r9, #1
	str	r5, [r6, #32]
	str	r4, [r6, #28]
	blt	.L1341
.L1262:
	mov	r3, r9, asl #24
	cmp	r3, r4
	bhi	.L1266
	ldr	r1, [r6, #36]
	rsb	r0, r3, r4
	mov	r2, #6
	mov	r3, #0
	rsb	r4, r9, r1
	str	r10, [fp, #-80]
	add	r1, r7, r4
	mov	ip, #1
	mov	r10, r3
	ldrb	r1, [r1, #24]	@ zero_extendqisi2
	rsb	r8, r1, r5
	mov	r9, r0, asl r1
	mov	r4, r4, asl r1
	str	r9, [r6, #28]
	str	r8, [r6, #32]
	mov	r5, r2
	str	r4, [r6, #36]
	b	.L1267
.L1271:
	mov	r2, r4, asl #24
	mov	r1, ip, asl r5
	cmp	r2, r0
	sub	r5, r5, #1
	rsbls	r0, r2, r0
	ldrls	lr, [r6, #36]
	movhi	r1, #0
	orr	r10, r10, r1
	rsbls	r4, r4, lr
	cmn	r5, #1
	add	r2, r7, r4
	ldrb	r2, [r2, #24]	@ zero_extendqisi2
	mov	r9, r0, asl r2
	rsb	r8, r2, r8
	mov	r4, r4, asl r2
	str	r9, [r6, #28]
	str	r8, [r6, #32]
	str	r4, [r6, #36]
	beq	.L1342
.L1267:
	sub	r4, r4, #1
	cmp	r8, #0
	ubfx	r4, r4, #1, #24
	mov	r0, r9
	add	r4, r4, #1
	bge	.L1271
	rsb	r1, r8, #24
	rsb	r2, r8, #16
	bic	r1, r1, #7
	mov	r0, r6
	rsb	r2, r1, r2
	str	ip, [fp, #-72]
	str	r2, [fp, #-68]
	add	r8, r1, r8
	bl	BsGet
	ldr	r2, [fp, #-68]
	ldr	ip, [fp, #-72]
	and	r2, r2, #7
	orr	r0, r9, r0, asl r2
	b	.L1271
.L1251:
	add	r3, r7, r9
	ldrb	r3, [r3, #24]	@ zero_extendqisi2
	mov	r4, r4, asl r3
	rsb	r5, r3, r8
	mov	r9, r9, asl r3
	str	r4, [r6, #28]
	str	r5, [r6, #32]
	str	r9, [r6, #36]
.L1288:
	add	r10, r10, #1
	ldr	r3, [fp, #-56]
	cmp	r10, #3
	add	r3, r3, #1
	str	r3, [fp, #-56]
	addne	r4, r6, #28
	ldmneia	r4, {r4, r8, r9}
	bne	.L1284
.L1343:
	ldr	r3, [fp, #-60]
	ldr	r2, [fp, #-64]
	add	r3, r3, #3
	str	r3, [fp, #-60]
	cmp	r3, r2
	beq	.L1283
	ldr	r4, [r6, #28]
	ldr	r3, [r6, #36]
	ldr	r8, [r6, #32]
	b	.L1249
.L1338:
	rsb	r2, r8, #24
	rsb	r5, r8, #16
	bic	r2, r2, #7
	mov	r0, r6
	rsb	r5, r2, r5
	str	r2, [fp, #-68]
	mov	r1, r2
	bl	BsGet
	ldr	r2, [fp, #-68]
	and	r3, r5, #7
	add	r5, r2, r8
	str	r5, [r6, #32]
	mov	r8, r5
	orr	r0, r4, r0, asl r3
	str	r0, [r6, #28]
	mov	r4, r0
	b	.L1250
.L1253:
	add	r3, r7, r4
	mov	r8, #0
	mov	r2, #3
	str	r10, [fp, #-80]
	ldrb	r1, [r3, #24]	@ zero_extendqisi2
	mov	r10, r8
	mov	ip, #1
	mov	r9, r9, asl r1
	rsb	r5, r1, r5
	str	r9, [r6, #28]
	mov	r4, r4, asl r1
	mov	r8, r9
	str	r5, [r6, #32]
	str	r4, [r6, #36]
	mov	r9, r2
	b	.L1258
.L1256:
	mov	r2, r4, asl #24
	mov	r1, ip, asl r9
	cmp	r2, r0
	sub	r9, r9, #1
	rsbls	r0, r2, r0
	ldrls	lr, [r6, #36]
	movhi	r1, #0
	orr	r10, r10, r1
	rsbls	r4, r4, lr
	cmn	r9, #1
	add	r2, r7, r4
	ldrb	r2, [r2, #24]	@ zero_extendqisi2
	mov	r8, r0, asl r2
	rsb	r5, r2, r5
	mov	r4, r4, asl r2
	str	r8, [r6, #28]
	str	r5, [r6, #32]
	str	r4, [r6, #36]
	beq	.L1344
.L1258:
	sub	r4, r4, #1
	cmp	r5, #0
	ubfx	r4, r4, #1, #24
	mov	r0, r8
	add	r4, r4, #1
	bge	.L1256
	rsb	r1, r5, #24
	rsb	r2, r5, #16
	bic	r1, r1, #7
	mov	r0, r6
	rsb	r2, r1, r2
	str	ip, [fp, #-72]
	str	r2, [fp, #-68]
	add	r5, r1, r5
	bl	BsGet
	ldr	r2, [fp, #-68]
	ldr	ip, [fp, #-72]
	and	r2, r2, #7
	orr	r0, r8, r0, asl r2
	b	.L1256
.L1344:
	mov	r8, r10
	ldr	r10, [fp, #-80]
.L1259:
	ldr	r3, [fp, #-56]
	add	r8, r7, r8
	ldrb	r1, [r8, #280]	@ zero_extendqisi2
	ldrb	r2, [r3]	@ zero_extendqisi2
	sub	ip, r2, #1
	mov	r0, ip, asl #1
	cmp	r0, #255
	bgt	.L1276
	add	r3, r1, #1
	cmp	r3, r0
	bgt	.L1277
	tst	r3, #1
	addne	r3, r1, #2
	addeq	r3, r3, r3, lsr #31
	subne	r3, ip, r3, asr #1
	addeq	r3, ip, r3, asr #1
.L1277:
	add	r3, r3, #1
.L1279:
	ldr	r2, [fp, #-56]
	strb	r3, [r2]
	b	.L1288
.L1276:
	rsb	r2, r2, #255
	add	r3, r1, #1
	cmp	r3, r2, asl #1
	bgt	.L1280
	tst	r3, #1
	addne	r3, r1, #2
	addeq	r3, r3, r3, lsr #31
	subne	r3, r2, r3, asr #1
	addeq	r3, r2, r3, asr #1
.L1280:
	rsb	r3, r3, #255
	b	.L1279
.L1333:
	rsb	r3, r8, #24
	rsb	r9, r8, #16
	bic	r3, r3, #7
	mov	r0, r6
	rsb	r9, r3, r9
	str	r3, [fp, #-60]
	mov	r1, r3
	and	r9, r9, #7
	bl	BsGet
	ldr	r3, [fp, #-60]
	add	r8, r3, r8
	str	r8, [r6, #32]
	orr	r0, r4, r0, asl r9
	str	r0, [r6, #28]
	mov	r4, r0
	b	.L1216
.L1219:
	add	r3, r7, r4
	mov	r8, #0
	mov	r2, #3
	str	r10, [fp, #-68]
	ldrb	r1, [r3, #24]	@ zero_extendqisi2
	mov	r10, r8
	mov	ip, #1
	mov	r9, r9, asl r1
	rsb	r5, r1, r5
	str	r9, [r6, #28]
	mov	r4, r4, asl r1
	mov	r8, r9
	str	r5, [r6, #32]
	str	r4, [r6, #36]
	mov	r9, r2
	b	.L1224
.L1222:
	mov	r2, r4, asl #24
	mov	r1, ip, asl r9
	cmp	r2, r0
	sub	r9, r9, #1
	rsbls	r0, r2, r0
	ldrls	lr, [r6, #36]
	movhi	r1, #0
	orr	r10, r10, r1
	rsbls	r4, r4, lr
	cmn	r9, #1
	add	r2, r7, r4
	ldrb	r2, [r2, #24]	@ zero_extendqisi2
	mov	r8, r0, asl r2
	rsb	r5, r2, r5
	mov	r4, r4, asl r2
	str	r8, [r6, #28]
	str	r5, [r6, #32]
	str	r4, [r6, #36]
	beq	.L1345
.L1224:
	sub	r4, r4, #1
	cmp	r5, #0
	ubfx	r4, r4, #1, #24
	mov	r0, r8
	add	r4, r4, #1
	bge	.L1222
	rsb	r1, r5, #24
	rsb	r2, r5, #16
	bic	r1, r1, #7
	mov	r0, r6
	rsb	r2, r1, r2
	str	ip, [fp, #-64]
	str	r2, [fp, #-60]
	add	r5, r1, r5
	bl	BsGet
	ldr	r2, [fp, #-60]
	ldr	ip, [fp, #-64]
	and	r2, r2, #7
	orr	r0, r8, r0, asl r2
	b	.L1222
.L1345:
	mov	r8, r10
	ldr	r10, [fp, #-68]
.L1225:
	ldrb	r2, [r10]	@ zero_extendqisi2
	add	r8, r7, r8
	sub	ip, r2, #1
	ldrb	r1, [r8, #280]	@ zero_extendqisi2
	mov	r0, ip, asl #1
	cmp	r0, #255
	bgt	.L1242
	add	r3, r1, #1
	cmp	r3, r0
	bgt	.L1243
	tst	r3, #1
	addne	r3, r1, #2
	addeq	r3, r3, r3, lsr #31
	subne	r3, ip, r3, asr #1
	addeq	r3, ip, r3, asr #1
.L1243:
	add	r3, r3, #1
.L1245:
	add	r4, r6, #28
	strb	r3, [r10]
	ldmia	r4, {r4, r8, r9}
	b	.L1287
.L1242:
	rsb	r2, r2, #255
	add	r3, r1, #1
	cmp	r3, r2, asl #1
	bgt	.L1246
	tst	r3, #1
	addne	r3, r1, #2
	addeq	r3, r3, r3, lsr #31
	subne	r3, r2, r3, asr #1
	addeq	r3, r2, r3, asr #1
.L1246:
	rsb	r3, r3, #255
	b	.L1245
.L1260:
	add	r3, r7, r5
	mov	r8, #0
	mov	r2, #3
	str	r10, [fp, #-80]
	ldrb	r1, [r3, #24]	@ zero_extendqisi2
	mov	r10, r8
	mov	ip, #1
	mov	r9, r9, asl r1
	rsb	r4, r1, r4
	str	r9, [r6, #28]
	mov	r5, r5, asl r1
	mov	r8, r9
	str	r4, [r6, #32]
	str	r5, [r6, #36]
	mov	r9, r2
	b	.L1265
.L1263:
	mov	r2, r5, asl #24
	mov	r1, ip, asl r9
	cmp	r2, r0
	sub	r9, r9, #1
	rsbls	r0, r2, r0
	ldrls	lr, [r6, #36]
	movhi	r1, #0
	orr	r10, r10, r1
	rsbls	r5, r5, lr
	cmn	r9, #1
	add	r2, r7, r5
	ldrb	r2, [r2, #24]	@ zero_extendqisi2
	mov	r8, r0, asl r2
	rsb	r4, r2, r4
	mov	r5, r5, asl r2
	str	r8, [r6, #28]
	str	r4, [r6, #32]
	str	r5, [r6, #36]
	beq	.L1346
.L1265:
	sub	r5, r5, #1
	cmp	r4, #0
	ubfx	r5, r5, #1, #24
	mov	r0, r8
	add	r5, r5, #1
	bge	.L1263
	rsb	r1, r4, #24
	rsb	r2, r4, #16
	bic	r1, r1, #7
	mov	r0, r6
	rsb	r2, r1, r2
	str	ip, [fp, #-72]
	str	r2, [fp, #-68]
	add	r4, r1, r4
	bl	BsGet
	ldr	r2, [fp, #-68]
	ldr	ip, [fp, #-72]
	and	r2, r2, #7
	orr	r0, r8, r0, asl r2
	b	.L1263
.L1346:
	mov	r8, r10
	ldr	r10, [fp, #-80]
	add	r8, r8, #16
	b	.L1259
.L1342:
	mov	r3, r10
	cmp	r3, #64
	ldr	r10, [fp, #-80]
	bgt	.L1347
.L1273:
	add	r8, r3, #64
	b	.L1259
.L1226:
	add	r3, r7, r5
	mov	r8, #0
	mov	r2, #3
	str	r10, [fp, #-68]
	ldrb	r1, [r3, #24]	@ zero_extendqisi2
	mov	r10, r8
	mov	ip, #1
	mov	r9, r9, asl r1
	rsb	r4, r1, r4
	str	r9, [r6, #28]
	mov	r5, r5, asl r1
	mov	r8, r9
	str	r4, [r6, #32]
	str	r5, [r6, #36]
	mov	r9, r2
	b	.L1231
.L1229:
	mov	r2, r5, asl #24
	mov	r1, ip, asl r9
	cmp	r2, r0
	sub	r9, r9, #1
	rsbls	r0, r2, r0
	ldrls	lr, [r6, #36]
	movhi	r1, #0
	orr	r10, r10, r1
	rsbls	r5, r5, lr
	cmn	r9, #1
	add	r2, r7, r5
	ldrb	r2, [r2, #24]	@ zero_extendqisi2
	mov	r8, r0, asl r2
	rsb	r4, r2, r4
	mov	r5, r5, asl r2
	str	r8, [r6, #28]
	str	r4, [r6, #32]
	str	r5, [r6, #36]
	beq	.L1348
.L1231:
	sub	r5, r5, #1
	cmp	r4, #0
	ubfx	r5, r5, #1, #24
	mov	r0, r8
	add	r5, r5, #1
	bge	.L1229
	rsb	r1, r4, #24
	rsb	r2, r4, #16
	bic	r1, r1, #7
	mov	r0, r6
	rsb	r2, r1, r2
	str	ip, [fp, #-64]
	str	r2, [fp, #-60]
	add	r4, r1, r4
	bl	BsGet
	ldr	r2, [fp, #-60]
	ldr	ip, [fp, #-64]
	and	r2, r2, #7
	orr	r0, r8, r0, asl r2
	b	.L1229
.L1348:
	mov	r8, r10
	ldr	r10, [fp, #-68]
	add	r8, r8, #16
	b	.L1225
.L1337:
	mov	r2, r8
	mov	r8, r10
	cmp	r8, #64
	ldr	r10, [fp, #-68]
	bgt	.L1349
.L1239:
	add	r8, r8, #64
	b	.L1225
.L1266:
	add	r3, r7, r9
	mov	r8, #0
	mov	r2, #4
	str	r10, [fp, #-80]
	ldrb	r1, [r3, #24]	@ zero_extendqisi2
	mov	r10, r8
	mov	ip, #1
	mov	r3, r4, asl r1
	mov	r9, r9, asl r1
	rsb	r5, r1, r5
	str	r9, [r6, #36]
	mov	r4, r9
	str	r3, [r6, #28]
	str	r5, [r6, #32]
	mov	r8, r3
	mov	r9, r2
	b	.L1270
.L1268:
	mov	r2, r4, asl #24
	mov	r1, ip, asl r9
	cmp	r2, r0
	sub	r9, r9, #1
	rsbls	r0, r2, r0
	ldrls	lr, [r6, #36]
	movhi	r1, #0
	orr	r10, r10, r1
	rsbls	r4, r4, lr
	cmn	r9, #1
	add	r2, r7, r4
	ldrb	r2, [r2, #24]	@ zero_extendqisi2
	mov	r8, r0, asl r2
	rsb	r5, r2, r5
	mov	r4, r4, asl r2
	str	r8, [r6, #28]
	str	r5, [r6, #32]
	str	r4, [r6, #36]
	beq	.L1350
.L1270:
	sub	r4, r4, #1
	cmp	r5, #0
	ubfx	r4, r4, #1, #24
	mov	r0, r8
	add	r4, r4, #1
	bge	.L1268
	rsb	r1, r5, #24
	rsb	r2, r5, #16
	bic	r1, r1, #7
	mov	r0, r6
	rsb	r2, r1, r2
	str	ip, [fp, #-72]
	str	r2, [fp, #-68]
	add	r5, r1, r5
	bl	BsGet
	ldr	r2, [fp, #-68]
	ldr	ip, [fp, #-72]
	and	r2, r2, #7
	orr	r0, r8, r0, asl r2
	b	.L1268
.L1350:
	mov	r8, r10
	ldr	r10, [fp, #-80]
	add	r8, r8, #32
	b	.L1259
.L1339:
	rsb	r3, r5, #24
	rsb	r8, r5, #16
	bic	r3, r3, #7
	mov	r0, r6
	rsb	r8, r3, r8
	str	r3, [fp, #-68]
	mov	r1, r3
	bl	BsGet
	and	r2, r8, #7
	ldr	r3, [fp, #-68]
	add	r5, r5, r3
	str	r5, [r6, #32]
	orr	r0, r9, r0, asl r2
	str	r0, [r6, #28]
	mov	r9, r0
	b	.L1252
.L1213:
	add	r2, r7, r4
	ldrb	r2, [r2, #24]	@ zero_extendqisi2
	mov	r3, r3, asl r2
	rsb	r8, r2, r8
	mov	r4, r4, asl r2
	str	r3, [r6, #28]
	str	r8, [r6, #32]
	str	r4, [r6, #36]
	b	.L1286
.L1232:
	add	r3, r7, r5
	mov	r8, #0
	mov	ip, #4
	str	r10, [fp, #-68]
	ldrb	r1, [r3, #24]	@ zero_extendqisi2
	mov	r10, r8
	mov	r2, #1
	mov	r3, r4, asl r1
	rsb	r9, r1, r9
	mov	r4, r5, asl r1
	str	r3, [r6, #28]
	str	r9, [r6, #32]
	mov	r5, ip
	str	r4, [r6, #36]
	mov	r8, r3
	b	.L1236
.L1234:
	mov	r1, r4, asl #24
	mov	ip, r2, asl r5
	cmp	r1, r0
	sub	r5, r5, #1
	rsbls	r0, r1, r0
	ldrls	lr, [r6, #36]
	movhi	ip, #0
	orr	r10, r10, ip
	rsbls	r4, r4, lr
	cmn	r5, #1
	add	r1, r7, r4
	ldrb	r1, [r1, #24]	@ zero_extendqisi2
	mov	r8, r0, asl r1
	rsb	r9, r1, r9
	mov	r4, r4, asl r1
	str	r8, [r6, #28]
	str	r9, [r6, #32]
	str	r4, [r6, #36]
	beq	.L1351
.L1236:
	sub	r4, r4, #1
	cmp	r9, #0
	ubfx	r4, r4, #1, #24
	mov	r0, r8
	add	r4, r4, #1
	bge	.L1234
	rsb	r1, r9, #24
	rsb	ip, r9, #16
	bic	r1, r1, #7
	mov	r0, r6
	rsb	ip, r1, ip
	str	r2, [fp, #-64]
	str	ip, [fp, #-60]
	add	r9, r1, r9
	bl	BsGet
	ldr	ip, [fp, #-60]
	ldr	r2, [fp, #-64]
	and	ip, ip, #7
	orr	r0, r8, r0, asl ip
	b	.L1234
.L1351:
	mov	r8, r10
	ldr	r10, [fp, #-68]
	add	r8, r8, #32
	b	.L1225
.L1334:
	rsb	r3, r5, #24
	rsb	r8, r5, #16
	bic	r3, r3, #7
	mov	r0, r6
	rsb	r8, r3, r8
	str	r3, [fp, #-60]
	mov	r1, r3
	bl	BsGet
	and	r2, r8, #7
	ldr	r3, [fp, #-60]
	add	r5, r5, r3
	str	r5, [r6, #32]
	orr	r0, r9, r0, asl r2
	str	r0, [r6, #28]
	mov	r9, r0
	b	.L1218
.L1347:
	sub	r4, r4, #1
	cmp	r8, #0
	ubfx	r4, r4, #1, #24
	mov	r3, r3, asl #1
	add	r4, r4, #1
	sub	r5, r3, #65
	movge	r0, r9
	blt	.L1352
.L1274:
	mov	r3, r4, asl #24
	cmp	r3, r0
	rsbls	r0, r3, r0
	ldrls	r2, [r6, #36]
	movls	r3, #1
	movhi	r3, #0
	add	r3, r5, r3
	rsbls	r4, r4, r2
	add	r2, r7, r4
	ldrb	r1, [r2, #24]	@ zero_extendqisi2
	mov	r9, r0, asl r1
	rsb	r2, r1, r8
	mov	r4, r4, asl r1
	str	r9, [r6, #28]
	str	r2, [r6, #32]
	str	r4, [r6, #36]
	b	.L1273
.L1340:
	rsb	r2, r4, #24
	rsb	r8, r4, #16
	bic	r2, r2, #7
	mov	r0, r6
	rsb	r8, r2, r8
	str	r2, [fp, #-68]
	mov	r1, r2
	bl	BsGet
	and	r3, r8, #7
	ldr	r2, [fp, #-68]
	add	r4, r4, r2
	str	r4, [r6, #32]
	orr	r0, r9, r0, asl r3
	str	r0, [r6, #28]
	mov	r9, r0
	b	.L1255
.L1283:
	ldr	r1, [fp, #-76]
	mov	r0, r6
	ldr	r2, [fp, #12]
	bl	Vp9_ReadMvProbs
	b	.L1209
.L1349:
	sub	r4, r4, #1
	cmp	r9, #0
	ubfx	r4, r4, #1, #24
	mov	r8, r8, asl #1
	add	r4, r4, #1
	sub	r5, r8, #65
	movge	r0, r2
	blt	.L1353
.L1240:
	mov	r3, r4, asl #24
	cmp	r3, r0
	rsbls	r0, r3, r0
	ldrls	r1, [r6, #36]
	movls	r8, #1
	movhi	r8, #0
	add	r8, r5, r8
	rsbls	r4, r4, r1
	add	r3, r7, r4
	ldrb	r3, [r3, #24]	@ zero_extendqisi2
	mov	r2, r0, asl r3
	rsb	r9, r3, r9
	mov	r4, r4, asl r3
	str	r2, [r6, #28]
	str	r9, [r6, #32]
	str	r4, [r6, #36]
	b	.L1239
.L1355:
	.align	2
.L1354:
	.word	.LANCHOR0
.L1335:
	rsb	r2, r4, #24
	rsb	r8, r4, #16
	bic	r2, r2, #7
	mov	r0, r6
	rsb	r8, r2, r8
	str	r2, [fp, #-60]
	mov	r1, r2
	bl	BsGet
	and	r3, r8, #7
	ldr	r2, [fp, #-60]
	add	r4, r4, r2
	str	r4, [r6, #32]
	orr	r0, r9, r0, asl r3
	str	r0, [r6, #28]
	mov	r9, r0
	b	.L1221
.L1341:
	rsb	r2, r5, #24
	rsb	r8, r5, #16
	bic	r2, r2, #7
	mov	r0, r6
	rsb	r8, r2, r8
	str	r2, [fp, #-68]
	mov	r1, r2
	bl	BsGet
	ldr	r2, [fp, #-68]
	and	r3, r8, #7
	add	r8, r5, r2
	str	r8, [r6, #32]
	mov	r5, r8
	orr	r0, r4, r0, asl r3
	str	r0, [r6, #28]
	mov	r4, r0
	b	.L1262
.L1211:
	rsb	r2, r8, #24
	rsb	r3, r8, #16
	bic	r2, r2, #7
	mov	r0, r6
	rsb	r3, r2, r3
	ldr	r9, [r6, #28]
	mov	r1, r2
	str	r3, [fp, #-60]
	str	r2, [fp, #-56]
	bl	BsGet
	ldr	r3, [fp, #-60]
	ldr	r2, [fp, #-56]
	and	r3, r3, #7
	add	r8, r8, r2
	str	r8, [r6, #32]
	orr	r0, r9, r0, asl r3
	str	r0, [r6, #28]
	mov	r3, r0
	b	.L1212
.L1336:
	rsb	r2, r9, #24
	rsb	r8, r9, #16
	bic	r2, r2, #7
	mov	r0, r6
	rsb	r8, r2, r8
	str	r2, [fp, #-60]
	mov	r1, r2
	bl	BsGet
	and	r3, r8, #7
	ldr	r2, [fp, #-60]
	add	r9, r9, r2
	str	r9, [r6, #32]
	orr	r0, r4, r0, asl r3
	str	r0, [r6, #28]
	mov	r4, r0
	b	.L1228
.L1352:
	rsb	r1, r8, #24
	rsb	r3, r8, #16
	bic	r1, r1, #7
	mov	r0, r6
	rsb	r3, r1, r3
	add	r8, r1, r8
	str	r3, [fp, #-68]
	bl	BsGet
	ldr	r3, [fp, #-68]
	and	r3, r3, #7
	orr	r0, r9, r0, asl r3
	b	.L1274
.L1332:
	mov	r1, r6
	ldr	r0, [fp, #-72]
	bl	Vp9_ReadSwitchableInterpProbs
	b	.L1210
.L1353:
	rsb	r1, r9, #24
	rsb	r8, r9, #16
	bic	r1, r1, #7
	mov	r0, r6
	str	r2, [fp, #-60]
	rsb	r8, r1, r8
	add	r9, r1, r9
	bl	BsGet
	ldr	r2, [fp, #-60]
	and	r8, r8, #7
	orr	r0, r2, r0, asl r8
	b	.L1240
	UNWIND(.fnend)
	.size	Vp9_PrepareReadModeInfo, .-Vp9_PrepareReadModeInfo
	.global	__aeabi_idiv
	.align	2
	.global	Vp9_AdaptCoefProbs
	.type	Vp9_AdaptCoefProbs, %function
Vp9_AdaptCoefProbs:
	UNWIND(.fnstart)
	@ args = 8, pretend = 0, frame = 72
	@ frame_needed = 1, uses_anonymous_args = 0
	UNWIND(.movsp ip)
	mov	ip, sp
	stmfd	sp!, {r4, r5, r6, r7, r8, r9, r10, fp, ip, lr, pc}
	UNWIND(.pad #4)
	UNWIND(.save {r4, r5, r6, r7, r8, r9, r10, fp, ip, lr})
	UNWIND(.setfp fp, ip, #-4)
	sub	fp, ip, #4
	UNWIND(.pad #76)
	sub	sp, sp, #76
	mov	lr, #432
	mul	lr, lr, r3
	mov	ip, r3, asl #9
	add	ip, ip, r3, lsl #6
	ldr	r9, [fp, #4]
	mov	r4, r3, asl #11
	add	ip, ip, #9216
	add	r3, r4, r3, lsl #8
	add	ip, ip, #8
	add	r0, r0, lr
	add	r3, r2, r3
	str	r0, [fp, #-92]
	add	r0, r2, ip
	str	r3, [fp, #-116]
	add	r3, r1, lr
	str	r0, [fp, #-112]
	str	r3, [fp, #-96]
	mov	r3, #0
	str	r3, [fp, #-84]
.L1357:
	ldr	r3, [fp, #-112]
	str	r3, [fp, #-100]
	ldr	r3, [fp, #-116]
	str	r3, [fp, #-108]
	mov	r3, #0
	str	r3, [fp, #-104]
.L1368:
	mov	r3, #0
	str	r3, [fp, #-72]
	str	r3, [fp, #-64]
	ldr	r3, [fp, #-108]
	ldr	r2, [fp, #-100]
	str	r3, [fp, #-76]
	ldr	r3, [fp, #-104]
	str	r2, [fp, #-80]
	add	r3, r3, #2
	str	r3, [fp, #-88]
.L1366:
	ldr	r2, [fp, #-72]
	ldr	r3, [fp, #-88]
	ldr	r7, [fp, #-76]
	add	r3, r3, r2
	ldr	r2, [fp, #-80]
	str	r2, [fp, #-56]
	ldr	r2, [fp, #-84]
	add	r3, r3, r2
	ldr	r2, [fp, #-92]
	add	r10, r2, r3
	ldr	r2, [fp, #-96]
	str	r10, [fp, #-48]
	add	r8, r2, r3
	mov	r3, #0
	str	r3, [fp, #-52]
	b	.L1364
.L1362:
	ldr	r2, [fp, #-56]
	ldr	r4, [r7, #8]
	ldr	r6, [r7]
	ldr	r3, [r2, #4]!
	ldrb	r10, [r8, #-2]	@ zero_extendqisi2
	subs	r1, r3, #0
	str	r2, [fp, #-56]
	ldr	r2, [r7, #4]
	moveq	r5, #128
	add	r4, r2, r4
	str	r2, [fp, #-60]
	ldr	r2, [r7, #12]
	beq	.L1358
	mov	r0, r1, asr #1
	str	r3, [fp, #-68]
	add	r0, r0, r2, lsl #8
	bl	__aeabi_idiv
	ldr	r3, [fp, #-68]
	cmp	r0, #1
	movlt	r0, #1
	cmp	r0, #255
	movge	r0, #255
	uxtb	r5, r0
.L1358:
	cmp	r9, r3
	mov	r1, r9
	movcs	r0, r3
	ldr	r3, [fp, #8]
	movcc	r0, r9
	mul	r0, r3, r0
	bl	__aeabi_uidiv
	adds	r3, r4, r6
	moveq	r6, #128
	rsb	r2, r0, #256
	mul	r10, r2, r10
	ldr	r2, [fp, #-48]
	add	r10, r10, #128
	mla	r10, r0, r5, r10
	mov	r10, r10, lsr #8
	strb	r10, [r2, #-2]
	ldrb	r5, [r8, #-1]	@ zero_extendqisi2
	beq	.L1359
	mov	r0, r3, asr #1
	mov	r1, r3
	add	r0, r0, r6, lsl #8
	str	r3, [fp, #-68]
	bl	__aeabi_idiv
	ldr	r3, [fp, #-68]
	cmp	r0, #1
	movlt	r0, #1
	cmp	r0, #255
	movge	r0, #255
	uxtb	r6, r0
.L1359:
	cmp	r3, r9
	mov	r1, r9
	movcc	r0, r3
	ldr	r3, [fp, #8]
	movcs	r0, r9
	mul	r0, r3, r0
	bl	__aeabi_uidiv
	cmp	r4, #0
	rsb	r3, r0, #256
	mul	r5, r5, r3
	ldr	r3, [fp, #-48]
	add	r5, r5, #128
	mla	r6, r0, r6, r5
	mov	r6, r6, lsr #8
	strb	r6, [r3, #-1]
	moveq	r6, #128
	ldrb	r5, [r8]	@ zero_extendqisi2
	beq	.L1360
	ldr	r3, [fp, #-60]
	mov	r0, r4, asr #1
	mov	r1, r4
	add	r0, r0, r3, lsl #8
	bl	__aeabi_idiv
	cmp	r0, #1
	movlt	r0, #1
	cmp	r0, #255
	movge	r0, #255
	uxtb	r6, r0
.L1360:
	ldr	r3, [fp, #-52]
	cmp	r4, r9
	mov	r1, r9
	add	r8, r8, #3
	add	r3, r3, #1
	str	r3, [fp, #-52]
	ldr	r3, [fp, #8]
	movcc	r0, r4
	movcs	r0, r9
	add	r7, r7, #16
	mul	r0, r3, r0
	bl	__aeabi_uidiv
	rsb	r3, r0, #256
	mul	r5, r5, r3
	ldr	r3, [fp, #-48]
	add	r5, r5, #128
	mla	r6, r0, r6, r5
	ubfx	r6, r6, #8, #8
	strb	r6, [r3], #3
	str	r3, [fp, #-48]
.L1364:
	ldr	r3, [fp, #-64]
	ldr	r2, [fp, #-52]
	cmp	r3, #0
	moveq	r3, #3
	movne	r3, #6
	cmp	r2, r3
	blt	.L1362
	ldr	r3, [fp, #-64]
	ldr	r2, [fp, #-72]
	add	r3, r3, #1
	str	r3, [fp, #-64]
	cmp	r3, #6
	ldr	r3, [fp, #-76]
	add	r2, r2, #18
	str	r2, [fp, #-72]
	add	r3, r3, #96
	str	r3, [fp, #-76]
	ldr	r3, [fp, #-80]
	add	r3, r3, #24
	str	r3, [fp, #-80]
	bne	.L1366
	ldr	r3, [fp, #-104]
	ldr	r2, [fp, #-108]
	add	r3, r3, #108
	str	r3, [fp, #-104]
	cmp	r3, #216
	ldr	r3, [fp, #-100]
	add	r2, r2, #576
	str	r2, [fp, #-108]
	add	r3, r3, #144
	str	r3, [fp, #-100]
	bne	.L1368
	ldr	r3, [fp, #-84]
	ldr	r2, [fp, #-116]
	add	r3, r3, #216
	str	r3, [fp, #-84]
	cmp	r3, #432
	ldr	r3, [fp, #-112]
	add	r2, r2, #1152
	str	r2, [fp, #-116]
	add	r3, r3, #288
	str	r3, [fp, #-112]
	bne	.L1357
	sub	sp, fp, #40
	ldmfd	sp, {r4, r5, r6, r7, r8, r9, r10, fp, sp, pc}
	UNWIND(.fnend)
	.size	Vp9_AdaptCoefProbs, .-Vp9_AdaptCoefProbs
	.align	2
	.global	Vp9_AdaptResidualProbs
	.type	Vp9_AdaptResidualProbs, %function
Vp9_AdaptResidualProbs:
	UNWIND(.fnstart)
	@ args = 12, pretend = 0, frame = 0
	@ frame_needed = 1, uses_anonymous_args = 0
	UNWIND(.movsp ip)
	mov	ip, sp
	stmfd	sp!, {r4, r5, r6, r7, r8, r9, fp, ip, lr, pc}
	UNWIND(.pad #4)
	UNWIND(.save {r4, r5, r6, r7, r8, r9, fp, ip, lr})
	UNWIND(.setfp fp, ip, #-4)
	sub	fp, ip, #4
	UNWIND(.pad #8)
	sub	sp, sp, #8
	ldr	r5, [fp, #12]
	ldr	ip, [fp, #8]
	mov	r7, r0
	clz	r3, r5
	ldr	r5, [fp, #4]
	adds	ip, ip, #0
	mov	r6, r1
	mov	r3, r3, lsr #5
	mov	r8, r2
	movne	ip, #1
	cmp	r5, #0
	orreq	ip, ip, #1
	cmp	r3, ip
	mov	r4, #0
	mov	r9, #24
	movhi	r5, #128
	movls	r5, #112
.L1375:
	mov	r3, r4
	str	r5, [sp, #4]
	str	r9, [sp]
	add	r4, r4, #1
	mov	r2, r8
	mov	r1, r6
	mov	r0, r7
	bl	Vp9_AdaptCoefProbs
	cmp	r4, #4
	bne	.L1375
	sub	sp, fp, #36
	ldmfd	sp, {r4, r5, r6, r7, r8, r9, fp, sp, pc}
	UNWIND(.fnend)
	.size	Vp9_AdaptResidualProbs, .-Vp9_AdaptResidualProbs
	.align	2
	.global	Vp9_AdaptProbs
	.type	Vp9_AdaptProbs, %function
Vp9_AdaptProbs:
	UNWIND(.fnstart)
	@ args = 4, pretend = 0, frame = 8
	@ frame_needed = 1, uses_anonymous_args = 0
	UNWIND(.movsp ip)
	mov	ip, sp
	stmfd	sp!, {r4, r5, r6, r7, r8, r9, fp, ip, lr, pc}
	UNWIND(.pad #4)
	UNWIND(.save {r4, r5, r6, r7, r8, r9, fp, ip, lr})
	UNWIND(.setfp fp, ip, #-4)
	sub	fp, ip, #4
	UNWIND(.pad #16)
	sub	sp, sp, #16
	mov	r4, r0
	ldrsb	r0, [r1, r0]
	mov	r5, r1
	mov	r7, r2
	mov	r8, r3
	cmp	r0, #0
	ldr	r6, [fp, #4]
	ble	.L1383
	str	r6, [sp]
	bl	Vp9_AdaptProbs
	add	r3, r5, r4
	mov	r9, r0
	ldrsb	r0, [r3, #1]
	cmp	r0, #0
	ble	.L1384
.L1381:
	mov	r1, r5
	str	r6, [sp]
	mov	r3, r8
	mov	r2, r7
	bl	Vp9_AdaptProbs
	mov	r5, r0
.L1382:
	ldrb	r0, [r8, r4, lsr #1]	@ zero_extendqisi2
	sub	r1, fp, #44
	str	r9, [fp, #-44]
	str	r5, [fp, #-40]
	bl	Vp9_ModeMvMergeProbs
	strb	r0, [r7, r4, lsr #1]
	add	r0, r5, r9
	sub	sp, fp, #36
	ldmfd	sp, {r4, r5, r6, r7, r8, r9, fp, sp, pc}
.L1383:
	mov	r0, r0, asl #2
	add	r3, r5, r4
	rsb	r0, r0, #0
	ldr	r9, [r6, r0]
	ldrsb	r0, [r3, #1]
	cmp	r0, #0
	bgt	.L1381
.L1384:
	mov	r0, r0, asl #2
	rsb	r0, r0, #0
	ldr	r5, [r6, r0]
	b	.L1382
	UNWIND(.fnend)
	.size	Vp9_AdaptProbs, .-Vp9_AdaptProbs
	.align	2
	.global	Vp9_AdaptModeProbs
	.type	Vp9_AdaptModeProbs, %function
Vp9_AdaptModeProbs:
	UNWIND(.fnstart)
	@ args = 4, pretend = 0, frame = 80
	@ frame_needed = 1, uses_anonymous_args = 0
	UNWIND(.movsp ip)
	mov	ip, sp
	stmfd	sp!, {r4, r5, r6, r7, r8, r9, r10, fp, ip, lr, pc}
	UNWIND(.pad #4)
	UNWIND(.save {r4, r5, r6, r7, r8, r9, r10, fp, ip, lr})
	UNWIND(.setfp fp, ip, #-4)
	sub	fp, ip, #4
	UNWIND(.pad #92)
	sub	sp, sp, #92
	add	r10, r0, #1968
	add	r8, r1, #1968
	add	r4, r2, #8192
	add	r8, r8, #10
	add	r10, r10, #10
	mov	r6, r0
	mov	r7, r1
	mov	r9, r3
	mov	r5, #0
.L1386:
	ldr	r1, [r4, #3348]
	ldrb	r0, [r8, #1]!	@ zero_extendqisi2
	add	r1, r1, r5, lsl #3
	add	r5, r5, #1
	bl	Vp9_ModeMvMergeProbs
	cmp	r5, #4
	strb	r0, [r10, #1]!
	bne	.L1386
	add	r8, r7, #1968
	add	r10, r6, #1968
	add	r8, r8, #14
	add	r10, r10, #14
	mov	r5, #0
.L1387:
	ldr	r1, [r4, #3352]
	ldrb	r0, [r8, #1]!	@ zero_extendqisi2
	add	r1, r1, r5, lsl #3
	add	r5, r5, #1
	bl	Vp9_ModeMvMergeProbs
	cmp	r5, #5
	strb	r0, [r10, #1]!
	bne	.L1387
	add	r8, r7, #1984
	add	r10, r6, #1984
	add	r8, r8, #13
	add	r10, r10, #13
	mov	r5, #0
.L1388:
	ldr	r1, [r4, #3360]
	ldrb	r0, [r8, #1]!	@ zero_extendqisi2
	add	r1, r1, r5, lsl #3
	add	r5, r5, #1
	bl	Vp9_ModeMvMergeProbs
	cmp	r5, #5
	strb	r0, [r10, #1]!
	bne	.L1388
	mov	r10, r6
	mov	r8, r7
	mov	r5, #8
	str	r7, [fp, #-100]
	str	r6, [fp, #-96]
.L1389:
	ldr	r1, [r4, #3356]
	sub	r3, r5, #8
	ldrb	r0, [r8, #1988]	@ zero_extendqisi2
	add	r10, r10, #2
	add	r1, r1, r3
	add	r8, r8, #2
	bl	Vp9_ModeMvMergeProbs
	strb	r0, [r10, #1986]
	ldr	r1, [r4, #3356]
	ldrb	r0, [r8, #1987]	@ zero_extendqisi2
	add	r1, r1, r5
	add	r5, r5, #16
	bl	Vp9_ModeMvMergeProbs
	cmp	r5, #88
	strb	r0, [r10, #1987]
	bne	.L1389
	mov	r8, #0
	mov	r5, r8
.L1390:
	ldr	r0, [r4, #3344]
	add	r2, r8, #1952
	add	r2, r2, #6
	ldr	r1, .L1430
	add	r0, r0, r5
	add	r3, r7, r2
	str	r0, [sp]
	add	r2, r6, r2
	add	r5, r5, #16
	mov	r0, #0
	bl	Vp9_AdaptProbs
	cmp	r5, #112
	add	r8, r8, #3
	bne	.L1390
	mov	r8, #0
	mov	r5, r8
.L1391:
	ldr	r0, [r4, #1024]
	add	r2, r8, #1728
	add	r3, r7, r2
	ldr	r1, .L1430+4
	add	r0, r0, r5
	add	r2, r6, r2
	str	r0, [sp]
	add	r5, r5, #40
	mov	r0, #0
	add	r8, r8, #9
	bl	Vp9_AdaptProbs
	cmp	r5, #160
	bne	.L1391
	mov	r8, #0
	mov	r5, r8
.L1392:
	ldr	r0, [r4, #1028]
	add	r2, r8, #1760
	add	r2, r2, #4
	ldr	r1, .L1430+4
	add	r0, r0, r5
	add	r3, r7, r2
	str	r0, [sp]
	add	r2, r6, r2
	add	r5, r5, #40
	mov	r0, #0
	bl	Vp9_AdaptProbs
	cmp	r5, #400
	add	r8, r8, #9
	bne	.L1392
	mov	r8, #0
	mov	r5, r8
.L1393:
	ldr	r0, [r4, #1032]
	add	r2, r8, #1888
	add	r2, r2, #14
	ldr	r1, .L1430+8
	add	r0, r0, r5
	add	r3, r7, r2
	str	r0, [sp]
	add	r2, r6, r2
	add	r5, r5, #16
	mov	r0, #0
	bl	Vp9_AdaptProbs
	cmp	r5, #256
	add	r8, r8, #3
	bne	.L1393
	cmp	r9, #4
	beq	.L1428
	ldr	r3, [fp, #4]
	cmp	r3, #4
	beq	.L1429
.L1404:
	add	r7, r7, #2000
	add	r6, r6, #2000
	add	r7, r7, #14
	add	r6, r6, #14
	mov	r5, #0
.L1400:
	ldr	r1, [r4, #3376]
	ldrb	r0, [r7, #1]!	@ zero_extendqisi2
	add	r1, r1, r5, lsl #3
	add	r5, r5, #1
	bl	Vp9_ModeMvMergeProbs
	cmp	r5, #3
	strb	r0, [r6, #1]!
	bne	.L1400
	sub	sp, fp, #40
	ldmfd	sp, {r4, r5, r6, r7, r8, r9, r10, fp, sp, pc}
.L1428:
	mov	r9, #0
	mov	r5, r9
.L1395:
	ldr	ip, [r4, #3340]
	add	r2, r9, #1936
	add	r2, r2, #14
	ldr	r1, .L1430+12
	add	ip, ip, r5
	add	r3, r7, r2
	mov	r0, #0
	add	r2, r6, r2
	str	ip, [sp]
	add	r5, r5, #12
	bl	Vp9_AdaptProbs
	cmp	r5, #48
	add	r9, r9, #2
	bne	.L1395
	ldr	r3, [fp, #4]
	cmp	r3, #4
	bne	.L1404
.L1429:
	mov	r8, #0
	add	r3, r7, #2000
	add	r2, r6, #2000
	str	r6, [fp, #-120]
	str	r7, [fp, #-124]
	mov	r7, r8
	ldr	r6, [fp, #-96]
	mov	r1, r3
	ldr	r8, [fp, #-100]
	add	r3, r3, #12
	str	r3, [fp, #-116]
	add	r3, r2, #12
	str	r3, [fp, #-112]
	add	r3, r1, #2
	str	r3, [fp, #-108]
	add	r3, r2, #2
	str	r3, [fp, #-104]
.L1399:
	ldr	r3, [fp, #-116]
	sub	r1, fp, #92
	ldr	ip, [r4, #3372]
	mov	r5, r7, asl #4
	ldr	r10, [fp, #-104]
	ldrb	r0, [r3, #1]!	@ zero_extendqisi2
	ldr	r9, [fp, #-108]
	str	r3, [fp, #-116]
	ldr	r3, [ip, r7, asl #3]
	add	ip, ip, r7, lsl #3
	str	r3, [fp, #-92]
	ldr	r3, [ip, #4]
	str	r3, [fp, #-88]
	bl	Vp9_ModeMvMergeProbs
	ldr	r3, [fp, #-112]
	sub	ip, r5, r7, asl #2
	sub	r1, fp, #84
	str	r5, [fp, #-96]
	mov	r5, #0
	strb	r0, [r3, #1]!
	ldr	r0, [r4, #3368]
	str	r3, [fp, #-112]
	ldr	lr, [r0, ip]
	add	r0, r0, ip
	str	lr, [fp, #-84]
	ldmib	r0, {ip, lr}
	add	ip, ip, lr
	str	ip, [fp, #-80]
	ldr	ip, [r0, #4]
	str	ip, [fp, #-76]
	ldr	ip, [r0, #8]
	ldrb	r0, [r8, #2009]	@ zero_extendqisi2
	str	ip, [fp, #-72]
	bl	Vp9_ModeMvMergeProbs
	sub	r1, fp, #76
	strb	r0, [r6, #2009]
	ldrb	r0, [r8, #2010]	@ zero_extendqisi2
	bl	Vp9_ModeMvMergeProbs
	ldr	r3, [fp, #-96]
	strb	r0, [r6, #2010]
	ldr	r1, [r4, #3364]
	add	r3, r1, r3
	ldr	r1, [r1, r7, asl #4]
	str	r1, [fp, #-68]
	ldmib	r3, {r0, r1}
	add	r1, r1, r0
	ldr	r0, [r3, #12]
	add	r1, r1, r0
	str	r1, [fp, #-64]
	ldr	r1, [r3, #4]
	str	r1, [fp, #-60]
	ldr	r1, [r3, #8]
	add	r1, r1, r0
	str	r1, [fp, #-56]
	ldr	r1, [r3, #8]
	str	r1, [fp, #-52]
	ldr	r3, [r3, #12]
	str	r3, [fp, #-48]
.L1398:
	sub	r3, fp, #68
	ldrb	r0, [r9, #1]!	@ zero_extendqisi2
	add	r1, r3, r5
	add	r5, r5, #8
	bl	Vp9_ModeMvMergeProbs
	cmp	r5, #24
	strb	r0, [r10, #1]!
	bne	.L1398
	ldr	r3, [fp, #-108]
	add	r7, r7, #1
	cmp	r7, #2
	add	r8, r8, #2
	add	r3, r3, #3
	str	r3, [fp, #-108]
	ldr	r3, [fp, #-104]
	add	r6, r6, #2
	add	r3, r3, #3
	str	r3, [fp, #-104]
	bne	.L1399
	ldr	r6, [fp, #-120]
	ldr	r7, [fp, #-124]
	b	.L1404
.L1431:
	.align	2
.L1430:
	.word	.LANCHOR0+536
	.word	.LANCHOR0+544
	.word	.LANCHOR0+564
	.word	.LANCHOR0+572
	UNWIND(.fnend)
	.size	Vp9_AdaptModeProbs, .-Vp9_AdaptModeProbs
	.align	2
	.global	Vp9_AdaptMvProbs
	.type	Vp9_AdaptMvProbs, %function
Vp9_AdaptMvProbs:
	UNWIND(.fnstart)
	@ args = 0, pretend = 0, frame = 64
	@ frame_needed = 1, uses_anonymous_args = 0
	UNWIND(.movsp ip)
	mov	ip, sp
	stmfd	sp!, {r4, r5, r6, r7, r8, r9, r10, fp, ip, lr, pc}
	UNWIND(.pad #4)
	UNWIND(.save {r4, r5, r6, r7, r8, r9, r10, fp, ip, lr})
	UNWIND(.setfp fp, ip, #-4)
	sub	fp, ip, #4
	UNWIND(.pad #76)
	sub	sp, sp, #76
	mov	r7, r0
	mov	r8, r1
	mov	r4, r2
	str	r2, [fp, #-100]
	sub	r0, fp, #88
	mov	r2, #6
	ldr	r1, .L1441
	str	r3, [fp, #-104]
	bl	memcpy
	mov	r2, #20
	ldr	r1, .L1441+4
	sub	r0, fp, #64
	bl	memcpy
	mov	r2, #6
	ldr	r1, .L1441
	sub	r0, fp, #80
	bl	memcpy
	add	r1, r4, #8192
	add	r3, r8, #2016
	add	r2, r7, #2016
	ldr	ip, [r1, #3380]
	add	r3, r3, #2
	sub	r1, fp, #88
	add	r2, r2, #2
	mov	r0, #0
	str	ip, [sp]
	bl	Vp9_AdaptProbs
	mov	r3, #0
	str	r3, [fp, #-96]
.L1435:
	ldr	r2, [fp, #-96]
	mov	r4, #0
	ldr	r3, [fp, #-100]
	mov	r6, r8
	ldrb	r0, [r8, #2021]	@ zero_extendqisi2
	mov	r5, r7
	add	r9, r3, r2, lsl #5
	add	r3, r9, #11520
	add	r10, r9, #11584
	add	r10, r10, #4
	ldr	r1, [r3, #56]
	bl	Vp9_ModeMvMergeProbs
	add	lr, r9, #11520
	add	lr, lr, #60
	add	r3, r8, #2016
	add	r2, r7, #2016
	add	r3, r3, #6
	add	r2, r2, #6
	sub	r1, fp, #64
	strb	r0, [r7, #2021]
	mov	r0, r4
	ldr	lr, [lr]
	str	lr, [sp]
	bl	Vp9_AdaptProbs
	add	r3, r9, #11584
	ldrb	r0, [r6, #2032]!	@ zero_extendqisi2
	sub	r1, fp, #72
	ldr	r3, [r3]
	ldmia	r3, {r2, r3}
	str	r2, [fp, #-72]
	str	r3, [fp, #-68]
	bl	Vp9_ModeMvMergeProbs
	strb	r0, [r5, #2032]!
.L1433:
	ldr	r1, [r10]
	ldrb	r0, [r6, #1]!	@ zero_extendqisi2
	add	r1, r1, r4, lsl #3
	add	r4, r4, #1
	bl	Vp9_ModeMvMergeProbs
	cmp	r4, #10
	strb	r0, [r5, #1]!
	bne	.L1433
	add	r4, r9, #11584
	add	r3, r8, #2032
	add	r2, r7, #2032
	add	r3, r3, #11
	ldr	ip, [r4, #8]
	add	r2, r2, #11
	sub	r1, fp, #80
	mov	r0, #0
	str	ip, [sp]
	bl	Vp9_AdaptProbs
	ldr	r1, [r4, #8]
	add	r3, r8, #2032
	add	r2, r7, #2032
	add	r1, r1, #16
	add	r3, r3, #14
	str	r1, [sp]
	add	r2, r2, #14
	sub	r1, fp, #80
	mov	r0, #0
	bl	Vp9_AdaptProbs
	add	r1, r9, #11584
	add	r3, r8, #2048
	add	r2, r7, #2048
	ldr	ip, [r1, #12]
	add	r3, r3, #1
	add	r2, r2, #1
	sub	r1, fp, #80
	mov	r0, #0
	str	ip, [sp]
	bl	Vp9_AdaptProbs
	ldr	r3, [fp, #-104]
	cmp	r3, #0
	beq	.L1434
	add	r3, r9, #11584
	ldrb	r0, [r8, #2052]	@ zero_extendqisi2
	add	r9, r9, #11584
	ldr	r1, [r3, #16]
	bl	Vp9_ModeMvMergeProbs
	strb	r0, [r7, #2052]
	ldr	r1, [r9, #20]
	ldrb	r0, [r8, #2053]	@ zero_extendqisi2
	bl	Vp9_ModeMvMergeProbs
	strb	r0, [r7, #2053]
.L1434:
	ldr	r3, [fp, #-96]
	add	r8, r8, #33
	add	r7, r7, #33
	add	r3, r3, #1
	str	r3, [fp, #-96]
	cmp	r3, #2
	bne	.L1435
	sub	sp, fp, #40
	ldmfd	sp, {r4, r5, r6, r7, r8, r9, r10, fp, sp, pc}
.L1442:
	.align	2
.L1441:
	.word	.LANCHOR0+576
	.word	.LANCHOR0+584
	UNWIND(.fnend)
	.size	Vp9_AdaptMvProbs, .-Vp9_AdaptMvProbs
	.align	2
	.global	Lf_Init_Lut
	.type	Lf_Init_Lut, %function
Lf_Init_Lut:
	UNWIND(.fnstart)
	@ args = 0, pretend = 0, frame = 0
	@ frame_needed = 1, uses_anonymous_args = 0
	UNWIND(.movsp ip)
	mov	ip, sp
	stmfd	sp!, {fp, ip, lr, pc}
	UNWIND(.pad #4)
	UNWIND(.save {fp, ip, lr})
	UNWIND(.setfp fp, ip, #-4)
	sub	fp, ip, #4
	mov	r3, #0
	mov	r2, #1
	strb	r3, [r0, #64]
	strb	r3, [r0, #67]
	strb	r3, [r0, #68]
	strb	r3, [r0, #69]
	strb	r3, [r0, #70]
	strb	r3, [r0, #71]
	strb	r3, [r0, #72]
	strb	r3, [r0, #65]
	strb	r3, [r0, #66]
	strb	r3, [r0, #73]
	strb	r3, [r0, #76]
	strb	r2, [r0, #74]
	strb	r2, [r0, #75]
	strb	r2, [r0, #77]
	ldmfd	sp, {fp, sp, pc}
	UNWIND(.fnend)
	.size	Lf_Init_Lut, .-Lf_Init_Lut
	.align	2
	.global	VP9_Loop_Filter_Init
	.type	VP9_Loop_Filter_Init, %function
VP9_Loop_Filter_Init:
	UNWIND(.fnstart)
	@ args = 0, pretend = 0, frame = 0
	@ frame_needed = 1, uses_anonymous_args = 0
	UNWIND(.movsp ip)
	mov	ip, sp
	stmfd	sp!, {fp, ip, lr, pc}
	UNWIND(.pad #4)
	UNWIND(.save {fp, ip, lr})
	UNWIND(.setfp fp, ip, #-4)
	sub	fp, ip, #4
	mov	r3, #0
	mov	r2, #1
	strb	r3, [r1, #64]
	strb	r3, [r1, #67]
	strb	r3, [r1, #68]
	strb	r3, [r1, #69]
	strb	r3, [r1, #70]
	strb	r3, [r1, #71]
	strb	r3, [r1, #72]
	strb	r3, [r1, #65]
	strb	r3, [r1, #66]
	strb	r3, [r1, #73]
	strb	r3, [r1, #76]
	strb	r2, [r1, #74]
	strb	r2, [r1, #75]
	strb	r2, [r1, #77]
	ldmfd	sp, {fp, sp, pc}
	UNWIND(.fnend)
	.size	VP9_Loop_Filter_Init, .-VP9_Loop_Filter_Init
	.align	2
	.global	VP9_InitDecPara
	.type	VP9_InitDecPara, %function
VP9_InitDecPara:
	UNWIND(.fnstart)
	@ args = 0, pretend = 0, frame = 0
	@ frame_needed = 1, uses_anonymous_args = 0
	UNWIND(.movsp ip)
	mov	ip, sp
	stmfd	sp!, {r4, r5, r6, r7, fp, ip, lr, pc}
	UNWIND(.pad #4)
	UNWIND(.save {r4, r5, r6, r7, fp, ip, lr})
	UNWIND(.setfp fp, ip, #-4)
	sub	fp, ip, #4
	ldr	r7, .L1446
	movw	r6, #10804
	movt	r6, 4
	add	r6, r0, r6
	mov	r5, r0
	add	r4, r5, #270336
	add	r5, r5, #274432
	movw	r2, #2860
	mov	r1, #0
	ldr	r3, [r7, #48]
	mov	r0, r6
	blx	r3
	mov	r3, #3
	add	r0, r5, #1376
	str	r3, [r5, #956]
	mov	r5, #0
	bl	ResetVoQueue
	ldr	r3, [r7, #48]
	mov	r2, #2
	add	r0, r6, #56
	str	r2, [r4, #2840]
	str	r5, [r4, #2836]
	mov	r1, r5
	mov	r2, #16
	blx	r3
	mov	r3, #1
	strb	r5, [r4, #2924]
	strb	r5, [r4, #2927]
	strb	r5, [r4, #2928]
	strb	r5, [r4, #2929]
	strb	r5, [r4, #2930]
	strb	r5, [r4, #2931]
	strb	r5, [r4, #2932]
	strb	r5, [r4, #2925]
	strb	r5, [r4, #2926]
	strb	r5, [r4, #2933]
	strb	r5, [r4, #2936]
	strb	r3, [r4, #2934]
	strb	r3, [r4, #2935]
	strb	r3, [r4, #2937]
	ldmfd	sp, {r4, r5, r6, r7, fp, sp, pc}
.L1447:
	.align	2
.L1446:
	.word	vfmw_Osal_Func_Ptr_S
	UNWIND(.fnend)
	.size	VP9_InitDecPara, .-VP9_InitDecPara
	.align	2
	.global	VP9DEC_Init
	.type	VP9DEC_Init, %function
VP9DEC_Init:
	UNWIND(.fnstart)
	@ args = 0, pretend = 0, frame = 8
	@ frame_needed = 1, uses_anonymous_args = 0
	UNWIND(.movsp ip)
	mov	ip, sp
	stmfd	sp!, {r4, r5, r6, r7, r8, r9, r10, fp, ip, lr, pc}
	UNWIND(.pad #4)
	UNWIND(.save {r4, r5, r6, r7, r8, r9, r10, fp, ip, lr})
	UNWIND(.setfp fp, ip, #-4)
	sub	fp, ip, #4
	UNWIND(.pad #12)
	sub	sp, sp, #12
	mov	r5, r0
	mov	r8, r1
	mov	r0, #2
	ldr	r1, .L1462
	add	r4, r5, #274432
	bl	dprint_vfmw
	ldr	r3, [r8, #608]
	ldr	r10, .L1462+4
	mov	r1, #0
	cmp	r3, #1
	ldr	r6, [r4, #1720]
	addeq	r7, r5, #294912
	addeq	r3, r5, #270336
	ldr	ip, [r10, #48]
	mov	r0, r5
	ldreq	r2, [r7, #3356]
	movne	r9, #0
	addne	r7, r5, #294912
	ldreq	r9, [r3, #2552]
	strne	r9, [fp, #-48]
	streq	r2, [fp, #-48]
	movw	r2, #36280
	movt	r2, 4
	blx	ip
	add	r0, r4, #1376
	str	r6, [r4, #1720]
	bl	ResetVoQueue
	str	r8, [r5]
	mov	r0, r5
	bl	VCTRL_GetChanIDByCtx
	cmn	r0, #1
	str	r0, [r7, #3492]
	beq	.L1461
	ldr	r2, [r5]
	add	r4, r5, #270336
	mov	r6, #0
	mov	r1, #3
	ldr	r0, [r2, #8]
	str	r1, [r4, #2608]
	str	r1, [r4, #2556]
	str	r0, [r4, #2548]
	str	r6, [r4, #2560]
	ldr	r0, [r2, #48]
	str	r0, [r4, #2564]
	ldr	r2, [r2, #52]
	str	r2, [r4, #2568]
	bl	MEM_Phy2Vir
	mov	r2, #2048
	str	r2, [r4, #2576]
	mov	r1, #0
	str	r0, [r4, #2572]
	movw	r0, #36172
	str	r6, [r7, #3368]
	movt	r0, 4
	str	r6, [r7, #3372]
	add	r0, r5, r0
	str	r6, [r7, #3396]
	str	r6, [r7, #3400]
	str	r6, [r7, #3436]
	str	r6, [r7, #3440]
	ldr	r2, [r8, #608]
	cmp	r2, #1
	mov	r2, #32
	strne	r6, [r7, #3356]
	ldreq	r3, [fp, #-48]
	strne	r6, [r4, #2552]
	streq	r3, [r7, #3356]
	ldr	r3, [r10, #48]
	streq	r9, [r4, #2552]
	blx	r3
	mov	r0, r5
	bl	VP9_InitDecPara
	movw	r1, #10872
	movw	lr, #10908
	movt	r1, 4
	movt	lr, 4
	add	r1, r5, r1
	add	lr, r5, lr
	mov	ip, #0
	mov	r3, r1
	mov	r2, lr
.L1454:
	str	ip, [r3, #4]!
	cmp	r3, lr
	str	ip, [r2, #4]!
	bne	.L1454
	movw	r3, #10988
	add	r0, r4, #2832
	movt	r3, 4
	add	r3, r5, r3
	mvn	r2, #0
.L1455:
	str	r2, [r3, #4]!
	cmp	r3, r0
	bne	.L1455
	add	r2, r4, #2752
	mov	r3, #0
	mov	r0, #1
.L1456:
	str	r3, [r2, #4]!
	add	r3, r3, #1
	cmp	r3, #8
	str	r0, [r1, #4]!
	bne	.L1456
	mov	r0, #0
.L1451:
	sub	sp, fp, #40
	ldmfd	sp, {r4, r5, r6, r7, r8, r9, r10, fp, sp, pc}
.L1461:
	ldr	r1, .L1462+8
	mov	r0, #0
	bl	dprint_vfmw
	mvn	r0, #19
	b	.L1451
.L1463:
	.align	2
.L1462:
	.word	.LC3
	.word	vfmw_Osal_Func_Ptr_S
	.word	.LC4
	UNWIND(.fnend)
	.size	VP9DEC_Init, .-VP9DEC_Init
	.align	2
	.global	Vp9_ParseSuperFrameIndex
	.type	Vp9_ParseSuperFrameIndex, %function
Vp9_ParseSuperFrameIndex:
	UNWIND(.fnstart)
	@ args = 0, pretend = 0, frame = 0
	@ frame_needed = 1, uses_anonymous_args = 0
	UNWIND(.movsp ip)
	mov	ip, sp
	stmfd	sp!, {r4, r5, r6, r7, r8, r9, fp, ip, lr, pc}
	UNWIND(.pad #4)
	UNWIND(.save {r4, r5, r6, r7, r8, r9, fp, ip, lr})
	UNWIND(.setfp fp, ip, #-4)
	sub	fp, ip, #4
	cmp	r1, #0
	ble	.L1476
	add	ip, r0, r1
	mov	r5, #0
	ldrb	ip, [ip, #-1]	@ zero_extendqisi2
	str	r5, [r3]
	and	lr, ip, #224
	cmp	lr, #192
	ldmnefd	sp, {r4, r5, r6, r7, r8, r9, fp, sp, pc}
	and	r6, ip, #7
	ubfx	r8, ip, #3, #2
	add	r6, r6, #1
	add	r7, r8, #1
	mul	r4, r6, r7
	add	r4, r4, #2
	cmp	r1, r4
	ldmltfd	sp, {r4, r5, r6, r7, r8, r9, fp, sp, pc}
	rsb	lr, r4, r1
	ldrb	lr, [r0, lr]	@ zero_extendqisi2
	cmp	lr, ip
	ldmnefd	sp, {r4, r5, r6, r7, r8, r9, fp, sp, pc}
	add	r1, r1, #1
	cmp	r6, r5
	rsb	r1, r4, r1
	add	r4, r0, r1
	beq	.L1467
	sub	r9, r2, #4
.L1468:
	cmp	r7, #0
	beq	.L1471
	mov	r2, #0
	sub	r1, r4, #1
	add	lr, r4, r8
	mov	r0, r2
.L1469:
	ldrb	ip, [r1, #1]!	@ zero_extendqisi2
	cmp	r1, lr
	orr	r0, r0, ip, asl r2
	add	r2, r2, #8
	bne	.L1469
	add	r4, r4, r7
.L1470:
	add	r5, r5, #1
	str	r0, [r9, #4]!
	cmp	r6, r5
	bhi	.L1468
.L1467:
	str	r6, [r3]
	ldmfd	sp, {r4, r5, r6, r7, r8, r9, fp, sp, pc}
.L1476:
	ldr	r1, .L1477
	mov	r0, #1
	sub	sp, fp, #36
	ldmfd	sp, {r4, r5, r6, r7, r8, r9, fp, sp, lr}
	b	dprint_vfmw
.L1471:
	mov	r0, r7
	b	.L1470
.L1478:
	.align	2
.L1477:
	.word	.LC5
	UNWIND(.fnend)
	.size	Vp9_ParseSuperFrameIndex, .-Vp9_ParseSuperFrameIndex
	.align	2
	.global	VP9_GetImageBuffer
	.type	VP9_GetImageBuffer, %function
VP9_GetImageBuffer:
	UNWIND(.fnstart)
	@ args = 0, pretend = 0, frame = 0
	@ frame_needed = 1, uses_anonymous_args = 0
	UNWIND(.movsp ip)
	mov	ip, sp
	stmfd	sp!, {r4, r5, r6, r7, fp, ip, lr, pc}
	UNWIND(.pad #4)
	UNWIND(.save {r4, r5, r6, r7, fp, ip, lr})
	UNWIND(.setfp fp, ip, #-4)
	sub	fp, ip, #4
	UNWIND(.pad #8)
	sub	sp, sp, #8
	add	r5, r0, #274432
	add	r4, r0, #294912
	add	r6, r0, #270336
	ldr	r3, [r5, #976]
	ldr	r0, [r4, #3492]
	cmp	r3, #1
	moveq	r1, #0
	movne	r1, #1
	bl	FSP_NewLogicFs
	cmp	r0, #0
	str	r0, [r6, #2596]
	blt	.L1501
	mov	r1, r0
	ldr	r0, [r4, #3492]
	bl	FSP_GetLogicFs
	subs	r7, r0, #0
	beq	.L1502
	ldr	r2, [r6, #2596]
	mov	r0, #18
	ldr	r1, .L1505
	bl	dprint_vfmw
	ldr	r2, [r7, #680]
	cmp	r2, #0
	beq	.L1485
	ldr	r3, [r7, #684]
	cmp	r3, #0
	beq	.L1485
	ldr	r1, [r7, #688]
	cmp	r1, #0
	beq	.L1485
	ldr	ip, [r1, #16]
	mov	r0, #18
	ldr	r3, [r3, #16]
	ldr	r2, [r2, #16]
	ldr	r1, .L1505+4
	str	ip, [sp]
	bl	dprint_vfmw
	ldr	r3, [r5, #976]
	cmp	r3, #1
	beq	.L1503
	ldr	r2, [r7, #680]
	mov	r3, #0
	mov	r0, r3
	str	r3, [r2, #4]
	sub	sp, fp, #28
	ldmfd	sp, {r4, r5, r6, r7, fp, sp, pc}
.L1485:
	movw	r2, #2255
	ldr	r1, .L1505+8
	mov	r0, #0
	bl	dprint_vfmw
	mvn	r0, #0
.L1483:
	sub	sp, fp, #28
	ldmfd	sp, {r4, r5, r6, r7, fp, sp, pc}
.L1501:
	ldr	r1, .L1505+12
	mov	r0, #0
	bl	dprint_vfmw
	add	r1, r5, #1376
	ldr	r0, [r4, #3492]
	bl	FSP_ClearNotInVoQueue
	mvn	r0, #0
	sub	sp, fp, #28
	ldmfd	sp, {r4, r5, r6, r7, fp, sp, pc}
.L1502:
	movw	r2, #2243
	ldr	r1, .L1505+16
	bl	dprint_vfmw
	mvn	r0, #0
	sub	sp, fp, #28
	ldmfd	sp, {r4, r5, r6, r7, fp, sp, pc}
.L1503:
	ldr	r3, [r5, #980]
	cmp	r3, #8
	bls	.L1488
	ldr	r2, .L1505+20
	mov	r0, #0
	ldr	r1, .L1505+24
	bl	dprint_vfmw
	mvn	r0, #0
	b	.L1483
.L1488:
	add	r6, r6, r3, lsl #2
	ldr	r0, [r4, #3492]
	ldr	r1, [r6, #2800]
	bl	FSP_GetLogicFs
	subs	r3, r0, #0
	beq	.L1504
	ldr	ip, [r3, #680]
	add	r1, r3, #8
	mov	r2, #664
	add	r0, r7, #8
	str	ip, [r7, #680]
	ldr	lr, [r3, #680]
	str	lr, [r7, #684]
	ldr	r3, [r3, #688]
	str	r3, [r7, #688]
	ldr	r3, [ip, #88]
	str	r3, [r7, #672]
	bl	memcpy
	ldrsb	r3, [r7, #3]
	mov	r0, #0
	strb	r0, [r7, #2]
	str	r3, [r7, #188]
	b	.L1483
.L1504:
	ldr	r3, .L1505+28
	mov	r2, #2272
	ldr	r1, .L1505+32
	bl	dprint_vfmw
	mvn	r0, #0
	b	.L1483
.L1506:
	.align	2
.L1505:
	.word	.LC8
	.word	.LC9
	.word	.LC10
	.word	.LC6
	.word	.LC7
	.word	.LANCHOR0+604
	.word	.LC11
	.word	.LC12
	.word	.LC13
	UNWIND(.fnend)
	.size	VP9_GetImageBuffer, .-VP9_GetImageBuffer
	.align	2
	.global	VP9_FreeCurFb
	.type	VP9_FreeCurFb, %function
VP9_FreeCurFb:
	UNWIND(.fnstart)
	@ args = 0, pretend = 0, frame = 0
	@ frame_needed = 1, uses_anonymous_args = 0
	UNWIND(.movsp ip)
	mov	ip, sp
	stmfd	sp!, {r4, r5, fp, ip, lr, pc}
	UNWIND(.pad #4)
	UNWIND(.save {r4, r5, fp, ip, lr})
	UNWIND(.setfp fp, ip, #-4)
	sub	fp, ip, #4
	add	r5, r0, #270336
	add	r4, r0, #294912
	ldr	r1, [r5, #2596]
	cmp	r1, #0
	blt	.L1508
	mov	r2, #1
	ldr	r0, [r4, #3492]
	bl	FSP_ClearLogicFs
.L1508:
	ldr	r3, [r4, #3392]
	cmp	r3, #8
	addls	r3, r3, #18
	movls	r2, #0
	addls	r5, r5, r3, lsl #2
	strls	r2, [r5, #2612]
	ldmfd	sp, {r4, r5, fp, sp, pc}
	UNWIND(.fnend)
	.size	VP9_FreeCurFb, .-VP9_FreeCurFb
	.align	2
	.global	VP9_SetImgFormat
	.type	VP9_SetImgFormat, %function
VP9_SetImgFormat:
	UNWIND(.fnstart)
	@ args = 0, pretend = 0, frame = 16
	@ frame_needed = 1, uses_anonymous_args = 0
	UNWIND(.movsp ip)
	mov	ip, sp
	stmfd	sp!, {r4, r5, r6, r7, r8, r9, r10, fp, ip, lr, pc}
	UNWIND(.pad #4)
	UNWIND(.save {r4, r5, r6, r7, r8, r9, r10, fp, ip, lr})
	UNWIND(.setfp fp, ip, #-4)
	sub	fp, ip, #4
	UNWIND(.pad #20)
	sub	sp, sp, #20
	subs	r5, r0, #0
	beq	.L1512
	add	r2, r5, #270336
	add	r3, r5, #294912
	str	r2, [fp, #-48]
	ldr	r1, [r2, #2596]
	mov	r8, r2
	ldr	r0, [r3, #3492]
	bl	FSP_GetFsImagePtr
	subs	r4, r0, #0
	beq	.L1512
	ldr	r6, [r5]
	add	r9, r4, #640
	mvn	r2, #0
	mvn	r3, #0
	mov	ip, #1
	mov	lr, #5
	ldrd	r6, [r6, #56]
	mov	r1, #0
	strd	r6, [r9]
	ldr	r6, [r5]
	strd	r2, [r6, #56]
	ldr	r6, [r8, #2604]
	ldrb	r3, [r4, #124]	@ zero_extendqisi2
	ldrb	r2, [r4, #125]	@ zero_extendqisi2
	bfi	r3, r6, #0, #2
	and	r3, r3, #227
	orr	r2, r2, #12
	bfi	r3, lr, #5, #3
	bfi	r2, ip, #4, #2
	strb	r3, [r4, #124]
	strb	r2, [r4, #125]
	ldr	r3, [r4, #124]
	bfc	r3, #14, #3
	str	r3, [r4, #124]
	mov	r3, r3, lsr #16
	bfc	r3, #1, #1
	strb	r3, [r4, #126]
	ldr	r3, [r5]
	ldrb	r2, [r4, #126]	@ zero_extendqisi2
	ldr	r3, [r3, #592]
	rsb	r3, ip, r3
	clz	r3, r3
	mov	r3, r3, lsr #5
	bfi	r2, r3, #2, #1
	strb	r2, [r4, #126]
	ldr	r3, [r8, #2604]
	and	r3, r3, #3
	str	r3, [r4, #116]
	ldr	r3, [r8, #2604]
	and	r3, r3, #3
	str	r3, [r4, #120]
	bl	SetAspectRatio
	ldr	r0, [r8, #2624]
	str	r0, [r4, #128]
	ldr	r2, [r8, #2628]
	str	r2, [r4, #132]
	ldr	r3, [r5]
	ldr	r3, [r3, #28]
	cmp	r3, #25
	beq	.L1523
	add	r3, r4, #544
	str	r3, [fp, #-56]
	add	r3, r4, #560
	str	r3, [fp, #-52]
.L1516:
	add	r3, r0, #255
	add	r6, r2, #63
	bic	r3, r3, #255
	bic	r10, r6, #63
	mov	r1, r3, asl #4
	str	r1, [r4, #164]
	ldr	r1, [fp, #-48]
	ldr	ip, [r1, #2468]
	mul	r1, r10, r3
	cmp	ip, #1
	movne	r6, #0
	movne	r8, r6
	beq	.L1524
.L1517:
	ldr	lr, [r5]
	add	ip, r3, #3
	cmp	r3, #0
	ldr	r7, [r4, #44]
	ldr	lr, [lr, #884]
	movlt	r3, ip
	add	ip, r1, r1, lsl #1
	mov	r3, r3, asr #2
	str	lr, [r4, #200]
	add	ip, r7, ip, asr #1
	ldr	r9, [r5]
	add	r7, r1, r7
	mla	r5, r3, r10, ip
	mov	lr, r0, lsr #1
	ldr	r9, [r9, #884]
	mov	r3, r3, asl #4
	str	r6, [r4, #172]
	ldr	r6, [fp, #-56]
	str	r8, [r4, #168]
	mov	r8, r2, lsr #1
	str	r9, [r4, #204]
	str	r7, [r4, #48]
	ldrd	r6, [r6]
	adds	r6, r6, r1
	adc	r7, r7, r1, asr #31
	ldr	r1, [fp, #-52]
	strd	r6, [r1, #-8]
	str	ip, [r4, #68]
	str	r0, [r4, #136]
	str	lr, [r4, #144]
	str	r2, [r4, #140]
	str	r8, [r4, #148]
	str	r5, [r4, #72]
	str	r3, [r4, #176]
.L1512:
	sub	sp, fp, #40
	ldmfd	sp, {r4, r5, r6, r7, r8, r9, r10, fp, sp, pc}
.L1524:
	add	r8, r0, #2032
	mov	r6, r6, lsr #6
	add	r8, r8, #15
	bic	r8, r8, #2032
	mov	r6, r6, asl #5
	bic	r8, r8, #15
	mov	r8, r8, lsr #7
	mul	r6, r8, r6
	add	r1, r1, r6
	b	.L1517
.L1523:
	ldr	r3, [r4, #164]
	add	r2, r2, #15
	ldr	r1, [r4, #44]
	add	r6, r4, #544
	mov	r2, r2, lsr #4
	add	r9, r4, #560
	mov	r0, r3, asl #4
	str	r6, [fp, #-56]
	mov	r10, r9
	add	lr, r1, r3
	mul	r2, r2, r0
	str	r9, [fp, #-52]
	add	ip, r2, r1
	str	ip, [r4, #48]
	ldrd	r6, [r6]
	add	r3, ip, r3
	mov	r0, ip
	adds	r8, r6, r2
	adc	r9, r7, r2, asr #31
	strd	r8, [r10, #-8]
	str	r3, [r4, #40]
	str	ip, [r4, #32]
	str	r1, [r4, #28]
	str	lr, [r4, #36]
	strd	r6, [r10]
	str	r1, [r4, #60]
	bl	MEM_Phy2Vir
	ldr	r3, [r4, #32]
	mov	r2, #0
	str	r2, [r4, #572]
	ldr	r2, [r4, #132]
	str	r3, [r4, #64]
	str	r0, [r4, #568]
	ldr	r0, [r4, #128]
	b	.L1516
	UNWIND(.fnend)
	.size	VP9_SetImgFormat, .-VP9_SetImgFormat
	.align	2
	.global	VP9DEC_RecycleImage
	.type	VP9DEC_RecycleImage, %function
VP9DEC_RecycleImage:
	UNWIND(.fnstart)
	@ args = 0, pretend = 0, frame = 0
	@ frame_needed = 1, uses_anonymous_args = 0
	UNWIND(.movsp ip)
	mov	ip, sp
	stmfd	sp!, {r4, r5, r6, r7, r8, r9, fp, ip, lr, pc}
	UNWIND(.pad #4)
	UNWIND(.save {r4, r5, r6, r7, r8, r9, fp, ip, lr})
	UNWIND(.setfp fp, ip, #-4)
	sub	fp, ip, #4
	add	r4, r0, #294912
	mov	r5, r1
	mov	r2, #0
	ldr	r0, [r4, #3492]
	bl	FSP_SetDisplay
	mov	r1, r5
	ldr	r0, [r4, #3492]
	bl	FSP_GetFsImagePtr
	subs	r6, r0, #0
	beq	.L1526
	add	r5, r6, #608
	ldr	r0, [r4, #3492]
	ldr	r1, [r6, #600]
	mov	r8, #0
	bl	FreeUsdByDec
	mov	r9, #0
	strd	r8, [r5, #-8]
	ldr	r1, [r6, #608]
	ldr	r0, [r4, #3492]
	bl	FreeUsdByDec
	strd	r8, [r5]
.L1526:
	mov	r0, #0
	ldmfd	sp, {r4, r5, r6, r7, r8, r9, fp, sp, pc}
	UNWIND(.fnend)
	.size	VP9DEC_RecycleImage, .-VP9DEC_RecycleImage
	.align	2
	.global	VP9DEC_GetRemainImg
	.type	VP9DEC_GetRemainImg, %function
VP9DEC_GetRemainImg:
	UNWIND(.fnstart)
	@ args = 0, pretend = 0, frame = 0
	@ frame_needed = 1, uses_anonymous_args = 0
	UNWIND(.movsp ip)
	mov	ip, sp
	stmfd	sp!, {fp, ip, lr, pc}
	UNWIND(.pad #4)
	UNWIND(.save {fp, ip, lr})
	UNWIND(.setfp fp, ip, #-4)
	sub	fp, ip, #4
	add	r0, r0, #274432
	add	r0, r0, #1376
	sub	sp, fp, #12
	ldmia	sp, {fp, sp, lr}
	b	GetVoLastImageID
	UNWIND(.fnend)
	.size	VP9DEC_GetRemainImg, .-VP9DEC_GetRemainImg
	.align	2
	.global	VP9DEC_GetImageBuffer
	.type	VP9DEC_GetImageBuffer, %function
VP9DEC_GetImageBuffer:
	UNWIND(.fnstart)
	@ args = 0, pretend = 0, frame = 0
	@ frame_needed = 1, uses_anonymous_args = 0
	UNWIND(.movsp ip)
	mov	ip, sp
	stmfd	sp!, {r4, r5, fp, ip, lr, pc}
	UNWIND(.pad #4)
	UNWIND(.save {r4, r5, fp, ip, lr})
	UNWIND(.setfp fp, ip, #-4)
	sub	fp, ip, #4
	add	r4, r0, #294912
	mov	r5, r0
	ldr	r0, [r4, #3492]
	bl	FSP_IsNewFsAvalible
	cmp	r0, #1
	ldmeqfd	sp, {r4, r5, fp, sp, pc}
	ldr	r0, [r4, #3492]
	bl	FSP_IsNewFsAvalible
	cmn	r0, #1
	beq	.L1537
	mov	r0, #0
	ldmfd	sp, {r4, r5, fp, sp, pc}
.L1537:
	add	r1, r5, #274432
	ldr	r0, [r4, #3492]
	add	r1, r1, #1376
	bl	FSP_ClearNotInVoQueue
	mov	r0, #0
	ldmfd	sp, {r4, r5, fp, sp, pc}
	UNWIND(.fnend)
	.size	VP9DEC_GetImageBuffer, .-VP9DEC_GetImageBuffer
	.align	2
	.global	Check_Sync_Code
	.type	Check_Sync_Code, %function
Check_Sync_Code:
	UNWIND(.fnstart)
	@ args = 0, pretend = 0, frame = 0
	@ frame_needed = 1, uses_anonymous_args = 0
	UNWIND(.movsp ip)
	mov	ip, sp
	stmfd	sp!, {r4, r5, fp, ip, lr, pc}
	UNWIND(.pad #4)
	UNWIND(.save {r4, r5, fp, ip, lr})
	UNWIND(.setfp fp, ip, #-4)
	sub	fp, ip, #4
	mov	r1, #8
	mov	r4, r0
	bl	BsGet
	cmp	r0, #73
	beq	.L1539
.L1540:
	ldr	r1, .L1541
	mov	r0, #1
	sub	sp, fp, #20
	ldmfd	sp, {r4, r5, fp, sp, lr}
	b	dprint_vfmw
.L1539:
	mov	r1, #8
	mov	r0, r4
	bl	BsGet
	cmp	r0, #131
	bne	.L1540
	mov	r0, r4
	mov	r1, #8
	bl	BsGet
	cmp	r0, #66
	bne	.L1540
	ldmfd	sp, {r4, r5, fp, sp, pc}
.L1542:
	.align	2
.L1541:
	.word	.LC14
	UNWIND(.fnend)
	.size	Check_Sync_Code, .-Check_Sync_Code
	.align	2
	.global	Read_Frame_Size
	.type	Read_Frame_Size, %function
Read_Frame_Size:
	UNWIND(.fnstart)
	@ args = 0, pretend = 0, frame = 0
	@ frame_needed = 1, uses_anonymous_args = 0
	UNWIND(.movsp ip)
	mov	ip, sp
	stmfd	sp!, {r4, r5, r6, r7, fp, ip, lr, pc}
	UNWIND(.pad #4)
	UNWIND(.save {r4, r5, r6, r7, fp, ip, lr})
	UNWIND(.setfp fp, ip, #-4)
	sub	fp, ip, #4
	mov	r5, r1
	mov	r1, #16
	mov	r4, r2
	mov	r6, r0
	bl	BsGet
	mov	r1, #16
	add	r3, r0, #1
	mov	r0, r6
	str	r3, [r5]
	bl	BsGet
	add	r0, r0, #1
	str	r0, [r4]
	ldmfd	sp, {r4, r5, r6, r7, fp, sp, pc}
	UNWIND(.fnend)
	.size	Read_Frame_Size, .-Read_Frame_Size
	.align	2
	.global	get_free_fb
	.type	get_free_fb, %function
get_free_fb:
	UNWIND(.fnstart)
	@ args = 0, pretend = 0, frame = 0
	@ frame_needed = 1, uses_anonymous_args = 0
	UNWIND(.movsp ip)
	mov	ip, sp
	stmfd	sp!, {fp, ip, lr, pc}
	UNWIND(.pad #4)
	UNWIND(.save {fp, ip, lr})
	UNWIND(.setfp fp, ip, #-4)
	sub	fp, ip, #4
	ldr	r0, [r1, #72]
	cmp	r0, #0
	beq	.L1545
	add	r3, r1, #72
	mov	r0, #1
.L1546:
	ldr	r2, [r3, #4]!
	cmp	r2, #0
	beq	.L1545
	add	r0, r0, #1
	cmp	r0, #9
	bne	.L1546
	mvn	r0, #0
	ldmfd	sp, {fp, sp, pc}
.L1545:
	add	r3, r0, #18
	mov	r2, #1
	str	r2, [r1, r3, asl #2]
	ldmfd	sp, {fp, sp, pc}
	UNWIND(.fnend)
	.size	get_free_fb, .-get_free_fb
	.align	2
	.global	Setup_Display_Size
	.type	Setup_Display_Size, %function
Setup_Display_Size:
	UNWIND(.fnstart)
	@ args = 0, pretend = 0, frame = 8
	@ frame_needed = 1, uses_anonymous_args = 0
	UNWIND(.movsp ip)
	mov	ip, sp
	stmfd	sp!, {r4, fp, ip, lr, pc}
	UNWIND(.pad #4)
	UNWIND(.save {r4, fp, ip, lr})
	UNWIND(.setfp fp, ip, #-4)
	sub	fp, ip, #4
	UNWIND(.pad #12)
	sub	sp, sp, #12
	mov	r3, r1
	ldr	lr, [r3, #52]
	mov	r1, #1
	ldr	ip, [r3, #56]
	mov	r2, #0
	mov	r4, r0
	str	r2, [fp, #-28]
	str	lr, [r3, #60]
	str	ip, [r3, #64]
	str	r2, [fp, #-24]
	bl	BsGet
	cmp	r0, #0
	beq	.L1554
	mov	r0, r4
	sub	r2, fp, #24
	sub	r1, fp, #28
	bl	Read_Frame_Size
.L1554:
	sub	sp, fp, #16
	ldmfd	sp, {r4, fp, sp, pc}
	UNWIND(.fnend)
	.size	Setup_Display_Size, .-Setup_Display_Size
	.align	2
	.global	VP9_Update_CP_Size
	.type	VP9_Update_CP_Size, %function
VP9_Update_CP_Size:
	UNWIND(.fnstart)
	@ args = 0, pretend = 0, frame = 0
	@ frame_needed = 1, uses_anonymous_args = 0
	UNWIND(.movsp ip)
	mov	ip, sp
	stmfd	sp!, {r4, r5, fp, ip, lr, pc}
	UNWIND(.pad #4)
	UNWIND(.save {r4, r5, fp, ip, lr})
	UNWIND(.setfp fp, ip, #-4)
	sub	fp, ip, #4
	ldr	lr, [r0, #2484]
	ldr	ip, [r0, #2488]
	ldr	r3, [r0, #2432]
	add	r1, lr, #7
	add	r2, ip, #7
	bic	r1, r1, #7
	bic	r2, r2, #7
	add	r3, r0, r3, lsl #4
	mov	r5, r1, asr #3
	mov	r4, r2, asr #3
	str	r5, [r0, #2524]
	str	r4, [r0, #2528]
	str	r1, [r3, #2668]
	str	r2, [r3, #2672]
	str	lr, [r3, #2676]
	str	ip, [r3, #2680]
	ldmfd	sp, {r4, r5, fp, sp, pc}
	UNWIND(.fnend)
	.size	VP9_Update_CP_Size, .-VP9_Update_CP_Size
	.align	2
	.global	Setup_Frame_Size
	.type	Setup_Frame_Size, %function
Setup_Frame_Size:
	UNWIND(.fnstart)
	@ args = 0, pretend = 0, frame = 0
	@ frame_needed = 1, uses_anonymous_args = 0
	UNWIND(.movsp ip)
	mov	ip, sp
	stmfd	sp!, {r4, r5, r6, r7, fp, ip, lr, pc}
	UNWIND(.pad #4)
	UNWIND(.save {r4, r5, r6, r7, fp, ip, lr})
	UNWIND(.setfp fp, ip, #-4)
	sub	fp, ip, #4
	ldr	ip, [r1, #2484]
	mov	r4, r1
	ldr	r3, [r1, #2488]
	add	r5, r1, #2432
	add	r2, r5, #56
	add	r1, r5, #52
	str	ip, [r4, #2504]
	mov	r6, r0
	str	r3, [r4, #2508]
	bl	Read_Frame_Size
	ldr	r7, [r4, #2484]
	ldr	lr, [r4, #2488]
	mov	r1, r5
	ldr	r3, [r4, #2432]
	add	ip, r7, #7
	add	r2, lr, #7
	bic	ip, ip, #7
	bic	r2, r2, #7
	mov	r0, r6
	add	r3, r4, r3, lsl #4
	mov	r6, ip, asr #3
	mov	r5, r2, asr #3
	str	r6, [r4, #2524]
	str	r5, [r4, #2528]
	str	ip, [r3, #2668]
	str	r2, [r3, #2672]
	str	r7, [r3, #2676]
	str	lr, [r3, #2680]
	sub	sp, fp, #28
	ldmfd	sp, {r4, r5, r6, r7, fp, sp, lr}
	b	Setup_Display_Size
	UNWIND(.fnend)
	.size	Setup_Frame_Size, .-Setup_Frame_Size
	.align	2
	.global	setup_frame_size_with_refs
	.type	setup_frame_size_with_refs, %function
setup_frame_size_with_refs:
	UNWIND(.fnstart)
	@ args = 0, pretend = 0, frame = 0
	@ frame_needed = 1, uses_anonymous_args = 0
	UNWIND(.movsp ip)
	mov	ip, sp
	stmfd	sp!, {r4, r5, r6, r7, fp, ip, lr, pc}
	UNWIND(.pad #4)
	UNWIND(.save {r4, r5, r6, r7, fp, ip, lr})
	UNWIND(.setfp fp, ip, #-4)
	sub	fp, ip, #4
	add	r7, r1, #2432
	mov	r4, r1
	mov	r6, r0
	mov	r5, #0
.L1564:
	mov	r1, #1
	mov	r0, r6
	bl	BsGet
	cmp	r0, #0
	bne	.L1569
	add	r5, r5, #1
	cmp	r5, #3
	bne	.L1564
	ldr	ip, [r4, #2484]
	add	r2, r7, #56
	ldr	r3, [r4, #2488]
	add	r1, r7, #52
	mov	r0, r6
	str	ip, [r4, #2504]
	str	r3, [r4, #2508]
	bl	Read_Frame_Size
	ldr	r5, [r4, #2484]
	ldr	lr, [r4, #2488]
.L1563:
	ldr	r3, [r4, #2432]
	add	ip, r5, #7
	add	r2, lr, #7
	bic	ip, ip, #7
	bic	r2, r2, #7
	mov	r1, r7
	add	r3, r4, r3, lsl #4
	mov	r0, r6
	mov	r7, ip, asr #3
	mov	r6, r2, asr #3
	str	r7, [r4, #2524]
	str	r6, [r4, #2528]
	str	ip, [r3, #2668]
	str	r5, [r3, #2676]
	str	lr, [r3, #2680]
	str	r2, [r3, #2672]
	sub	sp, fp, #28
	ldmfd	sp, {r4, r5, r6, r7, fp, sp, lr}
	b	Setup_Display_Size
.L1569:
	add	r5, r5, #44
	ldr	r1, [r4, #2484]
	ldr	r2, [r4, #2488]
	ldr	r3, [r4, r5, asl #2]
	str	r1, [r4, #2504]
	str	r2, [r4, #2508]
	add	r3, r4, r3, lsl #4
	ldr	r5, [r3, #2676]
	str	r5, [r4, #2484]
	ldr	lr, [r3, #2680]
	str	lr, [r4, #2488]
	b	.L1563
	UNWIND(.fnend)
	.size	setup_frame_size_with_refs, .-setup_frame_size_with_refs
	.align	2
	.global	Set_Default_Lf_Deltas
	.type	Set_Default_Lf_Deltas, %function
Set_Default_Lf_Deltas:
	UNWIND(.fnstart)
	@ args = 0, pretend = 0, frame = 0
	@ frame_needed = 1, uses_anonymous_args = 0
	UNWIND(.movsp ip)
	mov	ip, sp
	stmfd	sp!, {fp, ip, lr, pc}
	UNWIND(.pad #4)
	UNWIND(.save {fp, ip, lr})
	UNWIND(.setfp fp, ip, #-4)
	sub	fp, ip, #4
	mov	r2, #1
	mov	r3, #0
	mvn	r1, #0
	strb	r2, [r0]
	strb	r2, [r0, #1]
	strb	r2, [r0, #2]
	strb	r3, [r0, #3]
	strb	r3, [r0, #6]
	strb	r3, [r0, #7]
	strb	r1, [r0, #4]
	strb	r1, [r0, #5]
	ldmfd	sp, {fp, sp, pc}
	UNWIND(.fnend)
	.size	Set_Default_Lf_Deltas, .-Set_Default_Lf_Deltas
	.align	2
	.global	VP9_Clearall_Segfeatures
	.type	VP9_Clearall_Segfeatures, %function
VP9_Clearall_Segfeatures:
	UNWIND(.fnstart)
	@ args = 0, pretend = 0, frame = 0
	@ frame_needed = 1, uses_anonymous_args = 0
	UNWIND(.movsp ip)
	mov	ip, sp
	stmfd	sp!, {r4, r5, fp, ip, lr, pc}
	UNWIND(.pad #4)
	UNWIND(.save {r4, r5, fp, ip, lr})
	UNWIND(.setfp fp, ip, #-4)
	sub	fp, ip, #4
	ldr	r5, .L1572
	mov	r4, r0
	mov	r2, #64
	mov	r1, #0
	add	r0, r0, #16
	ldr	r3, [r5, #48]
	blx	r3
	ldr	r3, [r5, #48]
	add	r0, r4, #80
	mov	r2, #32
	mov	r1, #0
	sub	sp, fp, #20
	ldmfd	sp, {r4, r5, fp, sp, lr}
	bx	r3
.L1573:
	.align	2
.L1572:
	.word	vfmw_Osal_Func_Ptr_S
	UNWIND(.fnend)
	.size	VP9_Clearall_Segfeatures, .-VP9_Clearall_Segfeatures
	.align	2
	.global	VP9_Setup_Past_Independence
	.type	VP9_Setup_Past_Independence, %function
VP9_Setup_Past_Independence:
	UNWIND(.fnstart)
	@ args = 0, pretend = 0, frame = 0
	@ frame_needed = 1, uses_anonymous_args = 0
	UNWIND(.movsp ip)
	mov	ip, sp
	stmfd	sp!, {r4, r5, fp, ip, lr, pc}
	UNWIND(.pad #4)
	UNWIND(.save {r4, r5, fp, ip, lr})
	UNWIND(.setfp fp, ip, #-4)
	sub	fp, ip, #4
	ldr	r5, .L1575
	mov	r4, r0
	add	r0, r0, #2624
	mov	r2, #32
	mov	r1, #0
	add	r0, r0, #12
	ldr	r3, [r5, #48]
	blx	r3
	ldr	r5, [r5, #48]
	mov	r3, #0
	mov	ip, #1
	mvn	lr, #0
	mov	r1, r3
	strb	r3, [r4, #2559]
	add	r0, r4, #56
	strb	r3, [r4, #331]
	mov	r2, #16
	strb	r3, [r4, #334]
	strb	r3, [r4, #335]
	mov	r3, r5
	strb	ip, [r4, #328]
	strb	ip, [r4, #329]
	strb	ip, [r4, #330]
	strb	lr, [r4, #332]
	strb	lr, [r4, #333]
	sub	sp, fp, #20
	ldmfd	sp, {r4, r5, fp, sp, lr}
	bx	r3
.L1576:
	.align	2
.L1575:
	.word	vfmw_Osal_Func_Ptr_S
	UNWIND(.fnend)
	.size	VP9_Setup_Past_Independence, .-VP9_Setup_Past_Independence
	.align	2
	.global	Setup_LoopFilter
	.type	Setup_LoopFilter, %function
Setup_LoopFilter:
	UNWIND(.fnstart)
	@ args = 0, pretend = 0, frame = 0
	@ frame_needed = 1, uses_anonymous_args = 0
	UNWIND(.movsp ip)
	mov	ip, sp
	stmfd	sp!, {r4, r5, r6, r7, fp, ip, lr, pc}
	UNWIND(.pad #4)
	UNWIND(.save {r4, r5, r6, r7, fp, ip, lr})
	UNWIND(.setfp fp, ip, #-4)
	sub	fp, ip, #4
	mov	r4, r1
	mov	r1, #6
	mov	r5, r0
	bl	BsGet
	mov	r1, #3
	str	r0, [r4, #8]
	mov	r0, r5
	bl	BsGet
	mov	r3, #0
	mov	r1, #1
	strb	r3, [r4, #1]
	str	r0, [r4, #12]
	mov	r0, r5
	bl	BsGet
	uxtb	r0, r0
	strb	r0, [r4]
	cmp	r0, #0
	ldmeqfd	sp, {r4, r5, r6, r7, fp, sp, pc}
	mov	r1, #1
	mov	r0, r5
	bl	BsGet
	uxtb	r0, r0
	strb	r0, [r4, #1]
	cmp	r0, #0
	ldmeqfd	sp, {r4, r5, r6, r7, fp, sp, pc}
	add	r6, r4, #2
	add	r7, r4, #6
.L1581:
	mov	r1, #1
	mov	r0, r5
	bl	BsGet
	cmp	r0, #0
	bne	.L1595
.L1580:
	add	r6, r6, #1
	cmp	r6, r7
	bne	.L1581
	add	r4, r4, #8
.L1583:
	mov	r1, #1
	mov	r0, r5
	bl	BsGet
	cmp	r0, #0
	bne	.L1596
.L1582:
	add	r7, r7, #1
	cmp	r7, r4
	bne	.L1583
	ldmfd	sp, {r4, r5, r6, r7, fp, sp, pc}
.L1595:
	ldr	r2, .L1597
	mov	r1, #6
	mov	r0, r5
	bl	VP9_s_v
	strb	r0, [r6]
	b	.L1580
.L1596:
	ldr	r2, .L1597+4
	mov	r1, #6
	mov	r0, r5
	bl	VP9_s_v
	strb	r0, [r7]
	b	.L1582
.L1598:
	.align	2
.L1597:
	.word	.LC15
	.word	.LC16
	UNWIND(.fnend)
	.size	Setup_LoopFilter, .-Setup_LoopFilter
	.align	2
	.global	Read_Delta_Q
	.type	Read_Delta_Q, %function
Read_Delta_Q:
	UNWIND(.fnstart)
	@ args = 0, pretend = 0, frame = 0
	@ frame_needed = 1, uses_anonymous_args = 0
	UNWIND(.movsp ip)
	mov	ip, sp
	stmfd	sp!, {r4, r5, r6, r7, fp, ip, lr, pc}
	UNWIND(.pad #4)
	UNWIND(.save {r4, r5, r6, r7, fp, ip, lr})
	UNWIND(.setfp fp, ip, #-4)
	sub	fp, ip, #4
	mov	r4, r1
	mov	r1, #1
	ldr	r5, [r4]
	mov	r6, r0
	bl	BsGet
	cmp	r0, #0
	beq	.L1600
	mov	r0, r6
	ldr	r2, .L1604
	mov	r1, #4
	bl	VP9_s_v
.L1600:
	str	r0, [r4]
	subs	r0, r0, r5
	movne	r0, #1
	ldmfd	sp, {r4, r5, r6, r7, fp, sp, pc}
.L1605:
	.align	2
.L1604:
	.word	.LC17
	UNWIND(.fnend)
	.size	Read_Delta_Q, .-Read_Delta_Q
	.align	2
	.global	Setup_Quantization
	.type	Setup_Quantization, %function
Setup_Quantization:
	UNWIND(.fnstart)
	@ args = 0, pretend = 0, frame = 0
	@ frame_needed = 1, uses_anonymous_args = 0
	UNWIND(.movsp ip)
	mov	ip, sp
	stmfd	sp!, {r4, r5, fp, ip, lr, pc}
	UNWIND(.pad #4)
	UNWIND(.save {r4, r5, fp, ip, lr})
	UNWIND(.setfp fp, ip, #-4)
	sub	fp, ip, #4
	mov	r4, r1
	mov	r1, #8
	mov	r5, r0
	bl	BsGet
	add	r1, r4, #236
	str	r0, [r4, #232]
	mov	r0, r5
	bl	Read_Delta_Q
	add	r1, r4, #240
	mov	r0, r5
	bl	Read_Delta_Q
	mov	r0, r5
	add	r1, r4, #244
	bl	Read_Delta_Q
	ldr	r3, [r4, #232]
	cmp	r3, #0
	movne	r3, #0
	bne	.L1607
	ldr	r2, [r4, #236]
	cmp	r2, #0
	bne	.L1607
	ldr	r2, [r4, #240]
	cmp	r2, #0
	ldreq	r3, [r4, #244]
	clzeq	r3, r3
	moveq	r3, r3, lsr #5
.L1607:
	str	r3, [r4, #44]
	ldmfd	sp, {r4, r5, fp, sp, pc}
	UNWIND(.fnend)
	.size	Setup_Quantization, .-Setup_Quantization
	.align	2
	.global	VP9_Enable_Segfeature
	.type	VP9_Enable_Segfeature, %function
VP9_Enable_Segfeature:
	UNWIND(.fnstart)
	@ args = 0, pretend = 0, frame = 0
	@ frame_needed = 1, uses_anonymous_args = 0
	UNWIND(.movsp ip)
	mov	ip, sp
	stmfd	sp!, {fp, ip, lr, pc}
	UNWIND(.pad #4)
	UNWIND(.save {fp, ip, lr})
	UNWIND(.setfp fp, ip, #-4)
	sub	fp, ip, #4
	add	r1, r0, r1, lsl #2
	mov	r0, #1
	ldr	r3, [r1, #80]
	orr	r2, r3, r0, asl r2
	str	r2, [r1, #80]
	ldmfd	sp, {fp, sp, pc}
	UNWIND(.fnend)
	.size	VP9_Enable_Segfeature, .-VP9_Enable_Segfeature
	.align	2
	.global	VP9_Seg_Feature_Data_Max
	.type	VP9_Seg_Feature_Data_Max, %function
VP9_Seg_Feature_Data_Max:
	UNWIND(.fnstart)
	@ args = 0, pretend = 0, frame = 0
	@ frame_needed = 1, uses_anonymous_args = 0
	UNWIND(.movsp ip)
	mov	ip, sp
	stmfd	sp!, {fp, ip, lr, pc}
	UNWIND(.pad #4)
	UNWIND(.save {fp, ip, lr})
	UNWIND(.setfp fp, ip, #-4)
	sub	fp, ip, #4
	ldr	r3, .L1612
	add	r0, r3, r0, lsl #2
	ldr	r0, [r0, #624]
	ldmfd	sp, {fp, sp, pc}
.L1613:
	.align	2
.L1612:
	.word	.LANCHOR0
	UNWIND(.fnend)
	.size	VP9_Seg_Feature_Data_Max, .-VP9_Seg_Feature_Data_Max
	.align	2
	.global	Get_Unsigned_Bits
	.type	Get_Unsigned_Bits, %function
Get_Unsigned_Bits:
	UNWIND(.fnstart)
	@ args = 0, pretend = 0, frame = 0
	@ frame_needed = 1, uses_anonymous_args = 0
	UNWIND(.movsp ip)
	mov	ip, sp
	stmfd	sp!, {fp, ip, lr, pc}
	UNWIND(.pad #4)
	UNWIND(.save {fp, ip, lr})
	UNWIND(.setfp fp, ip, #-4)
	sub	fp, ip, #4
	cmp	r0, #1
	bls	.L1618
	subs	r3, r0, #1
	beq	.L1619
	mov	r0, #0
.L1617:
	movs	r3, r3, lsr #1
	add	r0, r0, #1
	bne	.L1617
	ldmfd	sp, {fp, sp, pc}
.L1618:
	mov	r0, #0
	ldmfd	sp, {fp, sp, pc}
.L1619:
	mov	r0, r3
	ldmfd	sp, {fp, sp, pc}
	UNWIND(.fnend)
	.size	Get_Unsigned_Bits, .-Get_Unsigned_Bits
	.align	2
	.global	Decode_Unsigned_Max
	.type	Decode_Unsigned_Max, %function
Decode_Unsigned_Max:
	UNWIND(.fnstart)
	@ args = 0, pretend = 0, frame = 0
	@ frame_needed = 1, uses_anonymous_args = 0
	UNWIND(.movsp ip)
	mov	ip, sp
	stmfd	sp!, {r4, r5, fp, ip, lr, pc}
	UNWIND(.pad #4)
	UNWIND(.save {r4, r5, fp, ip, lr})
	UNWIND(.setfp fp, ip, #-4)
	sub	fp, ip, #4
	cmp	r1, #1
	mov	r4, r1
	movls	r1, #0
	bls	.L1622
	subs	r3, r4, #1
	beq	.L1626
	mov	r2, #0
.L1624:
	movs	r3, r3, lsr #1
	add	r2, r2, #1
	bne	.L1624
.L1623:
	mov	r1, r2
.L1622:
	bl	BsGet
	cmp	r0, r4
	movge	r0, r4
	ldmfd	sp, {r4, r5, fp, sp, pc}
.L1626:
	mov	r2, r3
	b	.L1623
	UNWIND(.fnend)
	.size	Decode_Unsigned_Max, .-Decode_Unsigned_Max
	.align	2
	.global	VP9_Is_Segfeature_Signed
	.type	VP9_Is_Segfeature_Signed, %function
VP9_Is_Segfeature_Signed:
	UNWIND(.fnstart)
	@ args = 0, pretend = 0, frame = 0
	@ frame_needed = 1, uses_anonymous_args = 0
	UNWIND(.movsp ip)
	mov	ip, sp
	stmfd	sp!, {fp, ip, lr, pc}
	UNWIND(.pad #4)
	UNWIND(.save {fp, ip, lr})
	UNWIND(.setfp fp, ip, #-4)
	sub	fp, ip, #4
	ldr	r3, .L1629
	add	r0, r3, r0, lsl #2
	ldr	r0, [r0, #640]
	ldmfd	sp, {fp, sp, pc}
.L1630:
	.align	2
.L1629:
	.word	.LANCHOR0
	UNWIND(.fnend)
	.size	VP9_Is_Segfeature_Signed, .-VP9_Is_Segfeature_Signed
	.align	2
	.global	VP9_Set_Segdata
	.type	VP9_Set_Segdata, %function
VP9_Set_Segdata:
	UNWIND(.fnstart)
	@ args = 0, pretend = 0, frame = 0
	@ frame_needed = 1, uses_anonymous_args = 0
	UNWIND(.movsp ip)
	mov	ip, sp
	stmfd	sp!, {r3, r4, r5, r6, r7, r8, r9, r10, fp, ip, lr, pc}
	UNWIND(.pad #4)
	UNWIND(.save {r3, r4, r5, r6, r7, r8, r9, r10, fp, ip, lr})
	UNWIND(.setfp fp, ip, #-4)
	sub	fp, ip, #4
	ldr	r7, .L1640
	mov	r9, r2, asl #2
	mov	r5, r3
	mov	r4, r2
	add	r3, r7, r9
	mov	r6, r0
	mov	r10, r1
	ldr	r8, [r3, #624]
	cmp	r8, r5
	blt	.L1637
.L1632:
	cmp	r5, #0
	blt	.L1638
.L1634:
	add	r4, r4, r10, lsl #2
	add	r4, r6, r4, lsl #1
	strh	r5, [r4, #16]	@ movhi
	ldmfd	sp, {r3, r4, r5, r6, r7, r8, r9, r10, fp, sp, pc}
.L1638:
	add	r7, r7, r9
	ldr	r0, [r7, #640]
	cmp	r0, #0
	beq	.L1639
.L1635:
	rsb	r3, r5, #0
	cmp	r8, r3
	bge	.L1634
	mov	r3, #3056
	ldr	r2, .L1640+4
	ldr	r1, .L1640+8
	mov	r0, #0
	bl	dprint_vfmw
	b	.L1634
.L1637:
	movw	r3, #3044
	add	r2, r7, #656
	ldr	r1, .L1640+8
	mov	r0, #0
	bl	dprint_vfmw
	b	.L1632
.L1639:
	movw	r3, #3051
	ldr	r2, .L1640+4
	ldr	r1, .L1640+8
	bl	dprint_vfmw
	b	.L1635
.L1641:
	.align	2
.L1640:
	.word	.LANCHOR0
	.word	.LANCHOR0+656
	.word	.LC18
	UNWIND(.fnend)
	.size	VP9_Set_Segdata, .-VP9_Set_Segdata
	.align	2
	.global	Mi_Cols_Aligned_To_Sb
	.type	Mi_Cols_Aligned_To_Sb, %function
Mi_Cols_Aligned_To_Sb:
	UNWIND(.fnstart)
	@ args = 0, pretend = 0, frame = 0
	@ frame_needed = 1, uses_anonymous_args = 0
	UNWIND(.movsp ip)
	mov	ip, sp
	stmfd	sp!, {fp, ip, lr, pc}
	UNWIND(.pad #4)
	UNWIND(.save {fp, ip, lr})
	UNWIND(.setfp fp, ip, #-4)
	sub	fp, ip, #4
	add	r0, r0, #7
	bic	r0, r0, #7
	ldmfd	sp, {fp, sp, pc}
	UNWIND(.fnend)
	.size	Mi_Cols_Aligned_To_Sb, .-Mi_Cols_Aligned_To_Sb
	.align	2
	.global	To_Sbs
	.type	To_Sbs, %function
To_Sbs:
	UNWIND(.fnstart)
	@ args = 0, pretend = 0, frame = 0
	@ frame_needed = 1, uses_anonymous_args = 0
	UNWIND(.movsp ip)
	mov	ip, sp
	stmfd	sp!, {fp, ip, lr, pc}
	UNWIND(.pad #4)
	UNWIND(.save {fp, ip, lr})
	UNWIND(.setfp fp, ip, #-4)
	sub	fp, ip, #4
	add	r0, r0, #7
	mov	r0, r0, asr #3
	ldmfd	sp, {fp, sp, pc}
	UNWIND(.fnend)
	.size	To_Sbs, .-To_Sbs
	.align	2
	.global	VP9_Get_Tile_N_Bits
	.type	VP9_Get_Tile_N_Bits, %function
VP9_Get_Tile_N_Bits:
	UNWIND(.fnstart)
	@ args = 0, pretend = 0, frame = 0
	@ frame_needed = 1, uses_anonymous_args = 0
	UNWIND(.movsp ip)
	mov	ip, sp
	stmfd	sp!, {fp, ip, lr, pc}
	UNWIND(.pad #4)
	UNWIND(.save {fp, ip, lr})
	UNWIND(.setfp fp, ip, #-4)
	sub	fp, ip, #4
	add	r0, r0, #7
	mov	r3, #0
	mov	r0, r0, asr #3
	cmp	r0, #3
	ble	.L1645
.L1646:
	add	r3, r3, #1
	mov	ip, r0, asr r3
	cmp	ip, #3
	bgt	.L1646
	sub	r3, r3, #1
	bic	r3, r3, r3, asr #31
.L1645:
	cmp	r0, #64
	mov	ip, #0
	ble	.L1647
	mov	lr, #64
.L1648:
	add	ip, ip, #1
	cmp	r0, lr, asl ip
	bgt	.L1648
.L1647:
	str	ip, [r1]
	str	r3, [r2]
	ldmfd	sp, {fp, sp, pc}
	UNWIND(.fnend)
	.size	VP9_Get_Tile_N_Bits, .-VP9_Get_Tile_N_Bits
	.align	2
	.global	Setup_Tile_Info
	.type	Setup_Tile_Info, %function
Setup_Tile_Info:
	UNWIND(.fnstart)
	@ args = 0, pretend = 0, frame = 0
	@ frame_needed = 1, uses_anonymous_args = 0
	UNWIND(.movsp ip)
	mov	ip, sp
	stmfd	sp!, {r4, r5, r6, r7, fp, ip, lr, pc}
	UNWIND(.pad #4)
	UNWIND(.save {r4, r5, r6, r7, fp, ip, lr})
	UNWIND(.setfp fp, ip, #-4)
	sub	fp, ip, #4
	ldr	r2, [r1, #92]
	mov	r6, r1
	mov	r5, r0
	add	r2, r2, #7
	mov	r2, r2, asr #3
	cmp	r2, #3
	ble	.L1654
	mov	r4, #0
	b	.L1655
.L1666:
	mov	r4, r3
.L1655:
	add	r3, r4, #1
	mov	r1, r2, asr r3
	cmp	r1, #3
	bgt	.L1666
	cmp	r2, #64
	bic	r4, r4, r4, asr #31
	ble	.L1677
.L1664:
	mov	r3, #0
	mov	r1, #64
.L1657:
	add	r3, r3, #1
	cmp	r2, r1, asl r3
	bgt	.L1657
.L1656:
	subs	r4, r4, r3
	str	r3, [r6, #100]
	bne	.L1660
	b	.L1659
.L1662:
	ldr	r3, [r6, #100]
	subs	r4, r4, #1
	add	r3, r3, #1
	str	r3, [r6, #100]
	beq	.L1659
.L1660:
	mov	r1, #1
	mov	r0, r5
	bl	BsGet
	cmp	r0, #0
	bne	.L1662
.L1659:
	mov	r1, #1
	mov	r0, r5
	bl	BsGet
	cmp	r0, #0
	str	r0, [r6, #104]
	ldmeqfd	sp, {r4, r5, r6, r7, fp, sp, pc}
	mov	r0, r5
	mov	r1, #1
	bl	BsGet
	ldr	r3, [r6, #104]
	add	r0, r3, r0
	str	r0, [r6, #104]
	ldmfd	sp, {r4, r5, r6, r7, fp, sp, pc}
.L1654:
	cmp	r2, #64
	movgt	r4, #0
	bgt	.L1664
	mov	r3, #0
	str	r3, [r6, #100]
	b	.L1659
.L1677:
	mov	r3, #0
	b	.L1656
	UNWIND(.fnend)
	.size	Setup_Tile_Info, .-Setup_Tile_Info
	.align	2
	.global	Setup_Segmentation
	.type	Setup_Segmentation, %function
Setup_Segmentation:
	UNWIND(.fnstart)
	@ args = 0, pretend = 0, frame = 8
	@ frame_needed = 1, uses_anonymous_args = 0
	UNWIND(.movsp ip)
	mov	ip, sp
	stmfd	sp!, {r4, r5, r6, r7, r8, r9, r10, fp, ip, lr, pc}
	UNWIND(.pad #4)
	UNWIND(.save {r4, r5, r6, r7, r8, r9, r10, fp, ip, lr})
	UNWIND(.setfp fp, ip, #-4)
	sub	fp, ip, #4
	UNWIND(.pad #12)
	sub	sp, sp, #12
	mov	r5, r1
	mov	r3, #0
	mov	r1, #1
	strb	r3, [r5, #1]
	mov	r6, r0
	strb	r3, [r5, #2]
	bl	BsGet
	uxtb	r0, r0
	strb	r0, [r5]
	cmp	r0, #0
	bne	.L1715
.L1679:
	sub	sp, fp, #40
	ldmfd	sp, {r4, r5, r6, r7, r8, r9, r10, fp, sp, pc}
.L1715:
	mov	r1, #1
	mov	r0, r6
	bl	BsGet
	uxtb	r0, r0
	strb	r0, [r5, #1]
	cmp	r0, #0
	beq	.L1682
	add	r4, r5, #4
	add	r7, r5, #11
	b	.L1684
.L1683:
	strb	r3, [r4, #1]!
	cmp	r4, r7
	beq	.L1716
.L1684:
	mov	r1, #1
	mov	r0, r6
	bl	BsGet
	mov	r3, #255
	cmp	r0, #0
	beq	.L1683
	mov	r1, #8
	mov	r0, r6
	bl	BsGet
	uxtb	r3, r0
	strb	r3, [r4, #1]!
	cmp	r4, r7
	bne	.L1684
.L1716:
	mov	r1, #1
	mov	r0, r6
	bl	BsGet
	uxtb	r0, r0
	strb	r0, [r5, #4]
	cmp	r0, #0
	addne	r4, r5, #14
	bne	.L1687
	mvn	r3, #0
	strb	r3, [r5, #12]
	strb	r3, [r5, #13]
	strb	r3, [r5, #14]
.L1682:
	mov	r1, #1
	mov	r0, r6
	bl	BsGet
	uxtb	r0, r0
	strb	r0, [r5, #2]
	cmp	r0, #0
	beq	.L1679
	mov	r1, #1
	mov	r0, r6
	bl	BsGet
	add	r8, r5, #80
	mov	r7, #0
	ldr	r10, .L1719
	strb	r0, [r5, #3]
	mov	r0, r5
	bl	VP9_Clearall_Segfeatures
.L1689:
	mov	r4, #0
	mov	r9, #1
.L1692:
	mov	r1, #1
	mov	r0, r6
	bl	BsGet
	cmp	r0, #0
	moveq	r3, r0
	bne	.L1717
.L1691:
	mov	r2, r4
	mov	r1, r7
	add	r4, r4, #1
	mov	r0, r5
	bl	VP9_Set_Segdata
	cmp	r4, #4
	bne	.L1692
	add	r7, r7, #1
	add	r8, r8, #4
	cmp	r7, #8
	bne	.L1689
	sub	sp, fp, #40
	ldmfd	sp, {r4, r5, r6, r7, r8, r9, r10, fp, sp, pc}
.L1717:
	ldr	r3, [r8]
	mov	r0, r6
	ldr	r1, [r10, r4, asl #2]
	orr	r3, r3, r9, asl r4
	str	r3, [r8]
	bl	Decode_Unsigned_Max
	ldr	r2, .L1719+4
	ldr	r2, [r2, r4, asl #2]
	cmp	r2, #0
	mov	r3, r0
	beq	.L1691
	str	r0, [fp, #-48]
	mov	r1, #1
	mov	r0, r6
	bl	BsGet
	ldr	r3, [fp, #-48]
	adds	r0, r0, #0
	movne	r0, #1
	rsb	r2, r0, #0
	eor	r3, r3, r2
	add	r3, r3, r0
	b	.L1691
.L1687:
	mov	r1, #1
	mov	r0, r6
	bl	BsGet
	mov	r3, #255
	cmp	r0, #0
	bne	.L1718
.L1686:
	strb	r3, [r7, #1]!
	cmp	r7, r4
	bne	.L1687
	b	.L1682
.L1718:
	mov	r1, #8
	mov	r0, r6
	bl	BsGet
	uxtb	r3, r0
	b	.L1686
.L1720:
	.align	2
.L1719:
	.word	.LANCHOR0+624
	.word	.LANCHOR0+640
	UNWIND(.fnend)
	.size	Setup_Segmentation, .-Setup_Segmentation
	.align	2
	.global	read_interp_filter_type
	.type	read_interp_filter_type, %function
read_interp_filter_type:
	UNWIND(.fnstart)
	@ args = 0, pretend = 0, frame = 16
	@ frame_needed = 1, uses_anonymous_args = 0
	UNWIND(.movsp ip)
	mov	ip, sp
	stmfd	sp!, {r4, fp, ip, lr, pc}
	UNWIND(.pad #4)
	UNWIND(.save {r4, fp, ip, lr})
	UNWIND(.setfp fp, ip, #-4)
	sub	fp, ip, #4
	UNWIND(.pad #20)
	sub	sp, sp, #20
	ldr	r3, .L1725
	mov	r4, r0
	sub	ip, fp, #20
	ldmia	r3, {r0, r1, r2, r3}
	stmdb	ip, {r0, r1, r2, r3}
	mov	r0, r4
	mov	r1, #1
	bl	BsGet
	cmp	r0, #0
	movne	r0, #4
	beq	.L1724
	sub	sp, fp, #16
	ldmfd	sp, {r4, fp, sp, pc}
.L1724:
	mov	r0, r4
	mov	r1, #2
	bl	BsGet
	sub	r3, fp, #20
	add	r0, r3, r0, lsl #2
	ldr	r0, [r0, #-16]
	sub	sp, fp, #16
	ldmfd	sp, {r4, fp, sp, pc}
.L1726:
	.align	2
.L1725:
	.word	.LANCHOR0+672
	UNWIND(.fnend)
	.size	read_interp_filter_type, .-read_interp_filter_type
	.align	2
	.global	setup_inter_inter
	.type	setup_inter_inter, %function
setup_inter_inter:
	UNWIND(.fnstart)
	@ args = 0, pretend = 0, frame = 0
	@ frame_needed = 1, uses_anonymous_args = 0
	UNWIND(.movsp ip)
	mov	ip, sp
	stmfd	sp!, {fp, ip, lr, pc}
	UNWIND(.pad #4)
	UNWIND(.save {fp, ip, lr})
	UNWIND(.setfp fp, ip, #-4)
	sub	fp, ip, #4
	ldr	r3, [r0, #60]
	ldr	r1, [r0, #68]
	ldr	r2, [r0, #64]
	cmp	r2, r3
	cmpeq	r3, r1
	movne	r3, #1
	moveq	r3, #0
	str	r3, [r0, #52]
	ldmfd	sp, {fp, sp, pc}
	UNWIND(.fnend)
	.size	setup_inter_inter, .-setup_inter_inter
	.align	2
	.global	ref_cnt_fb
	.type	ref_cnt_fb, %function
ref_cnt_fb:
	UNWIND(.fnstart)
	@ args = 0, pretend = 0, frame = 0
	@ frame_needed = 1, uses_anonymous_args = 0
	UNWIND(.movsp ip)
	mov	ip, sp
	stmfd	sp!, {fp, ip, lr, pc}
	UNWIND(.pad #4)
	UNWIND(.save {fp, ip, lr})
	UNWIND(.setfp fp, ip, #-4)
	sub	fp, ip, #4
	ldr	ip, [r1]
	ldr	r3, [r0, ip, asl #2]
	cmp	r3, #0
	subgt	r3, r3, #1
	strgt	r3, [r0, ip, asl #2]
	str	r2, [r1]
	ldr	r3, [r0, r2, asl #2]
	add	r3, r3, #1
	str	r3, [r0, r2, asl #2]
	ldmfd	sp, {fp, sp, pc}
	UNWIND(.fnend)
	.size	ref_cnt_fb, .-ref_cnt_fb
	.align	2
	.global	VP9_get_fixed_point_scale_factor
	.type	VP9_get_fixed_point_scale_factor, %function
VP9_get_fixed_point_scale_factor:
	UNWIND(.fnstart)
	@ args = 0, pretend = 0, frame = 0
	@ frame_needed = 1, uses_anonymous_args = 0
	UNWIND(.movsp ip)
	mov	ip, sp
	stmfd	sp!, {fp, ip, lr, pc}
	UNWIND(.pad #4)
	UNWIND(.save {fp, ip, lr})
	UNWIND(.setfp fp, ip, #-4)
	sub	fp, ip, #4
	UNWIND(.pad #8)
	sub	sp, sp, #8
	subs	r3, r1, #0
	beq	.L1733
	mov	r0, r0, asl #14
	bl	__aeabi_idiv
.L1732:
	sub	sp, fp, #12
	ldmfd	sp, {fp, sp, pc}
.L1733:
	str	r3, [sp]
	mov	r0, #1
	movw	r3, #3249
	ldr	r2, .L1734
	ldr	r1, .L1734+4
	bl	dprint_vfmw
	mvn	r0, #0
	b	.L1732
.L1735:
	.align	2
.L1734:
	.word	.LANCHOR0+688
	.word	.LC19
	UNWIND(.fnend)
	.size	VP9_get_fixed_point_scale_factor, .-VP9_get_fixed_point_scale_factor
	.align	2
	.global	check_scale_factors
	.type	check_scale_factors, %function
check_scale_factors:
	UNWIND(.fnstart)
	@ args = 0, pretend = 0, frame = 0
	@ frame_needed = 1, uses_anonymous_args = 0
	UNWIND(.movsp ip)
	mov	ip, sp
	stmfd	sp!, {fp, ip, lr, pc}
	UNWIND(.pad #4)
	UNWIND(.save {fp, ip, lr})
	UNWIND(.setfp fp, ip, #-4)
	sub	fp, ip, #4
	cmp	r0, r2, asl #1
	bgt	.L1740
	cmp	r1, r3, asl #1
	bgt	.L1740
	cmp	r2, r0, asl #4
	bgt	.L1740
	cmp	r3, r1, asl #4
	movle	r0, #1
	movgt	r0, #0
	ldmfd	sp, {fp, sp, pc}
.L1740:
	mov	r0, #0
	ldmfd	sp, {fp, sp, pc}
	UNWIND(.fnend)
	.size	check_scale_factors, .-check_scale_factors
	.align	2
	.global	VP9_scaled_val
	.type	VP9_scaled_val, %function
VP9_scaled_val:
	UNWIND(.fnstart)
	@ args = 0, pretend = 0, frame = 0
	@ frame_needed = 1, uses_anonymous_args = 0
	UNWIND(.movsp ip)
	mov	ip, sp
	stmfd	sp!, {fp, ip, lr, pc}
	UNWIND(.pad #4)
	UNWIND(.save {fp, ip, lr})
	UNWIND(.setfp fp, ip, #-4)
	sub	fp, ip, #4
	smull	r2, r3, r0, r1
	mov	r0, r2, lsr #14
	orr	r0, r0, r3, asl #18
	ldmfd	sp, {fp, sp, pc}
	UNWIND(.fnend)
	.size	VP9_scaled_val, .-VP9_scaled_val
	.align	2
	.global	vp9_setup_scale_factors
	.type	vp9_setup_scale_factors, %function
vp9_setup_scale_factors:
	UNWIND(.fnstart)
	@ args = 4, pretend = 0, frame = 0
	@ frame_needed = 1, uses_anonymous_args = 0
	UNWIND(.movsp ip)
	mov	ip, sp
	stmfd	sp!, {r4, r5, r6, r7, fp, ip, lr, pc}
	UNWIND(.pad #4)
	UNWIND(.save {r4, r5, r6, r7, fp, ip, lr})
	UNWIND(.setfp fp, ip, #-4)
	sub	fp, ip, #4
	UNWIND(.pad #8)
	sub	sp, sp, #8
	cmp	r1, r3, asl #1
	mov	ip, r1
	mov	r4, r0
	mov	r7, r2
	ldr	r6, [fp, #4]
	bgt	.L1743
	cmp	r2, r6, asl #1
	ble	.L1753
.L1743:
	mvn	r2, #0
	mov	r3, #16
	str	r2, [r4]
	stmib	r4, {r2, r3}
	str	r3, [r4, #12]
	sub	sp, fp, #28
	ldmfd	sp, {r4, r5, r6, r7, fp, sp, pc}
.L1753:
	cmp	r3, r1, asl #4
	bgt	.L1743
	cmp	r6, r2, asl #4
	bgt	.L1743
	cmp	r3, #0
	beq	.L1754
	mov	r1, r3
	mov	r0, ip, asl #14
	bl	__aeabi_idiv
	cmp	r6, #0
	mov	r5, r0
	str	r5, [r4]
	beq	.L1755
.L1746:
	mov	r1, r6
	mov	r0, r7, asl #14
	bl	__aeabi_idiv
	mov	r7, r0, asr #31
	ubfx	r3, r0, #10, #18
	mov	r1, r7, asl #4
	orr	r1, r1, r0, lsr #28
	orr	r1, r3, r1, asl #18
.L1747:
	mov	r7, r5, asr #31
	ubfx	r3, r5, #10, #18
	str	r0, [r4, #4]
	mov	r2, r7, asl #4
	str	r1, [r4, #12]
	orr	r2, r2, r5, lsr #28
	orr	r3, r3, r2, asl #18
	str	r3, [r4, #8]
	sub	sp, fp, #28
	ldmfd	sp, {r4, r5, r6, r7, fp, sp, pc}
.L1754:
	str	r3, [sp]
	mov	r0, #1
	movw	r3, #3249
	ldr	r2, .L1756
	ldr	r1, .L1756+4
	mvn	r5, #0
	bl	dprint_vfmw
	cmp	r6, #0
	str	r5, [r4]
	bne	.L1746
.L1755:
	ldr	r1, .L1756+4
	movw	r3, #3249
	str	r6, [sp]
	mov	r0, #1
	ldr	r2, .L1756
	bl	dprint_vfmw
	mvn	r1, #0
	mov	r0, r1
	ldr	r5, [r4]
	b	.L1747
.L1757:
	.align	2
.L1756:
	.word	.LANCHOR0+688
	.word	.LC19
	UNWIND(.fnend)
	.size	vp9_setup_scale_factors, .-vp9_setup_scale_factors
	.align	2
	.global	Vp9_Vfmw_ReadProfile
	.type	Vp9_Vfmw_ReadProfile, %function
Vp9_Vfmw_ReadProfile:
	UNWIND(.fnstart)
	@ args = 0, pretend = 0, frame = 0
	@ frame_needed = 1, uses_anonymous_args = 0
	UNWIND(.movsp ip)
	mov	ip, sp
	stmfd	sp!, {r4, r5, fp, ip, lr, pc}
	UNWIND(.pad #4)
	UNWIND(.save {r4, r5, fp, ip, lr})
	UNWIND(.setfp fp, ip, #-4)
	sub	fp, ip, #4
	mov	r1, #1
	mov	r5, r0
	bl	BsGet
	mov	r1, #1
	mov	r4, r0
	mov	r0, r5
	bl	BsGet
	orr	r4, r4, r0, asl #1
	cmp	r4, #2
	ble	.L1759
	mov	r0, r5
	mov	r1, #1
	bl	BsGet
	add	r4, r0, r4
.L1759:
	mov	r0, r4
	ldmfd	sp, {r4, r5, fp, sp, pc}
	UNWIND(.fnend)
	.size	Vp9_Vfmw_ReadProfile, .-Vp9_Vfmw_ReadProfile
	.align	2
	.global	Vp9_ReadBitDepthColorSpaceSampling
	.type	Vp9_ReadBitDepthColorSpaceSampling, %function
Vp9_ReadBitDepthColorSpaceSampling:
	UNWIND(.fnstart)
	@ args = 0, pretend = 0, frame = 0
	@ frame_needed = 1, uses_anonymous_args = 0
	UNWIND(.movsp ip)
	mov	ip, sp
	stmfd	sp!, {r4, r5, r6, r7, fp, ip, lr, pc}
	UNWIND(.pad #4)
	UNWIND(.save {r4, r5, r6, r7, fp, ip, lr})
	UNWIND(.setfp fp, ip, #-4)
	sub	fp, ip, #4
	ldr	r3, [r1, #2444]
	mov	r2, #8
	mov	r4, r1
	mov	r5, r0
	cmp	r3, #1
	str	r2, [r1, #2500]
	bls	.L1761
	mov	r1, #1
	bl	BsGet
	cmp	r0, #0
	movne	r3, #12
	moveq	r3, #10
	str	r3, [r4, #2500]
.L1761:
	mov	r1, #3
	mov	r0, r5
	bl	BsGet
	cmp	r0, #7
	str	r0, [r4, #2448]
	beq	.L1763
	mov	r1, #1
	mov	r0, r5
	bl	BsGet
	ldr	r6, [r4, #2444]
	bic	r6, r6, #2
	cmp	r6, #1
	movne	r3, #1
	str	r0, [r4, #2452]
	strne	r3, [r4, #2480]
	strne	r3, [r4, #2476]
	ldmnefd	sp, {r4, r5, r6, r7, fp, sp, pc}
	mov	r1, r6
	mov	r0, r5
	bl	BsGet
	mov	r1, r6
	str	r0, [r4, #2476]
	mov	r0, r5
	bl	BsGet
	mov	r1, r6
	str	r0, [r4, #2480]
	mov	r0, r5
	sub	sp, fp, #28
	ldmfd	sp, {r4, r5, r6, r7, fp, sp, lr}
	b	BsGet
.L1763:
	ldr	r1, [r4, #2444]
	bic	r1, r1, #2
	cmp	r1, #1
	beq	.L1769
	movw	r3, #3352
	ldr	r2, .L1770
	ldr	r1, .L1770+4
	mov	r0, #1
	sub	sp, fp, #28
	ldmfd	sp, {r4, r5, r6, r7, fp, sp, lr}
	b	dprint_vfmw
.L1769:
	mov	r3, #0
	mov	r0, r5
	str	r3, [r4, #2480]
	str	r3, [r4, #2476]
	sub	sp, fp, #28
	ldmfd	sp, {r4, r5, r6, r7, fp, sp, lr}
	b	BsGet
.L1771:
	.align	2
.L1770:
	.word	.LANCHOR0+724
	.word	.LC20
	UNWIND(.fnend)
	.size	Vp9_ReadBitDepthColorSpaceSampling, .-Vp9_ReadBitDepthColorSpaceSampling
	.align	2
	.global	Vp9_ReadCompressedHeader
	.type	Vp9_ReadCompressedHeader, %function
Vp9_ReadCompressedHeader:
	UNWIND(.fnstart)
	@ args = 24, pretend = 0, frame = 8
	@ frame_needed = 1, uses_anonymous_args = 0
	UNWIND(.movsp ip)
	mov	ip, sp
	stmfd	sp!, {r4, r5, r6, r7, r8, r9, r10, fp, ip, lr, pc}
	UNWIND(.pad #4)
	UNWIND(.save {r4, r5, r6, r7, r8, r9, r10, fp, ip, lr})
	UNWIND(.setfp fp, ip, #-4)
	sub	fp, ip, #4
	UNWIND(.pad #28)
	sub	sp, sp, #28
	ldr	lr, [fp, #16]
	mov	r4, #0
	mov	r7, r1
	cmp	lr, #0
	mov	r6, r2
	mov	r8, r3
	mov	r5, r0
	str	r4, [fp, #-48]
	ldr	r10, [fp, #8]
	ldr	r9, [fp, #12]
	beq	.L1777
.L1773:
	mov	r2, r5
	mov	r1, r4
	mov	r0, r7
	bl	Vp9_ReadCoefProbs
	ldr	r2, [fp, #4]
	mov	r0, r7
	mov	r3, r8
	sub	ip, fp, #48
	stmib	sp, {r9, r10}
	str	r2, [sp]
	mov	r1, r5
	mov	r2, r6
	str	ip, [sp, #12]
	bl	Vp9_PrepareReadModeInfo
	ldr	r3, [r5, #32]
	sub	r3, r3, #33
	cmn	r3, #-1073741790
	ldrhi	r3, [fp, #-48]
	movhi	r0, #0
	ldrhi	r2, [fp, #20]
	mvnls	r0, #0
	strhi	r3, [r2]
	ldrhi	r3, [fp, #24]
	strhi	r4, [r3]
	sub	sp, fp, #40
	ldmfd	sp, {r4, r5, r6, r7, r8, r9, r10, fp, sp, pc}
.L1777:
	bl	Vp9_ReadTxMode
	cmp	r0, #4
	mov	r4, r0
	bne	.L1773
	add	r0, r7, #2000
	mov	r1, r5
	add	r0, r0, #3
	bl	Vp9_ReadTxProbs
	b	.L1773
	UNWIND(.fnend)
	.size	Vp9_ReadCompressedHeader, .-Vp9_ReadCompressedHeader
	.align	2
	.global	Read_UnCompressed_Header
	.type	Read_UnCompressed_Header, %function
Read_UnCompressed_Header:
	UNWIND(.fnstart)
	@ args = 0, pretend = 0, frame = 0
	@ frame_needed = 1, uses_anonymous_args = 0
	UNWIND(.movsp ip)
	mov	ip, sp
	stmfd	sp!, {r4, r5, r6, r7, r8, r9, fp, ip, lr, pc}
	UNWIND(.pad #4)
	UNWIND(.save {r4, r5, r6, r7, r8, r9, fp, ip, lr})
	UNWIND(.setfp fp, ip, #-4)
	sub	fp, ip, #4
	UNWIND(.pad #8)
	sub	sp, sp, #8
	mov	r4, r1
	ldr	r3, [r4, #2440]
	mov	r1, #2
	mov	r5, r0
	str	r3, [r4, #2436]
	bl	BsGet
	cmp	r0, #2
	beq	.L1779
	ldr	r1, .L1813
	mov	r0, #1
	bl	dprint_vfmw
.L1779:
	mov	r0, r5
	bl	Vp9_Vfmw_ReadProfile
	mov	r1, #1
	str	r0, [r4, #2444]
	mov	r0, r5
	bl	BsGet
	subs	r6, r0, #0
	bne	.L1809
	mov	r1, #1
	str	r6, [r4, #2460]
	mov	r0, r5
	bl	BsGet
	mov	r1, #1
	str	r0, [r4, #2440]
	mov	r0, r5
	bl	BsGet
	mov	r1, #1
	str	r0, [r4, #2456]
	mov	r0, r5
	bl	BsGet
	ldr	r2, [r4, #2440]
	cmp	r2, #0
	mov	r3, r0
	str	r0, [r4, #2472]
	beq	.L1810
	ldr	r2, [r4, #2456]
	cmp	r2, #0
	strne	r6, [r4, #2540]
	beq	.L1811
.L1785:
	cmp	r3, #0
	beq	.L1786
	mov	r3, #0
	str	r3, [r4, #2544]
.L1787:
	ldr	r3, [r4, #2540]
	cmp	r3, #0
	beq	.L1788
	mov	r0, r5
	bl	Check_Sync_Code
	ldr	r3, [r4, #2444]
	cmp	r3, #1
	bls	.L1789
	mov	r1, r4
	mov	r0, r5
	bl	Vp9_ReadBitDepthColorSpaceSampling
.L1790:
	mov	r1, #8
	mov	r0, r5
	bl	BsGet
	mov	r1, r4
	str	r0, [r4, #2548]
	mov	r0, r5
	bl	Setup_Frame_Size
	b	.L1783
.L1809:
	mov	r1, #3
	mov	r0, r5
	bl	BsGet
	mov	r3, #0
	mov	r6, r3
	mov	r2, #1
	add	r0, r0, #36
	ldr	r1, [r4, r0, asl #2]
	str	r3, [r4, #2548]
	str	r3, [r4, #336]
	str	r1, [r4, #2464]
	str	r2, [r4, #2460]
	str	r2, [r4, #2456]
.L1781:
	mov	r0, r6
	sub	sp, fp, #36
	ldmfd	sp, {r4, r5, r6, r7, r8, r9, fp, sp, pc}
.L1788:
	mov	r1, #8
	mov	r0, r5
	bl	BsGet
	add	r7, r4, #172
	add	r8, r4, #184
	mov	r9, r7
	str	r0, [r4, #2548]
.L1791:
	mov	r1, #3
	mov	r0, r5
	bl	BsGet
	mov	r1, #1
	add	r3, r0, #36
	mov	r0, r5
	ldr	r3, [r4, r3, asl #2]
	str	r3, [r9, #4]!
	bl	BsGet
	cmp	r9, r8
	str	r0, [r9, #-116]
	bne	.L1791
	mov	r1, r4
	mov	r0, r5
	bl	setup_frame_size_with_refs
	ldr	r2, [r4, #2484]
	sub	r3, r2, #1
	cmp	r3, #4096
	ldr	r3, [r4, #2488]
	bcs	.L1793
	sub	r1, r3, #1
	cmp	r1, #4096
	bcs	.L1793
	mov	r1, #1
	mov	r0, r5
	bl	BsGet
	add	r9, r4, #2800
	add	r9, r9, #12
	str	r0, [r4, #48]
	mov	r0, r5
	bl	read_interp_filter_type
	str	r0, [r4, #2552]
.L1795:
	ldr	r1, [r7, #4]!
	mov	r0, r9
	ldr	ip, [r4, #2488]
	add	r9, r9, #16
	ldr	r3, [r4, #2484]
	add	r1, r4, r1, lsl #4
	add	r1, r1, #2656
	ldr	r2, [r1, #24]
	add	r1, r1, #12
	ldr	r1, [r1, #8]
	str	ip, [sp]
	bl	vp9_setup_scale_factors
	cmp	r8, r7
	bne	.L1795
	ldr	r3, [r4, #60]
	ldr	r1, [r4, #68]
	ldr	r2, [r4, #64]
	cmp	r2, r3
	cmpeq	r3, r1
	movne	r3, #1
	moveq	r3, #0
	str	r3, [r4, #52]
	b	.L1783
.L1810:
	mov	r0, r5
	bl	Check_Sync_Code
	mov	r1, r4
	mov	r0, r5
	bl	Vp9_ReadBitDepthColorSpaceSampling
	ldr	r3, [r4, #2432]
	mov	r2, #255
	mov	r1, r4
	str	r2, [r4, #2548]
	mov	r0, r5
	str	r3, [r4, #176]
	str	r3, [r4, #180]
	str	r3, [r4, #184]
